ARM GAS  /var/folders/ww/n4ctlbrs3x70633t9y2ks63c0000gn/T//cczEN8gq.s 			page 1


   1              		.cpu cortex-m3
   2              		.eabi_attribute 20, 1
   3              		.eabi_attribute 21, 1
   4              		.eabi_attribute 23, 3
   5              		.eabi_attribute 24, 1
   6              		.eabi_attribute 25, 1
   7              		.eabi_attribute 26, 1
   8              		.eabi_attribute 30, 1
   9              		.eabi_attribute 34, 1
  10              		.eabi_attribute 18, 4
  11              		.file	"Adc.c"
  12              		.text
  13              	.Ltext0:
  14              		.cfi_sections	.debug_frame
  15              		.section	.text.AdcInit,"ax",%progbits
  16              		.align	1
  17              		.global	AdcInit
  18              		.arch armv7-m
  19              		.syntax unified
  20              		.thumb
  21              		.thumb_func
  22              		.fpu softvfp
  24              	AdcInit:
  25              	.LFB65:
  26              		.file 1 "HARDWARE/Adc.c"
   1:HARDWARE/Adc.c **** #include "Adc.h"
   2:HARDWARE/Adc.c **** 
   3:HARDWARE/Adc.c **** _ADCS ADCS = {
   4:HARDWARE/Adc.c **** 	.AD0_VAC={GPIOA,PIN4,4},
   5:HARDWARE/Adc.c **** 	.AD1_VFN={GPIOA,PIN5,5},
   6:HARDWARE/Adc.c **** 	.AD2_VTY={GPIOA,PIN6,6},
   7:HARDWARE/Adc.c **** 	.AD3_BAT={GPIOA,PIN7,7},
   8:HARDWARE/Adc.c **** 	.AD4_IF={GPIOC,PIN4,14},
   9:HARDWARE/Adc.c **** 	.AD5_IC={GPIOC,PIN5,15},
  10:HARDWARE/Adc.c **** 	.AD6_IC1={GPIOB,PIN0,8},
  11:HARDWARE/Adc.c **** };
  12:HARDWARE/Adc.c **** 
  13:HARDWARE/Adc.c **** void AdcInit(void)
  14:HARDWARE/Adc.c **** {
  27              		.loc 1 14 1 view -0
  28              		.cfi_startproc
  29              		@ args = 0, pretend = 0, frame = 0
  30              		@ frame_needed = 0, uses_anonymous_args = 0
  31 0000 70B5     		push	{r4, r5, r6, lr}
  32              	.LCFI0:
  33              		.cfi_def_cfa_offset 16
  34              		.cfi_offset 4, -16
  35              		.cfi_offset 5, -12
  36              		.cfi_offset 6, -8
  37              		.cfi_offset 14, -4
  38 0002 82B0     		sub	sp, sp, #8
  39              	.LCFI1:
  40              		.cfi_def_cfa_offset 24
  15:HARDWARE/Adc.c **** 	RCC->APB2RSTR |= 1<<9;
  41              		.loc 1 15 2 view .LVU1
  42              		.loc 1 15 16 is_stmt 0 view .LVU2
  43 0004 2F4C     		ldr	r4, .L3
ARM GAS  /var/folders/ww/n4ctlbrs3x70633t9y2ks63c0000gn/T//cczEN8gq.s 			page 2


  44 0006 6369     		ldr	r3, [r4, #20]
  45 0008 43F40073 		orr	r3, r3, #512
  46 000c 6361     		str	r3, [r4, #20]
  16:HARDWARE/Adc.c **** 	delay_ms(2);
  47              		.loc 1 16 2 is_stmt 1 view .LVU3
  48 000e 0220     		movs	r0, #2
  49 0010 0021     		movs	r1, #0
  50 0012 FFF7FEFF 		bl	delay_ms
  51              	.LVL0:
  17:HARDWARE/Adc.c **** 	RCC->APB2RSTR &= ~(1<<9);
  52              		.loc 1 17 2 view .LVU4
  53              		.loc 1 17 16 is_stmt 0 view .LVU5
  54 0016 6369     		ldr	r3, [r4, #20]
  55 0018 23F40073 		bic	r3, r3, #512
  56 001c 6361     		str	r3, [r4, #20]
  18:HARDWARE/Adc.c **** 	delay_ms(2);
  57              		.loc 1 18 2 is_stmt 1 view .LVU6
  58 001e 0220     		movs	r0, #2
  59 0020 0021     		movs	r1, #0
  60 0022 FFF7FEFF 		bl	delay_ms
  61              	.LVL1:
  19:HARDWARE/Adc.c **** 	RCC->AHBENR  |= 0x05;    	//使能PA、PC时钟
  62              		.loc 1 19 2 view .LVU7
  63              		.loc 1 19 15 is_stmt 0 view .LVU8
  64 0026 E369     		ldr	r3, [r4, #28]
  65 0028 43F00503 		orr	r3, r3, #5
  66 002c E361     		str	r3, [r4, #28]
  20:HARDWARE/Adc.c **** 	RCC->APB2ENR |= (1<<9);		//使能ADC1时钟
  67              		.loc 1 20 2 is_stmt 1 view .LVU9
  68              		.loc 1 20 15 is_stmt 0 view .LVU10
  69 002e 236A     		ldr	r3, [r4, #32]
  70 0030 43F40073 		orr	r3, r3, #512
  71 0034 2362     		str	r3, [r4, #32]
  21:HARDWARE/Adc.c **** 	//AD0、AD1、AD2、AD3模拟输入,下拉
  22:HARDWARE/Adc.c **** 	GPIO_Set(ADCS.AD0_VAC.PORT,ADCS.AD0_VAC.PIN | ADCS.AD1_VFN.PIN | ADCS.AD2_VTY.PIN | ADCS.AD3_BAT.P
  72              		.loc 1 22 2 is_stmt 1 view .LVU11
  73              		.loc 1 22 41 is_stmt 0 view .LVU12
  74 0036 244C     		ldr	r4, .L3+4
  75 0038 6168     		ldr	r1, [r4, #4]
  76              		.loc 1 22 60 view .LVU13
  77 003a 2369     		ldr	r3, [r4, #16]
  78              		.loc 1 22 46 view .LVU14
  79 003c 1943     		orrs	r1, r1, r3
  80              		.loc 1 22 79 view .LVU15
  81 003e E369     		ldr	r3, [r4, #28]
  82              		.loc 1 22 65 view .LVU16
  83 0040 1943     		orrs	r1, r1, r3
  84              		.loc 1 22 98 view .LVU17
  85 0042 A06A     		ldr	r0, [r4, #40]
  86              		.loc 1 22 2 view .LVU18
  87 0044 0226     		movs	r6, #2
  88 0046 0196     		str	r6, [sp, #4]
  89 0048 0025     		movs	r5, #0
  90 004a 0095     		str	r5, [sp]
  91 004c 2B46     		mov	r3, r5
  92 004e 0322     		movs	r2, #3
  93 0050 0143     		orrs	r1, r1, r0
ARM GAS  /var/folders/ww/n4ctlbrs3x70633t9y2ks63c0000gn/T//cczEN8gq.s 			page 3


  94 0052 2068     		ldr	r0, [r4]
  95 0054 FFF7FEFF 		bl	GPIO_Set
  96              	.LVL2:
  23:HARDWARE/Adc.c **** 	//AD4、AD5模拟输入,下拉
  24:HARDWARE/Adc.c **** 	GPIO_Set(ADCS.AD4_IF.PORT,ADCS.AD4_IF.PIN | ADCS.AD5_IC.PIN,GPIO_MODE_AIN,0,0,GPIO_PUPD_PD);
  97              		.loc 1 24 2 is_stmt 1 view .LVU19
  98              		.loc 1 24 39 is_stmt 0 view .LVU20
  99 0058 606B     		ldr	r0, [r4, #52]
 100              		.loc 1 24 57 view .LVU21
 101 005a 216C     		ldr	r1, [r4, #64]
 102              		.loc 1 24 2 view .LVU22
 103 005c 0196     		str	r6, [sp, #4]
 104 005e 0095     		str	r5, [sp]
 105 0060 2B46     		mov	r3, r5
 106 0062 0322     		movs	r2, #3
 107 0064 0143     		orrs	r1, r1, r0
 108 0066 206B     		ldr	r0, [r4, #48]
 109 0068 FFF7FEFF 		bl	GPIO_Set
 110              	.LVL3:
  25:HARDWARE/Adc.c **** 	//AD6模拟输入,下拉
  26:HARDWARE/Adc.c **** 	GPIO_Set(ADCS.AD6_IC1.PORT,ADCS.AD6_IC1.PIN | ADCS.AD6_IC1.PIN,GPIO_MODE_AIN,0,0,GPIO_PUPD_PD);
 111              		.loc 1 26 2 is_stmt 1 view .LVU23
 112 006c 0196     		str	r6, [sp, #4]
 113 006e 0095     		str	r5, [sp]
 114 0070 2B46     		mov	r3, r5
 115 0072 0322     		movs	r2, #3
 116 0074 E16C     		ldr	r1, [r4, #76]
 117 0076 A06C     		ldr	r0, [r4, #72]
 118 0078 FFF7FEFF 		bl	GPIO_Set
 119              	.LVL4:
  27:HARDWARE/Adc.c **** 	ADC->CCR=1<<16;
 120              		.loc 1 27 2 view .LVU24
 121              		.loc 1 27 10 is_stmt 0 view .LVU25
 122 007c 134B     		ldr	r3, .L3+8
 123 007e 4FF48032 		mov	r2, #65536
 124 0082 5A60     		str	r2, [r3, #4]
  28:HARDWARE/Adc.c **** 	ADC1->CR1=0;   				//CR1设置清零
 125              		.loc 1 28 2 is_stmt 1 view .LVU26
 126              		.loc 1 28 11 is_stmt 0 view .LVU27
 127 0084 A3F54073 		sub	r3, r3, #768
 128 0088 5D60     		str	r5, [r3, #4]
  29:HARDWARE/Adc.c **** 	ADC1->CR2=0;   				//CR2设置清零	
 129              		.loc 1 29 2 is_stmt 1 view .LVU28
 130              		.loc 1 29 11 is_stmt 0 view .LVU29
 131 008a 9D60     		str	r5, [r3, #8]
  30:HARDWARE/Adc.c **** 	ADC1->SQR1&=~(0x0f<<20); 
 132              		.loc 1 30 2 is_stmt 1 view .LVU30
 133              		.loc 1 30 12 is_stmt 0 view .LVU31
 134 008c 1A6B     		ldr	r2, [r3, #48]
 135 008e 22F47002 		bic	r2, r2, #15728640
 136 0092 1A63     		str	r2, [r3, #48]
  31:HARDWARE/Adc.c **** 	ADC1->SMPR3 |= 0xFFF << 12;	//通道4、5、6、7 384个采样周期
 137              		.loc 1 31 2 is_stmt 1 view .LVU32
 138              		.loc 1 31 14 is_stmt 0 view .LVU33
 139 0094 5A69     		ldr	r2, [r3, #20]
 140 0096 42F47F02 		orr	r2, r2, #16711680
 141 009a 42F47042 		orr	r2, r2, #61440
ARM GAS  /var/folders/ww/n4ctlbrs3x70633t9y2ks63c0000gn/T//cczEN8gq.s 			page 4


 142 009e 5A61     		str	r2, [r3, #20]
  32:HARDWARE/Adc.c **** 	ADC1->SMPR2 |= 0x3F << 15;	//通道14、15 384个采样周期 
 143              		.loc 1 32 2 is_stmt 1 view .LVU34
 144              		.loc 1 32 14 is_stmt 0 view .LVU35
 145 00a0 1A69     		ldr	r2, [r3, #16]
 146 00a2 42F4FC12 		orr	r2, r2, #2064384
 147 00a6 1A61     		str	r2, [r3, #16]
  33:HARDWARE/Adc.c **** 	ADC1->SMPR2 |= 0x07 << 9;	//通道8 384个采样周期 
 148              		.loc 1 33 2 is_stmt 1 view .LVU36
 149              		.loc 1 33 14 is_stmt 0 view .LVU37
 150 00a8 1A69     		ldr	r2, [r3, #16]
 151 00aa 42F46062 		orr	r2, r2, #3584
 152 00ae 1A61     		str	r2, [r3, #16]
  34:HARDWARE/Adc.c ****  	ADC1->CR2|=1<<0;	   		//开启AD转换器	 
 153              		.loc 1 34 3 is_stmt 1 view .LVU38
 154              		.loc 1 34 12 is_stmt 0 view .LVU39
 155 00b0 9A68     		ldr	r2, [r3, #8]
 156 00b2 42F00102 		orr	r2, r2, #1
 157 00b6 9A60     		str	r2, [r3, #8]
  35:HARDWARE/Adc.c **** 	delay_ms(2);	
 158              		.loc 1 35 2 is_stmt 1 view .LVU40
 159 00b8 0220     		movs	r0, #2
 160 00ba 0021     		movs	r1, #0
 161 00bc FFF7FEFF 		bl	delay_ms
 162              	.LVL5:
  36:HARDWARE/Adc.c **** }
 163              		.loc 1 36 1 is_stmt 0 view .LVU41
 164 00c0 02B0     		add	sp, sp, #8
 165              	.LCFI2:
 166              		.cfi_def_cfa_offset 16
 167              		@ sp needed
 168 00c2 70BD     		pop	{r4, r5, r6, pc}
 169              	.L4:
 170              		.align	2
 171              	.L3:
 172 00c4 00380240 		.word	1073887232
 173 00c8 00000000 		.word	.LANCHOR0
 174 00cc 00270140 		.word	1073817344
 175              		.cfi_endproc
 176              	.LFE65:
 178              		.section	.text.Get_Adc,"ax",%progbits
 179              		.align	1
 180              		.global	Get_Adc
 181              		.syntax unified
 182              		.thumb
 183              		.thumb_func
 184              		.fpu softvfp
 186              	Get_Adc:
 187              	.LVL6:
 188              	.LFB66:
  37:HARDWARE/Adc.c **** 
  38:HARDWARE/Adc.c **** //获得ADC值
  39:HARDWARE/Adc.c **** //ch:通道值 0~18
  40:HARDWARE/Adc.c **** //返回值:转换结果
  41:HARDWARE/Adc.c **** u16 Get_Adc(u8 ch)   
  42:HARDWARE/Adc.c **** {
 189              		.loc 1 42 1 is_stmt 1 view -0
ARM GAS  /var/folders/ww/n4ctlbrs3x70633t9y2ks63c0000gn/T//cczEN8gq.s 			page 5


 190              		.cfi_startproc
 191              		@ args = 0, pretend = 0, frame = 0
 192              		@ frame_needed = 0, uses_anonymous_args = 0
 193              		@ link register save eliminated.
  43:HARDWARE/Adc.c **** 	//设置转换序列	  		 
  44:HARDWARE/Adc.c **** 	ADC1->SQR5&=0XFFFFFFE0;//规则序列1 通道ch
 194              		.loc 1 44 2 view .LVU43
 195              		.loc 1 44 12 is_stmt 0 view .LVU44
 196 0000 0C4B     		ldr	r3, .L7
 197 0002 1A6C     		ldr	r2, [r3, #64]
 198 0004 22F01F02 		bic	r2, r2, #31
 199 0008 1A64     		str	r2, [r3, #64]
  45:HARDWARE/Adc.c **** 	ADC1->SQR5|=ch;		  			    
 200              		.loc 1 45 2 is_stmt 1 view .LVU45
 201              		.loc 1 45 12 is_stmt 0 view .LVU46
 202 000a 1A6C     		ldr	r2, [r3, #64]
 203 000c 1043     		orrs	r0, r0, r2
 204              	.LVL7:
 205              		.loc 1 45 12 view .LVU47
 206 000e 1864     		str	r0, [r3, #64]
  46:HARDWARE/Adc.c **** 	ADC1->CR2|=1<<30;       //启动规则转换通道 
 207              		.loc 1 46 2 is_stmt 1 view .LVU48
 208              		.loc 1 46 11 is_stmt 0 view .LVU49
 209 0010 9A68     		ldr	r2, [r3, #8]
 210 0012 42F08042 		orr	r2, r2, #1073741824
 211 0016 9A60     		str	r2, [r3, #8]
  47:HARDWARE/Adc.c **** 	ADC1->CR2|=1<<0;	   	//开启AD转换器	 
 212              		.loc 1 47 2 is_stmt 1 view .LVU50
 213              		.loc 1 47 11 is_stmt 0 view .LVU51
 214 0018 9A68     		ldr	r2, [r3, #8]
 215 001a 42F00102 		orr	r2, r2, #1
 216 001e 9A60     		str	r2, [r3, #8]
  48:HARDWARE/Adc.c **** 	while(!(ADC1->SR&(1<<1)));//等待转换结束	 	   
 217              		.loc 1 48 2 is_stmt 1 view .LVU52
 218              	.L6:
 219              		.loc 1 48 27 discriminator 1 view .LVU53
 220              		.loc 1 48 14 is_stmt 0 discriminator 1 view .LVU54
 221 0020 044B     		ldr	r3, .L7
 222 0022 1B68     		ldr	r3, [r3]
 223              		.loc 1 48 7 discriminator 1 view .LVU55
 224 0024 13F0020F 		tst	r3, #2
 225 0028 FAD0     		beq	.L6
  49:HARDWARE/Adc.c **** 	return ADC1->DR;		//返回adc值	
 226              		.loc 1 49 2 is_stmt 1 view .LVU56
 227              		.loc 1 49 13 is_stmt 0 view .LVU57
 228 002a 024B     		ldr	r3, .L7
 229 002c 986D     		ldr	r0, [r3, #88]
  50:HARDWARE/Adc.c **** }
 230              		.loc 1 50 1 view .LVU58
 231 002e 80B2     		uxth	r0, r0
 232 0030 7047     		bx	lr
 233              	.L8:
 234 0032 00BF     		.align	2
 235              	.L7:
 236 0034 00240140 		.word	1073816576
 237              		.cfi_endproc
 238              	.LFE66:
ARM GAS  /var/folders/ww/n4ctlbrs3x70633t9y2ks63c0000gn/T//cczEN8gq.s 			page 6


 240              		.section	.text.Get_Adc_Average,"ax",%progbits
 241              		.align	1
 242              		.global	Get_Adc_Average
 243              		.syntax unified
 244              		.thumb
 245              		.thumb_func
 246              		.fpu softvfp
 248              	Get_Adc_Average:
 249              	.LVL8:
 250              	.LFB67:
  51:HARDWARE/Adc.c **** //获取通道ch的转换值，取times次,然后平均 
  52:HARDWARE/Adc.c **** //ch:通道编号
  53:HARDWARE/Adc.c **** //times:获取次数
  54:HARDWARE/Adc.c **** //返回值:通道ch的times次转换结果平均值
  55:HARDWARE/Adc.c **** u16 Get_Adc_Average(u8 ch,u8 times)
  56:HARDWARE/Adc.c **** {
 251              		.loc 1 56 1 is_stmt 1 view -0
 252              		.cfi_startproc
 253              		@ args = 0, pretend = 0, frame = 0
 254              		@ frame_needed = 0, uses_anonymous_args = 0
 255              		.loc 1 56 1 is_stmt 0 view .LVU60
 256 0000 F8B5     		push	{r3, r4, r5, r6, r7, lr}
 257              	.LCFI3:
 258              		.cfi_def_cfa_offset 24
 259              		.cfi_offset 3, -24
 260              		.cfi_offset 4, -20
 261              		.cfi_offset 5, -16
 262              		.cfi_offset 6, -12
 263              		.cfi_offset 7, -8
 264              		.cfi_offset 14, -4
 265 0002 0746     		mov	r7, r0
 266 0004 0E46     		mov	r6, r1
  57:HARDWARE/Adc.c **** 	u32 temp_val=0;
 267              		.loc 1 57 2 is_stmt 1 view .LVU61
 268              	.LVL9:
  58:HARDWARE/Adc.c **** 	u8 t;
 269              		.loc 1 58 2 view .LVU62
  59:HARDWARE/Adc.c **** 	for(t=0;t<times;t++)
 270              		.loc 1 59 2 view .LVU63
 271              		.loc 1 59 7 is_stmt 0 view .LVU64
 272 0006 0024     		movs	r4, #0
  57:HARDWARE/Adc.c **** 	u32 temp_val=0;
 273              		.loc 1 57 6 view .LVU65
 274 0008 2546     		mov	r5, r4
 275              	.LVL10:
 276              	.L10:
 277              		.loc 1 59 2 discriminator 1 view .LVU66
 278 000a B442     		cmp	r4, r6
 279 000c 0AD2     		bcs	.L13
  60:HARDWARE/Adc.c **** 	{
  61:HARDWARE/Adc.c **** 		temp_val+=Get_Adc(ch);
 280              		.loc 1 61 3 is_stmt 1 discriminator 3 view .LVU67
 281              		.loc 1 61 13 is_stmt 0 discriminator 3 view .LVU68
 282 000e 3846     		mov	r0, r7
 283 0010 FFF7FEFF 		bl	Get_Adc
 284              	.LVL11:
 285              		.loc 1 61 11 discriminator 3 view .LVU69
ARM GAS  /var/folders/ww/n4ctlbrs3x70633t9y2ks63c0000gn/T//cczEN8gq.s 			page 7


 286 0014 0544     		add	r5, r5, r0
 287              	.LVL12:
  62:HARDWARE/Adc.c **** 		delay_ms(5);
 288              		.loc 1 62 3 is_stmt 1 discriminator 3 view .LVU70
 289 0016 0520     		movs	r0, #5
 290 0018 0021     		movs	r1, #0
 291 001a FFF7FEFF 		bl	delay_ms
 292              	.LVL13:
  59:HARDWARE/Adc.c **** 	for(t=0;t<times;t++)
 293              		.loc 1 59 19 is_stmt 0 discriminator 3 view .LVU71
 294 001e 0134     		adds	r4, r4, #1
 295              	.LVL14:
  59:HARDWARE/Adc.c **** 	for(t=0;t<times;t++)
 296              		.loc 1 59 19 discriminator 3 view .LVU72
 297 0020 E4B2     		uxtb	r4, r4
 298              	.LVL15:
  59:HARDWARE/Adc.c **** 	for(t=0;t<times;t++)
 299              		.loc 1 59 19 discriminator 3 view .LVU73
 300 0022 F2E7     		b	.L10
 301              	.L13:
  63:HARDWARE/Adc.c **** 	}
  64:HARDWARE/Adc.c **** 	return temp_val/times;
 302              		.loc 1 64 2 is_stmt 1 view .LVU74
 303              		.loc 1 64 17 is_stmt 0 view .LVU75
 304 0024 B5FBF6F0 		udiv	r0, r5, r6
  65:HARDWARE/Adc.c **** }  
 305              		.loc 1 65 1 view .LVU76
 306 0028 80B2     		uxth	r0, r0
 307 002a F8BD     		pop	{r3, r4, r5, r6, r7, pc}
 308              		.loc 1 65 1 view .LVU77
 309              		.cfi_endproc
 310              	.LFE67:
 312              		.global	ADCS
 313              		.section	.data.ADCS,"aw"
 314              		.align	2
 315              		.set	.LANCHOR0,. + 0
 318              	ADCS:
 319 0000 00000240 		.word	1073872896
 320 0004 10000000 		.word	16
 321 0008 04       		.byte	4
 322 0009 000000   		.space	3
 323 000c 00000240 		.word	1073872896
 324 0010 20000000 		.word	32
 325 0014 05       		.byte	5
 326 0015 000000   		.space	3
 327 0018 00000240 		.word	1073872896
 328 001c 40000000 		.word	64
 329 0020 06       		.byte	6
 330 0021 000000   		.space	3
 331 0024 00000240 		.word	1073872896
 332 0028 80000000 		.word	128
 333 002c 07       		.byte	7
 334 002d 000000   		.space	3
 335 0030 00080240 		.word	1073874944
 336 0034 10000000 		.word	16
 337 0038 0E       		.byte	14
 338 0039 000000   		.space	3
ARM GAS  /var/folders/ww/n4ctlbrs3x70633t9y2ks63c0000gn/T//cczEN8gq.s 			page 8


 339 003c 00080240 		.word	1073874944
 340 0040 20000000 		.word	32
 341 0044 0F       		.byte	15
 342 0045 000000   		.space	3
 343 0048 00040240 		.word	1073873920
 344 004c 01000000 		.word	1
 345 0050 08       		.byte	8
 346 0051 000000   		.space	3
 347              		.text
 348              	.Letext0:
 349              		.file 2 "/Users/shuuyou/gcc-arm-none-eabi/arm-none-eabi/include/machine/_default_types.h"
 350              		.file 3 "/Users/shuuyou/gcc-arm-none-eabi/arm-none-eabi/include/sys/_stdint.h"
 351              		.file 4 "Inc/stm32l152xe.h"
 352              		.file 5 "/Users/shuuyou/gcc-arm-none-eabi/lib/gcc/arm-none-eabi/8.3.1/include/stddef.h"
 353              		.file 6 "/Users/shuuyou/gcc-arm-none-eabi/arm-none-eabi/include/sys/_types.h"
 354              		.file 7 "/Users/shuuyou/gcc-arm-none-eabi/arm-none-eabi/include/sys/reent.h"
 355              		.file 8 "/Users/shuuyou/gcc-arm-none-eabi/arm-none-eabi/include/sys/lock.h"
 356              		.file 9 "Inc/core_cm3.h"
 357              		.file 10 "APP/inc/Public.h"
 358              		.file 11 "RML1028B/RML1028B.h"
 359              		.file 12 "HARDWARE/inc/Temputer.h"
 360              		.file 13 "HARDWARE/inc/Timer.h"
 361              		.file 14 "HARDWARE/inc/Control.h"
 362              		.file 15 "TOOL/inc/malloc.h"
 363              		.file 16 "TOOL/inc/TaskManger.h"
 364              		.file 17 "DISPALY/inc/DispManger.h"
 365              		.file 18 "TOOL/inc/CrcUtil.h"
 366              		.file 19 "APP/inc/VolPro.h"
 367              		.file 20 "APP/inc/FreqPro.h"
 368              		.file 21 "APP/inc/ParasCheckPro.h"
 369              		.file 22 "APP/inc/TemputerPro.h"
 370              		.file 23 "HARDWARE/inc/Adc.h"
 371              		.file 24 "HARDWARE/inc/Mcu.h"
ARM GAS  /var/folders/ww/n4ctlbrs3x70633t9y2ks63c0000gn/T//cczEN8gq.s 			page 9

