ARM GAS  /var/folders/ww/n4ctlbrs3x70633t9y2ks63c0000gn/T//ccTX1xk7.s 			page 1


   1              		.cpu cortex-m3
   2              		.eabi_attribute 20, 1
   3              		.eabi_attribute 21, 1
   4              		.eabi_attribute 23, 3
   5              		.eabi_attribute 24, 1
   6              		.eabi_attribute 25, 1
   7              		.eabi_attribute 26, 1
   8              		.eabi_attribute 30, 1
   9              		.eabi_attribute 34, 1
  10              		.eabi_attribute 18, 4
  11              		.file	"cJSON.c"
  12              		.text
  13              	.Ltext0:
  14              		.cfi_sections	.debug_frame
  15              		.section	.text.case_insensitive_strcmp,"ax",%progbits
  16              		.align	1
  17              		.arch armv7-m
  18              		.syntax unified
  19              		.thumb
  20              		.thumb_func
  21              		.fpu softvfp
  23              	case_insensitive_strcmp:
  24              	.LVL0:
  25              	.LFB70:
  26              		.file 1 "TOOL/cJSON.c"
   1:TOOL/cJSON.c  **** /*
   2:TOOL/cJSON.c  ****   Copyright (c) 2009-2017 Dave Gamble and cJSON contributors
   3:TOOL/cJSON.c  **** 
   4:TOOL/cJSON.c  ****   Permission is hereby granted, free of charge, to any person obtaining a copy
   5:TOOL/cJSON.c  ****   of this software and associated documentation files (the "Software"), to deal
   6:TOOL/cJSON.c  ****   in the Software without restriction, including without limitation the rights
   7:TOOL/cJSON.c  ****   to use, copy, modify, merge, publish, distribute, sublicense, and/or sell
   8:TOOL/cJSON.c  ****   copies of the Software, and to permit persons to whom the Software is
   9:TOOL/cJSON.c  ****   furnished to do so, subject to the following conditions:
  10:TOOL/cJSON.c  **** 
  11:TOOL/cJSON.c  ****   The above copyright notice and this permission notice shall be included in
  12:TOOL/cJSON.c  ****   all copies or substantial portions of the Software.
  13:TOOL/cJSON.c  **** 
  14:TOOL/cJSON.c  ****   THE SOFTWARE IS PROVIDED "AS IS", WITHOUT WARRANTY OF ANY KIND, EXPRESS OR
  15:TOOL/cJSON.c  ****   IMPLIED, INCLUDING BUT NOT LIMITED TO THE WARRANTIES OF MERCHANTABILITY,
  16:TOOL/cJSON.c  ****   FITNESS FOR A PARTICULAR PURPOSE AND NONINFRINGEMENT. IN NO EVENT SHALL THE
  17:TOOL/cJSON.c  ****   AUTHORS OR COPYRIGHT HOLDERS BE LIABLE FOR ANY CLAIM, DAMAGES OR OTHER
  18:TOOL/cJSON.c  ****   LIABILITY, WHETHER IN AN ACTION OF CONTRACT, TORT OR OTHERWISE, ARISING FROM,
  19:TOOL/cJSON.c  ****   OUT OF OR IN CONNECTION WITH THE SOFTWARE OR THE USE OR OTHER DEALINGS IN
  20:TOOL/cJSON.c  ****   THE SOFTWARE.
  21:TOOL/cJSON.c  **** */
  22:TOOL/cJSON.c  **** 
  23:TOOL/cJSON.c  **** /* cJSON */
  24:TOOL/cJSON.c  **** /* JSON parser in C. */
  25:TOOL/cJSON.c  **** 
  26:TOOL/cJSON.c  **** /* disable warnings about old C89 functions in MSVC */
  27:TOOL/cJSON.c  **** #if !defined(_CRT_SECURE_NO_DEPRECATE) && defined(_MSC_VER)
  28:TOOL/cJSON.c  **** #define _CRT_SECURE_NO_DEPRECATE
  29:TOOL/cJSON.c  **** #endif
  30:TOOL/cJSON.c  **** 
  31:TOOL/cJSON.c  **** #ifdef __GNUC__
  32:TOOL/cJSON.c  **** #pragma GCC visibility push(default)
ARM GAS  /var/folders/ww/n4ctlbrs3x70633t9y2ks63c0000gn/T//ccTX1xk7.s 			page 2


  33:TOOL/cJSON.c  **** #endif
  34:TOOL/cJSON.c  **** #if defined(_MSC_VER)
  35:TOOL/cJSON.c  **** #pragma warning (push)
  36:TOOL/cJSON.c  **** /* disable warning about single line comments in system headers */
  37:TOOL/cJSON.c  **** #pragma warning (disable : 4001)
  38:TOOL/cJSON.c  **** #endif
  39:TOOL/cJSON.c  **** 
  40:TOOL/cJSON.c  **** #include <string.h>
  41:TOOL/cJSON.c  **** #include <stdio.h>
  42:TOOL/cJSON.c  **** #include <math.h>
  43:TOOL/cJSON.c  **** #include <stdlib.h>
  44:TOOL/cJSON.c  **** #include <float.h>
  45:TOOL/cJSON.c  **** #include <limits.h>
  46:TOOL/cJSON.c  **** #include <ctype.h>
  47:TOOL/cJSON.c  **** #include "malloc.h"	  
  48:TOOL/cJSON.c  **** #ifdef ENABLE_LOCALES
  49:TOOL/cJSON.c  **** #include <locale.h>
  50:TOOL/cJSON.c  **** #endif
  51:TOOL/cJSON.c  **** 
  52:TOOL/cJSON.c  **** #if defined(_MSC_VER)
  53:TOOL/cJSON.c  **** #pragma warning (pop)
  54:TOOL/cJSON.c  **** #endif
  55:TOOL/cJSON.c  **** #ifdef __GNUC__
  56:TOOL/cJSON.c  **** #pragma GCC visibility pop
  57:TOOL/cJSON.c  **** #endif
  58:TOOL/cJSON.c  **** 
  59:TOOL/cJSON.c  **** #include "cJSON.h"
  60:TOOL/cJSON.c  **** 
  61:TOOL/cJSON.c  **** 
  62:TOOL/cJSON.c  **** /* define our own boolean type */
  63:TOOL/cJSON.c  **** #define true ((cJSON_bool)1)
  64:TOOL/cJSON.c  **** #define false ((cJSON_bool)0)
  65:TOOL/cJSON.c  **** 
  66:TOOL/cJSON.c  **** typedef struct {
  67:TOOL/cJSON.c  ****     const unsigned char *json;
  68:TOOL/cJSON.c  ****     size_t position;
  69:TOOL/cJSON.c  **** } error;
  70:TOOL/cJSON.c  **** static error global_error = { NULL, 0 };
  71:TOOL/cJSON.c  **** 
  72:TOOL/cJSON.c  **** CJSON_PUBLIC(const char *) cJSON_GetErrorPtr(void)
  73:TOOL/cJSON.c  **** {
  74:TOOL/cJSON.c  ****     return (const char*) (global_error.json + global_error.position);
  75:TOOL/cJSON.c  **** }
  76:TOOL/cJSON.c  **** 
  77:TOOL/cJSON.c  **** /* This is a safeguard to prevent copy-pasters from using incompatible C and header files */
  78:TOOL/cJSON.c  **** #if (CJSON_VERSION_MAJOR != 1) || (CJSON_VERSION_MINOR != 6) || (CJSON_VERSION_PATCH != 0)
  79:TOOL/cJSON.c  ****     #error cJSON.h and cJSON.c have different versions. Make sure that both have the same.
  80:TOOL/cJSON.c  **** #endif
  81:TOOL/cJSON.c  **** 
  82:TOOL/cJSON.c  **** CJSON_PUBLIC(const char*) cJSON_Version(void)
  83:TOOL/cJSON.c  **** {
  84:TOOL/cJSON.c  ****     static char version[15];
  85:TOOL/cJSON.c  ****     sprintf(version, "%i.%i.%i", CJSON_VERSION_MAJOR, CJSON_VERSION_MINOR, CJSON_VERSION_PATCH);
  86:TOOL/cJSON.c  **** 
  87:TOOL/cJSON.c  ****     return version;
  88:TOOL/cJSON.c  **** }
  89:TOOL/cJSON.c  **** 
ARM GAS  /var/folders/ww/n4ctlbrs3x70633t9y2ks63c0000gn/T//ccTX1xk7.s 			page 3


  90:TOOL/cJSON.c  **** /* Case insensitive string comparison, doesn't consider two NULL pointers equal though */
  91:TOOL/cJSON.c  **** static int case_insensitive_strcmp(const unsigned char *string1, const unsigned char *string2)
  92:TOOL/cJSON.c  **** {
  27              		.loc 1 92 1 view -0
  28              		.cfi_startproc
  29              		@ args = 0, pretend = 0, frame = 0
  30              		@ frame_needed = 0, uses_anonymous_args = 0
  31              		@ link register save eliminated.
  93:TOOL/cJSON.c  ****     if ((string1 == NULL) || (string2 == NULL))
  32              		.loc 1 93 5 view .LVU1
  33              		.loc 1 93 8 is_stmt 0 view .LVU2
  34 0000 10B3     		cbz	r0, .L9
  92:TOOL/cJSON.c  ****     if ((string1 == NULL) || (string2 == NULL))
  35              		.loc 1 92 1 discriminator 1 view .LVU3
  36 0002 30B4     		push	{r4, r5}
  37              	.LCFI0:
  38              		.cfi_def_cfa_offset 8
  39              		.cfi_offset 4, -8
  40              		.cfi_offset 5, -4
  41 0004 0446     		mov	r4, r0
  42              		.loc 1 93 27 discriminator 1 view .LVU4
  43 0006 09B3     		cbz	r1, .L10
  94:TOOL/cJSON.c  ****     {
  95:TOOL/cJSON.c  ****         return 1;
  96:TOOL/cJSON.c  ****     }
  97:TOOL/cJSON.c  **** 
  98:TOOL/cJSON.c  ****     if (string1 == string2)
  44              		.loc 1 98 5 is_stmt 1 view .LVU5
  45              		.loc 1 98 8 is_stmt 0 view .LVU6
  46 0008 8842     		cmp	r0, r1
  47 000a 09D1     		bne	.L3
  99:TOOL/cJSON.c  ****     {
 100:TOOL/cJSON.c  ****         return 0;
  48              		.loc 1 100 16 view .LVU7
  49 000c 0020     		movs	r0, #0
  50              	.LVL1:
  51              		.loc 1 100 16 view .LVU8
  52 000e 19E0     		b	.L1
  53              	.LVL2:
  54              	.L18:
  55              	.LBB2:
 101:TOOL/cJSON.c  ****     }
 102:TOOL/cJSON.c  **** 
 103:TOOL/cJSON.c  ****     for(; tolower(*string1) == tolower(*string2); (void)string1++, string2++)
  56              		.loc 1 103 11 discriminator 2 view .LVU9
  57 0010 02F12005 		add	r5, r2, #32
  58 0014 0CE0     		b	.L5
  59              	.LVL3:
  60              	.L7:
  61              		.loc 1 103 11 discriminator 2 view .LVU10
  62              	.LBE2:
  63              		.loc 1 103 5 discriminator 9 view .LVU11
  64 0016 8542     		cmp	r5, r0
  65 0018 13D1     		bne	.L17
 104:TOOL/cJSON.c  ****     {
 105:TOOL/cJSON.c  ****         if (*string1 == '\0')
  66              		.loc 1 105 9 is_stmt 1 view .LVU12
ARM GAS  /var/folders/ww/n4ctlbrs3x70633t9y2ks63c0000gn/T//ccTX1xk7.s 			page 4


  67              		.loc 1 105 12 is_stmt 0 view .LVU13
  68 001a CAB1     		cbz	r2, .L12
 103:TOOL/cJSON.c  ****     {
  69              		.loc 1 103 51 view .LVU14
  70 001c 0134     		adds	r4, r4, #1
  71              	.LVL4:
 103:TOOL/cJSON.c  ****     {
  72              		.loc 1 103 75 view .LVU15
  73 001e 0131     		adds	r1, r1, #1
  74              	.LVL5:
  75              	.L3:
  76              	.LBB3:
 103:TOOL/cJSON.c  ****     {
  77              		.loc 1 103 11 is_stmt 1 discriminator 1 view .LVU16
  78 0020 2278     		ldrb	r2, [r4]	@ zero_extendqisi2
  79              	.LVL6:
 103:TOOL/cJSON.c  ****     {
  80              		.loc 1 103 11 discriminator 1 view .LVU17
  81 0022 0C4B     		ldr	r3, .L19
  82 0024 D35C     		ldrb	r3, [r2, r3]	@ zero_extendqisi2
  83 0026 03F00303 		and	r3, r3, #3
  84 002a 012B     		cmp	r3, #1
  85 002c F0D0     		beq	.L18
 103:TOOL/cJSON.c  ****     {
  86              		.loc 1 103 11 is_stmt 0 discriminator 3 view .LVU18
  87 002e 1546     		mov	r5, r2
  88              	.L5:
 103:TOOL/cJSON.c  ****     {
  89              		.loc 1 103 11 discriminator 3 view .LVU19
  90              	.LBE3:
  91              	.LBB4:
 103:TOOL/cJSON.c  ****     {
  92              		.loc 1 103 32 is_stmt 1 discriminator 5 view .LVU20
  93 0030 0878     		ldrb	r0, [r1]	@ zero_extendqisi2
  94              	.LVL7:
 103:TOOL/cJSON.c  ****     {
  95              		.loc 1 103 32 discriminator 5 view .LVU21
  96 0032 084B     		ldr	r3, .L19
  97 0034 C35C     		ldrb	r3, [r0, r3]	@ zero_extendqisi2
  98 0036 03F00303 		and	r3, r3, #3
  99 003a 012B     		cmp	r3, #1
 100 003c EBD1     		bne	.L7
 103:TOOL/cJSON.c  ****     {
 101              		.loc 1 103 32 is_stmt 0 discriminator 6 view .LVU22
 102 003e 2030     		adds	r0, r0, #32
 103              	.LVL8:
 103:TOOL/cJSON.c  ****     {
 104              		.loc 1 103 32 discriminator 6 view .LVU23
 105 0040 E9E7     		b	.L7
 106              	.LVL9:
 107              	.L17:
 103:TOOL/cJSON.c  ****     {
 108              		.loc 1 103 32 discriminator 6 view .LVU24
 109              	.LBE4:
 106:TOOL/cJSON.c  ****         {
 107:TOOL/cJSON.c  ****             return 0;
 108:TOOL/cJSON.c  ****         }
ARM GAS  /var/folders/ww/n4ctlbrs3x70633t9y2ks63c0000gn/T//ccTX1xk7.s 			page 5


 109:TOOL/cJSON.c  ****     }
 110:TOOL/cJSON.c  **** 
 111:TOOL/cJSON.c  ****     return tolower(*string1) - tolower(*string2);
 110              		.loc 1 111 5 is_stmt 1 discriminator 8 view .LVU25
 111              		.loc 1 111 12 discriminator 8 view .LVU26
 112              		.loc 1 111 12 discriminator 8 view .LVU27
 113              		.loc 1 111 32 discriminator 8 view .LVU28
 114              		.loc 1 111 32 discriminator 8 view .LVU29
 115              		.loc 1 111 30 is_stmt 0 discriminator 8 view .LVU30
 116 0042 281A     		subs	r0, r5, r0
 117              	.LVL10:
 118              	.L1:
 112:TOOL/cJSON.c  **** }
 119              		.loc 1 112 1 view .LVU31
 120 0044 30BC     		pop	{r4, r5}
 121              	.LCFI1:
 122              		.cfi_restore 5
 123              		.cfi_restore 4
 124              		.cfi_def_cfa_offset 0
 125              	.LVL11:
 126              		.loc 1 112 1 view .LVU32
 127 0046 7047     		bx	lr
 128              	.LVL12:
 129              	.L9:
  95:TOOL/cJSON.c  ****     }
 130              		.loc 1 95 16 view .LVU33
 131 0048 0120     		movs	r0, #1
 132              	.LVL13:
 133              		.loc 1 112 1 view .LVU34
 134 004a 7047     		bx	lr
 135              	.LVL14:
 136              	.L10:
 137              	.LCFI2:
 138              		.cfi_def_cfa_offset 8
 139              		.cfi_offset 4, -8
 140              		.cfi_offset 5, -4
  95:TOOL/cJSON.c  ****     }
 141              		.loc 1 95 16 view .LVU35
 142 004c 0120     		movs	r0, #1
 143              	.LVL15:
  95:TOOL/cJSON.c  ****     }
 144              		.loc 1 95 16 view .LVU36
 145 004e F9E7     		b	.L1
 146              	.LVL16:
 147              	.L12:
 107:TOOL/cJSON.c  ****         }
 148              		.loc 1 107 20 view .LVU37
 149 0050 0020     		movs	r0, #0
 150 0052 F7E7     		b	.L1
 151              	.L20:
 152              		.align	2
 153              	.L19:
 154 0054 01000000 		.word	_ctype_+1
 155              		.cfi_endproc
 156              	.LFE70:
 158              		.section	.text.get_decimal_point,"ax",%progbits
 159              		.align	1
ARM GAS  /var/folders/ww/n4ctlbrs3x70633t9y2ks63c0000gn/T//ccTX1xk7.s 			page 6


 160              		.syntax unified
 161              		.thumb
 162              		.thumb_func
 163              		.fpu softvfp
 165              	get_decimal_point:
 166              	.LFB78:
 113:TOOL/cJSON.c  **** 
 114:TOOL/cJSON.c  **** typedef struct internal_hooks
 115:TOOL/cJSON.c  **** {
 116:TOOL/cJSON.c  ****     void *(*allocate)(size_t size);
 117:TOOL/cJSON.c  ****     void (*deallocate)(void *pointer);
 118:TOOL/cJSON.c  ****     void *(*reallocate)(void *pointer, size_t size);
 119:TOOL/cJSON.c  **** } internal_hooks;
 120:TOOL/cJSON.c  **** 
 121:TOOL/cJSON.c  **** //#if defined(_MSC_VER)
 122:TOOL/cJSON.c  **** /* work around MSVC error C2322: '...' address of dillimport '...' is not static */
 123:TOOL/cJSON.c  **** static void *internal_malloc(size_t size)
 124:TOOL/cJSON.c  **** {
 125:TOOL/cJSON.c  ****     return mymalloc(size);
 126:TOOL/cJSON.c  **** }
 127:TOOL/cJSON.c  **** static void internal_free(void *pointer)
 128:TOOL/cJSON.c  **** {
 129:TOOL/cJSON.c  ****     myfree(pointer);
 130:TOOL/cJSON.c  **** }
 131:TOOL/cJSON.c  **** static void *internal_realloc(void *pointer, size_t size)
 132:TOOL/cJSON.c  **** {
 133:TOOL/cJSON.c  ****     return myrealloc(pointer, size);
 134:TOOL/cJSON.c  **** }
 135:TOOL/cJSON.c  **** //#else
 136:TOOL/cJSON.c  **** //#define internal_malloc malloc
 137:TOOL/cJSON.c  **** //#define internal_free free
 138:TOOL/cJSON.c  **** //#define internal_realloc realloc
 139:TOOL/cJSON.c  **** //#endif
 140:TOOL/cJSON.c  **** 
 141:TOOL/cJSON.c  **** static internal_hooks global_hooks = { internal_malloc, internal_free, internal_realloc };
 142:TOOL/cJSON.c  **** 
 143:TOOL/cJSON.c  **** static unsigned char* cJSON_strdup(const unsigned char* string, const internal_hooks * const hooks)
 144:TOOL/cJSON.c  **** {
 145:TOOL/cJSON.c  ****     size_t length = 0;
 146:TOOL/cJSON.c  ****     unsigned char *copy = NULL;
 147:TOOL/cJSON.c  **** 
 148:TOOL/cJSON.c  ****     if (string == NULL)
 149:TOOL/cJSON.c  ****     {
 150:TOOL/cJSON.c  ****         return NULL;
 151:TOOL/cJSON.c  ****     }
 152:TOOL/cJSON.c  **** 
 153:TOOL/cJSON.c  ****     length = strlen((const char*)string) + sizeof("");
 154:TOOL/cJSON.c  ****     copy = (unsigned char*)hooks->allocate(length);
 155:TOOL/cJSON.c  ****     if (copy == NULL)
 156:TOOL/cJSON.c  ****     {
 157:TOOL/cJSON.c  ****         return NULL;
 158:TOOL/cJSON.c  ****     }
 159:TOOL/cJSON.c  ****     memcpy(copy, string, length);
 160:TOOL/cJSON.c  **** 
 161:TOOL/cJSON.c  ****     return copy;
 162:TOOL/cJSON.c  **** }
 163:TOOL/cJSON.c  **** 
ARM GAS  /var/folders/ww/n4ctlbrs3x70633t9y2ks63c0000gn/T//ccTX1xk7.s 			page 7


 164:TOOL/cJSON.c  **** CJSON_PUBLIC(void) cJSON_InitHooks(cJSON_Hooks* hooks)
 165:TOOL/cJSON.c  **** {
 166:TOOL/cJSON.c  ****     if (hooks == NULL)
 167:TOOL/cJSON.c  ****     {
 168:TOOL/cJSON.c  ****         /* Reset hooks */
 169:TOOL/cJSON.c  ****         global_hooks.allocate = malloc;
 170:TOOL/cJSON.c  ****         global_hooks.deallocate = free;
 171:TOOL/cJSON.c  ****         global_hooks.reallocate = realloc;
 172:TOOL/cJSON.c  ****         return;
 173:TOOL/cJSON.c  ****     }
 174:TOOL/cJSON.c  **** 
 175:TOOL/cJSON.c  ****     global_hooks.allocate = malloc;
 176:TOOL/cJSON.c  ****     if (hooks->malloc_fn != NULL)
 177:TOOL/cJSON.c  ****     {
 178:TOOL/cJSON.c  ****         global_hooks.allocate = hooks->malloc_fn;
 179:TOOL/cJSON.c  ****     }
 180:TOOL/cJSON.c  **** 
 181:TOOL/cJSON.c  ****     global_hooks.deallocate = free;
 182:TOOL/cJSON.c  ****     if (hooks->free_fn != NULL)
 183:TOOL/cJSON.c  ****     {
 184:TOOL/cJSON.c  ****         global_hooks.deallocate = hooks->free_fn;
 185:TOOL/cJSON.c  ****     }
 186:TOOL/cJSON.c  **** 
 187:TOOL/cJSON.c  ****     /* use realloc only if both free and malloc are used */
 188:TOOL/cJSON.c  ****     global_hooks.reallocate = NULL;
 189:TOOL/cJSON.c  ****     if ((global_hooks.allocate == malloc) && (global_hooks.deallocate == free))
 190:TOOL/cJSON.c  ****     {
 191:TOOL/cJSON.c  ****         global_hooks.reallocate = realloc;
 192:TOOL/cJSON.c  ****     }
 193:TOOL/cJSON.c  **** }
 194:TOOL/cJSON.c  **** 
 195:TOOL/cJSON.c  **** /* Internal constructor. */
 196:TOOL/cJSON.c  **** static cJSON *cJSON_New_Item(const internal_hooks * const hooks)
 197:TOOL/cJSON.c  **** {
 198:TOOL/cJSON.c  ****     cJSON* node = (cJSON*)hooks->allocate(sizeof(cJSON));
 199:TOOL/cJSON.c  ****     if (node)
 200:TOOL/cJSON.c  ****     {
 201:TOOL/cJSON.c  ****         memset(node, '\0', sizeof(cJSON));
 202:TOOL/cJSON.c  ****     }
 203:TOOL/cJSON.c  **** 
 204:TOOL/cJSON.c  ****     return node;
 205:TOOL/cJSON.c  **** }
 206:TOOL/cJSON.c  **** 
 207:TOOL/cJSON.c  **** /* Delete a cJSON structure. */
 208:TOOL/cJSON.c  **** CJSON_PUBLIC(void) cJSON_Delete(cJSON *item)
 209:TOOL/cJSON.c  **** {
 210:TOOL/cJSON.c  ****     cJSON *next = NULL;
 211:TOOL/cJSON.c  ****     while (item != NULL)
 212:TOOL/cJSON.c  ****     {
 213:TOOL/cJSON.c  ****         next = item->next;
 214:TOOL/cJSON.c  ****         if (!(item->type & cJSON_IsReference) && (item->child != NULL))
 215:TOOL/cJSON.c  ****         {
 216:TOOL/cJSON.c  ****             cJSON_Delete(item->child);
 217:TOOL/cJSON.c  ****         }
 218:TOOL/cJSON.c  ****         if (!(item->type & cJSON_IsReference) && (item->valuestring != NULL))
 219:TOOL/cJSON.c  ****         {
 220:TOOL/cJSON.c  ****             global_hooks.deallocate(item->valuestring);
ARM GAS  /var/folders/ww/n4ctlbrs3x70633t9y2ks63c0000gn/T//ccTX1xk7.s 			page 8


 221:TOOL/cJSON.c  ****         }
 222:TOOL/cJSON.c  ****         if (!(item->type & cJSON_StringIsConst) && (item->string != NULL))
 223:TOOL/cJSON.c  ****         {
 224:TOOL/cJSON.c  ****             global_hooks.deallocate(item->string);
 225:TOOL/cJSON.c  ****         }
 226:TOOL/cJSON.c  ****         global_hooks.deallocate(item);
 227:TOOL/cJSON.c  ****         item = next;
 228:TOOL/cJSON.c  ****     }
 229:TOOL/cJSON.c  **** }
 230:TOOL/cJSON.c  **** 
 231:TOOL/cJSON.c  **** /* get the decimal point character of the current locale */
 232:TOOL/cJSON.c  **** static unsigned char get_decimal_point(void)
 233:TOOL/cJSON.c  **** {
 167              		.loc 1 233 1 is_stmt 1 view -0
 168              		.cfi_startproc
 169              		@ args = 0, pretend = 0, frame = 0
 170              		@ frame_needed = 0, uses_anonymous_args = 0
 171              		@ link register save eliminated.
 234:TOOL/cJSON.c  **** #ifdef ENABLE_LOCALES
 235:TOOL/cJSON.c  ****     struct lconv *lconv = localeconv();
 236:TOOL/cJSON.c  ****     return (unsigned char) lconv->decimal_point[0];
 237:TOOL/cJSON.c  **** #else
 238:TOOL/cJSON.c  ****     return '.';
 172              		.loc 1 238 5 view .LVU39
 239:TOOL/cJSON.c  **** #endif
 240:TOOL/cJSON.c  **** }
 173              		.loc 1 240 1 is_stmt 0 view .LVU40
 174 0000 2E20     		movs	r0, #46
 175 0002 7047     		bx	lr
 176              		.cfi_endproc
 177              	.LFE78:
 179              		.section	.text.parse_hex4,"ax",%progbits
 180              		.align	1
 181              		.syntax unified
 182              		.thumb
 183              		.thumb_func
 184              		.fpu softvfp
 186              	parse_hex4:
 187              	.LVL17:
 188              	.LFB84:
 241:TOOL/cJSON.c  **** 
 242:TOOL/cJSON.c  **** typedef struct
 243:TOOL/cJSON.c  **** {
 244:TOOL/cJSON.c  ****     const unsigned char *content;
 245:TOOL/cJSON.c  ****     size_t length;
 246:TOOL/cJSON.c  ****     size_t offset;
 247:TOOL/cJSON.c  ****     size_t depth; /* How deeply nested (in arrays/objects) is the input at the current offset. */
 248:TOOL/cJSON.c  ****     internal_hooks hooks;
 249:TOOL/cJSON.c  **** } parse_buffer;
 250:TOOL/cJSON.c  **** 
 251:TOOL/cJSON.c  **** /* check if the given size is left to read in a given parse buffer (starting with 1) */
 252:TOOL/cJSON.c  **** #define can_read(buffer, size) ((buffer != NULL) && (((buffer)->offset + size) <= (buffer)->length)
 253:TOOL/cJSON.c  **** /* check if the buffer can be accessed at the given index (starting with 0) */
 254:TOOL/cJSON.c  **** #define can_access_at_index(buffer, index) ((buffer != NULL) && (((buffer)->offset + index) < (buff
 255:TOOL/cJSON.c  **** #define cannot_access_at_index(buffer, index) (!can_access_at_index(buffer, index))
 256:TOOL/cJSON.c  **** /* get a pointer to the buffer at the position */
 257:TOOL/cJSON.c  **** #define buffer_at_offset(buffer) ((buffer)->content + (buffer)->offset)
ARM GAS  /var/folders/ww/n4ctlbrs3x70633t9y2ks63c0000gn/T//ccTX1xk7.s 			page 9


 258:TOOL/cJSON.c  **** 
 259:TOOL/cJSON.c  **** /* Parse the input text to generate a number, and populate the result into item. */
 260:TOOL/cJSON.c  **** static cJSON_bool parse_number(cJSON * const item, parse_buffer * const input_buffer)
 261:TOOL/cJSON.c  **** {
 262:TOOL/cJSON.c  ****     double number = 0;
 263:TOOL/cJSON.c  ****     unsigned char *after_end = NULL;
 264:TOOL/cJSON.c  ****     unsigned char number_c_string[64];
 265:TOOL/cJSON.c  ****     unsigned char decimal_point = get_decimal_point();
 266:TOOL/cJSON.c  ****     size_t i = 0;
 267:TOOL/cJSON.c  **** 
 268:TOOL/cJSON.c  ****     if ((input_buffer == NULL) || (input_buffer->content == NULL))
 269:TOOL/cJSON.c  ****     {
 270:TOOL/cJSON.c  ****         return false;
 271:TOOL/cJSON.c  ****     }
 272:TOOL/cJSON.c  **** 
 273:TOOL/cJSON.c  ****     /* copy the number into a temporary buffer and replace '.' with the decimal point
 274:TOOL/cJSON.c  ****      * of the current locale (for strtod)
 275:TOOL/cJSON.c  ****      * This also takes care of '\0' not necessarily being available for marking the end of the inpu
 276:TOOL/cJSON.c  ****     for (i = 0; (i < (sizeof(number_c_string) - 1)) && can_access_at_index(input_buffer, i); i++)
 277:TOOL/cJSON.c  ****     {
 278:TOOL/cJSON.c  ****         switch (buffer_at_offset(input_buffer)[i])
 279:TOOL/cJSON.c  ****         {
 280:TOOL/cJSON.c  ****             case '0':
 281:TOOL/cJSON.c  ****             case '1':
 282:TOOL/cJSON.c  ****             case '2':
 283:TOOL/cJSON.c  ****             case '3':
 284:TOOL/cJSON.c  ****             case '4':
 285:TOOL/cJSON.c  ****             case '5':
 286:TOOL/cJSON.c  ****             case '6':
 287:TOOL/cJSON.c  ****             case '7':
 288:TOOL/cJSON.c  ****             case '8':
 289:TOOL/cJSON.c  ****             case '9':
 290:TOOL/cJSON.c  ****             case '+':
 291:TOOL/cJSON.c  ****             case '-':
 292:TOOL/cJSON.c  ****             case 'e':
 293:TOOL/cJSON.c  ****             case 'E':
 294:TOOL/cJSON.c  ****                 number_c_string[i] = buffer_at_offset(input_buffer)[i];
 295:TOOL/cJSON.c  ****                 break;
 296:TOOL/cJSON.c  **** 
 297:TOOL/cJSON.c  ****             case '.':
 298:TOOL/cJSON.c  ****                 number_c_string[i] = decimal_point;
 299:TOOL/cJSON.c  ****                 break;
 300:TOOL/cJSON.c  **** 
 301:TOOL/cJSON.c  ****             default:
 302:TOOL/cJSON.c  ****                 goto loop_end;
 303:TOOL/cJSON.c  ****         }
 304:TOOL/cJSON.c  ****     }
 305:TOOL/cJSON.c  **** loop_end:
 306:TOOL/cJSON.c  ****     number_c_string[i] = '\0';
 307:TOOL/cJSON.c  **** 
 308:TOOL/cJSON.c  ****     number = strtod((const char*)number_c_string, (char**)&after_end);
 309:TOOL/cJSON.c  ****     if (number_c_string == after_end)
 310:TOOL/cJSON.c  ****     {
 311:TOOL/cJSON.c  ****         return false; /* parse_error */
 312:TOOL/cJSON.c  ****     }
 313:TOOL/cJSON.c  **** 
 314:TOOL/cJSON.c  ****     item->valuedouble = number;
ARM GAS  /var/folders/ww/n4ctlbrs3x70633t9y2ks63c0000gn/T//ccTX1xk7.s 			page 10


 315:TOOL/cJSON.c  **** 
 316:TOOL/cJSON.c  ****     /* use saturation in case of overflow */
 317:TOOL/cJSON.c  ****     if (number >= INT_MAX)
 318:TOOL/cJSON.c  ****     {
 319:TOOL/cJSON.c  ****         item->valueint = INT_MAX;
 320:TOOL/cJSON.c  ****     }
 321:TOOL/cJSON.c  ****     else if (number <= INT_MIN)
 322:TOOL/cJSON.c  ****     {
 323:TOOL/cJSON.c  ****         item->valueint = INT_MIN;
 324:TOOL/cJSON.c  ****     }
 325:TOOL/cJSON.c  ****     else
 326:TOOL/cJSON.c  ****     {
 327:TOOL/cJSON.c  ****         item->valueint = (int)number;
 328:TOOL/cJSON.c  ****     }
 329:TOOL/cJSON.c  **** 
 330:TOOL/cJSON.c  ****     item->type = cJSON_Number;
 331:TOOL/cJSON.c  **** 
 332:TOOL/cJSON.c  ****     input_buffer->offset += (size_t)(after_end - number_c_string);
 333:TOOL/cJSON.c  ****     return true;
 334:TOOL/cJSON.c  **** }
 335:TOOL/cJSON.c  **** 
 336:TOOL/cJSON.c  **** /* don't ask me, but the original cJSON_SetNumberValue returns an integer or double */
 337:TOOL/cJSON.c  **** CJSON_PUBLIC(double) cJSON_SetNumberHelper(cJSON *object, double number)
 338:TOOL/cJSON.c  **** {
 339:TOOL/cJSON.c  ****     if (number >= INT_MAX)
 340:TOOL/cJSON.c  ****     {
 341:TOOL/cJSON.c  ****         object->valueint = INT_MAX;
 342:TOOL/cJSON.c  ****     }
 343:TOOL/cJSON.c  ****     else if (number <= INT_MIN)
 344:TOOL/cJSON.c  ****     {
 345:TOOL/cJSON.c  ****         object->valueint = INT_MIN;
 346:TOOL/cJSON.c  ****     }
 347:TOOL/cJSON.c  ****     else
 348:TOOL/cJSON.c  ****     {
 349:TOOL/cJSON.c  ****         object->valueint = (int)number;
 350:TOOL/cJSON.c  ****     }
 351:TOOL/cJSON.c  **** 
 352:TOOL/cJSON.c  ****     return object->valuedouble = number;
 353:TOOL/cJSON.c  **** }
 354:TOOL/cJSON.c  **** 
 355:TOOL/cJSON.c  **** typedef struct
 356:TOOL/cJSON.c  **** {
 357:TOOL/cJSON.c  ****     unsigned char *buffer;
 358:TOOL/cJSON.c  ****     size_t length;
 359:TOOL/cJSON.c  ****     size_t offset;
 360:TOOL/cJSON.c  ****     size_t depth; /* current nesting depth (for formatted printing) */
 361:TOOL/cJSON.c  ****     cJSON_bool noalloc;
 362:TOOL/cJSON.c  ****     cJSON_bool format; /* is this print a formatted print */
 363:TOOL/cJSON.c  ****     internal_hooks hooks;
 364:TOOL/cJSON.c  **** } printbuffer;
 365:TOOL/cJSON.c  **** 
 366:TOOL/cJSON.c  **** /* realloc printbuffer if necessary to have at least "needed" bytes more */
 367:TOOL/cJSON.c  **** static unsigned char* ensure(printbuffer * const p, size_t needed)
 368:TOOL/cJSON.c  **** {
 369:TOOL/cJSON.c  ****     unsigned char *newbuffer = NULL;
 370:TOOL/cJSON.c  ****     size_t newsize = 0;
 371:TOOL/cJSON.c  **** 
ARM GAS  /var/folders/ww/n4ctlbrs3x70633t9y2ks63c0000gn/T//ccTX1xk7.s 			page 11


 372:TOOL/cJSON.c  ****     if ((p == NULL) || (p->buffer == NULL))
 373:TOOL/cJSON.c  ****     {
 374:TOOL/cJSON.c  ****         return NULL;
 375:TOOL/cJSON.c  ****     }
 376:TOOL/cJSON.c  **** 
 377:TOOL/cJSON.c  ****     if ((p->length > 0) && (p->offset >= p->length))
 378:TOOL/cJSON.c  ****     {
 379:TOOL/cJSON.c  ****         /* make sure that offset is valid */
 380:TOOL/cJSON.c  ****         return NULL;
 381:TOOL/cJSON.c  ****     }
 382:TOOL/cJSON.c  **** 
 383:TOOL/cJSON.c  ****     if (needed > INT_MAX)
 384:TOOL/cJSON.c  ****     {
 385:TOOL/cJSON.c  ****         /* sizes bigger than INT_MAX are currently not supported */
 386:TOOL/cJSON.c  ****         return NULL;
 387:TOOL/cJSON.c  ****     }
 388:TOOL/cJSON.c  **** 
 389:TOOL/cJSON.c  ****     needed += p->offset + 1;
 390:TOOL/cJSON.c  ****     if (needed <= p->length)
 391:TOOL/cJSON.c  ****     {
 392:TOOL/cJSON.c  ****         return p->buffer + p->offset;
 393:TOOL/cJSON.c  ****     }
 394:TOOL/cJSON.c  **** 
 395:TOOL/cJSON.c  ****     if (p->noalloc) {
 396:TOOL/cJSON.c  ****         return NULL;
 397:TOOL/cJSON.c  ****     }
 398:TOOL/cJSON.c  **** 
 399:TOOL/cJSON.c  ****     /* calculate new buffer size */
 400:TOOL/cJSON.c  ****     if (needed > (INT_MAX / 2))
 401:TOOL/cJSON.c  ****     {
 402:TOOL/cJSON.c  ****         /* overflow of int, use INT_MAX if possible */
 403:TOOL/cJSON.c  ****         if (needed <= INT_MAX)
 404:TOOL/cJSON.c  ****         {
 405:TOOL/cJSON.c  ****             newsize = INT_MAX;
 406:TOOL/cJSON.c  ****         }
 407:TOOL/cJSON.c  ****         else
 408:TOOL/cJSON.c  ****         {
 409:TOOL/cJSON.c  ****             return NULL;
 410:TOOL/cJSON.c  ****         }
 411:TOOL/cJSON.c  ****     }
 412:TOOL/cJSON.c  ****     else
 413:TOOL/cJSON.c  ****     {
 414:TOOL/cJSON.c  ****         newsize = needed * 2;
 415:TOOL/cJSON.c  ****     }
 416:TOOL/cJSON.c  **** 
 417:TOOL/cJSON.c  ****     if (p->hooks.reallocate != NULL)
 418:TOOL/cJSON.c  ****     {
 419:TOOL/cJSON.c  ****         /* reallocate with realloc if available */
 420:TOOL/cJSON.c  ****         newbuffer = (unsigned char*)p->hooks.reallocate(p->buffer, newsize);
 421:TOOL/cJSON.c  ****         if (newbuffer == NULL)
 422:TOOL/cJSON.c  ****         {
 423:TOOL/cJSON.c  ****             p->hooks.deallocate(p->buffer);
 424:TOOL/cJSON.c  ****             p->length = 0;
 425:TOOL/cJSON.c  ****             p->buffer = NULL;
 426:TOOL/cJSON.c  **** 
 427:TOOL/cJSON.c  ****             return NULL;
 428:TOOL/cJSON.c  ****         }
ARM GAS  /var/folders/ww/n4ctlbrs3x70633t9y2ks63c0000gn/T//ccTX1xk7.s 			page 12


 429:TOOL/cJSON.c  ****     }
 430:TOOL/cJSON.c  ****     else
 431:TOOL/cJSON.c  ****     {
 432:TOOL/cJSON.c  ****         /* otherwise reallocate manually */
 433:TOOL/cJSON.c  ****         newbuffer = (unsigned char*)p->hooks.allocate(newsize);
 434:TOOL/cJSON.c  ****         if (!newbuffer)
 435:TOOL/cJSON.c  ****         {
 436:TOOL/cJSON.c  ****             p->hooks.deallocate(p->buffer);
 437:TOOL/cJSON.c  ****             p->length = 0;
 438:TOOL/cJSON.c  ****             p->buffer = NULL;
 439:TOOL/cJSON.c  **** 
 440:TOOL/cJSON.c  ****             return NULL;
 441:TOOL/cJSON.c  ****         }
 442:TOOL/cJSON.c  ****         if (newbuffer)
 443:TOOL/cJSON.c  ****         {
 444:TOOL/cJSON.c  ****             memcpy(newbuffer, p->buffer, p->offset + 1);
 445:TOOL/cJSON.c  ****         }
 446:TOOL/cJSON.c  ****         p->hooks.deallocate(p->buffer);
 447:TOOL/cJSON.c  ****     }
 448:TOOL/cJSON.c  ****     p->length = newsize;
 449:TOOL/cJSON.c  ****     p->buffer = newbuffer;
 450:TOOL/cJSON.c  **** 
 451:TOOL/cJSON.c  ****     return newbuffer + p->offset;
 452:TOOL/cJSON.c  **** }
 453:TOOL/cJSON.c  **** 
 454:TOOL/cJSON.c  **** /* calculate the new length of the string in a printbuffer and update the offset */
 455:TOOL/cJSON.c  **** static void update_offset(printbuffer * const buffer)
 456:TOOL/cJSON.c  **** {
 457:TOOL/cJSON.c  ****     const unsigned char *buffer_pointer = NULL;
 458:TOOL/cJSON.c  ****     if ((buffer == NULL) || (buffer->buffer == NULL))
 459:TOOL/cJSON.c  ****     {
 460:TOOL/cJSON.c  ****         return;
 461:TOOL/cJSON.c  ****     }
 462:TOOL/cJSON.c  ****     buffer_pointer = buffer->buffer + buffer->offset;
 463:TOOL/cJSON.c  **** 
 464:TOOL/cJSON.c  ****     buffer->offset += strlen((const char*)buffer_pointer);
 465:TOOL/cJSON.c  **** }
 466:TOOL/cJSON.c  **** 
 467:TOOL/cJSON.c  **** /* Render the number nicely from the given item into a string. */
 468:TOOL/cJSON.c  **** static cJSON_bool print_number(const cJSON * const item, printbuffer * const output_buffer)
 469:TOOL/cJSON.c  **** {
 470:TOOL/cJSON.c  ****     unsigned char *output_pointer = NULL;
 471:TOOL/cJSON.c  ****     double d = item->valuedouble;
 472:TOOL/cJSON.c  ****     int length = 0;
 473:TOOL/cJSON.c  ****     size_t i = 0;
 474:TOOL/cJSON.c  ****     unsigned char number_buffer[26]; /* temporary buffer to print the number into */
 475:TOOL/cJSON.c  ****     unsigned char decimal_point = get_decimal_point();
 476:TOOL/cJSON.c  ****     double test;
 477:TOOL/cJSON.c  **** 
 478:TOOL/cJSON.c  ****     if (output_buffer == NULL)
 479:TOOL/cJSON.c  ****     {
 480:TOOL/cJSON.c  ****         return false;
 481:TOOL/cJSON.c  ****     }
 482:TOOL/cJSON.c  **** 
 483:TOOL/cJSON.c  ****     /* This checks for NaN and Infinity */
 484:TOOL/cJSON.c  ****     if ((d * 0) != 0)
 485:TOOL/cJSON.c  ****     {
ARM GAS  /var/folders/ww/n4ctlbrs3x70633t9y2ks63c0000gn/T//ccTX1xk7.s 			page 13


 486:TOOL/cJSON.c  ****         length = sprintf((char*)number_buffer, "null");
 487:TOOL/cJSON.c  ****     }
 488:TOOL/cJSON.c  ****     else
 489:TOOL/cJSON.c  ****     {
 490:TOOL/cJSON.c  ****         /* Try 15 decimal places of precision to avoid nonsignificant nonzero digits */
 491:TOOL/cJSON.c  ****         length = sprintf((char*)number_buffer, "%1.15g", d);
 492:TOOL/cJSON.c  **** 
 493:TOOL/cJSON.c  ****         /* Check whether the original double can be recovered */
 494:TOOL/cJSON.c  ****         if ((sscanf((char*)number_buffer, "%lg", &test) != 1) || ((double)test != d))
 495:TOOL/cJSON.c  ****         {
 496:TOOL/cJSON.c  ****             /* If not, print with 17 decimal places of precision */
 497:TOOL/cJSON.c  ****             length = sprintf((char*)number_buffer, "%1.17g", d);
 498:TOOL/cJSON.c  ****         }
 499:TOOL/cJSON.c  ****     }
 500:TOOL/cJSON.c  **** 
 501:TOOL/cJSON.c  ****     /* sprintf failed or buffer overrun occured */
 502:TOOL/cJSON.c  ****     if ((length < 0) || (length > (int)(sizeof(number_buffer) - 1)))
 503:TOOL/cJSON.c  ****     {
 504:TOOL/cJSON.c  ****         return false;
 505:TOOL/cJSON.c  ****     }
 506:TOOL/cJSON.c  **** 
 507:TOOL/cJSON.c  ****     /* reserve appropriate space in the output */
 508:TOOL/cJSON.c  ****     output_pointer = ensure(output_buffer, (size_t)length);
 509:TOOL/cJSON.c  ****     if (output_pointer == NULL)
 510:TOOL/cJSON.c  ****     {
 511:TOOL/cJSON.c  ****         return false;
 512:TOOL/cJSON.c  ****     }
 513:TOOL/cJSON.c  **** 
 514:TOOL/cJSON.c  ****     /* copy the printed number to the output and replace locale
 515:TOOL/cJSON.c  ****      * dependent decimal point with '.' */
 516:TOOL/cJSON.c  ****     for (i = 0; i < ((size_t)length); i++)
 517:TOOL/cJSON.c  ****     {
 518:TOOL/cJSON.c  ****         if (number_buffer[i] == decimal_point)
 519:TOOL/cJSON.c  ****         {
 520:TOOL/cJSON.c  ****             output_pointer[i] = '.';
 521:TOOL/cJSON.c  ****             continue;
 522:TOOL/cJSON.c  ****         }
 523:TOOL/cJSON.c  **** 
 524:TOOL/cJSON.c  ****         output_pointer[i] = number_buffer[i];
 525:TOOL/cJSON.c  ****     }
 526:TOOL/cJSON.c  ****     output_pointer[i] = '\0';
 527:TOOL/cJSON.c  **** 
 528:TOOL/cJSON.c  ****     output_buffer->offset += (size_t)length;
 529:TOOL/cJSON.c  **** 
 530:TOOL/cJSON.c  ****     return true;
 531:TOOL/cJSON.c  **** }
 532:TOOL/cJSON.c  **** 
 533:TOOL/cJSON.c  **** /* parse 4 digit hexadecimal number */
 534:TOOL/cJSON.c  **** static unsigned parse_hex4(const unsigned char * const input)
 535:TOOL/cJSON.c  **** {
 189              		.loc 1 535 1 is_stmt 1 view -0
 190              		.cfi_startproc
 191              		@ args = 0, pretend = 0, frame = 0
 192              		@ frame_needed = 0, uses_anonymous_args = 0
 193              		@ link register save eliminated.
 536:TOOL/cJSON.c  ****     unsigned int h = 0;
 194              		.loc 1 536 5 view .LVU42
ARM GAS  /var/folders/ww/n4ctlbrs3x70633t9y2ks63c0000gn/T//ccTX1xk7.s 			page 14


 537:TOOL/cJSON.c  ****     size_t i = 0;
 195              		.loc 1 537 5 view .LVU43
 538:TOOL/cJSON.c  **** 
 539:TOOL/cJSON.c  ****     for (i = 0; i < 4; i++)
 196              		.loc 1 539 5 view .LVU44
 197              		.loc 1 539 12 is_stmt 0 view .LVU45
 198 0000 0022     		movs	r2, #0
 536:TOOL/cJSON.c  ****     size_t i = 0;
 199              		.loc 1 536 18 view .LVU46
 200 0002 1346     		mov	r3, r2
 201              	.LVL18:
 202              		.loc 1 539 5 view .LVU47
 203 0004 032A     		cmp	r2, #3
 204 0006 23D8     		bhi	.L35
 535:TOOL/cJSON.c  ****     unsigned int h = 0;
 205              		.loc 1 535 1 view .LVU48
 206 0008 10B4     		push	{r4}
 207              	.LCFI3:
 208              		.cfi_def_cfa_offset 4
 209              		.cfi_offset 4, -4
 210 000a 0CE0     		b	.L29
 211              	.LVL19:
 212              	.L24:
 540:TOOL/cJSON.c  ****     {
 541:TOOL/cJSON.c  ****         /* parse digit */
 542:TOOL/cJSON.c  ****         if ((input[i] >= '0') && (input[i] <= '9'))
 543:TOOL/cJSON.c  ****         {
 544:TOOL/cJSON.c  ****             h += (unsigned int) input[i] - '0';
 545:TOOL/cJSON.c  ****         }
 546:TOOL/cJSON.c  ****         else if ((input[i] >= 'A') && (input[i] <= 'F'))
 213              		.loc 1 546 14 is_stmt 1 view .LVU49
 214              		.loc 1 546 36 is_stmt 0 view .LVU50
 215 000c A4F14101 		sub	r1, r4, #65
 216 0010 C9B2     		uxtb	r1, r1
 217              		.loc 1 546 17 view .LVU51
 218 0012 0529     		cmp	r1, #5
 219 0014 10D8     		bhi	.L26
 547:TOOL/cJSON.c  ****         {
 548:TOOL/cJSON.c  ****             h += (unsigned int) 10 + input[i] - 'A';
 220              		.loc 1 548 13 is_stmt 1 view .LVU52
 221              		.loc 1 548 15 is_stmt 0 view .LVU53
 222 0016 2344     		add	r3, r3, r4
 223              	.LVL20:
 224              		.loc 1 548 15 view .LVU54
 225 0018 373B     		subs	r3, r3, #55
 226              	.LVL21:
 227              	.L25:
 549:TOOL/cJSON.c  ****         }
 550:TOOL/cJSON.c  ****         else if ((input[i] >= 'a') && (input[i] <= 'f'))
 551:TOOL/cJSON.c  ****         {
 552:TOOL/cJSON.c  ****             h += (unsigned int) 10 + input[i] - 'a';
 553:TOOL/cJSON.c  ****         }
 554:TOOL/cJSON.c  ****         else /* invalid */
 555:TOOL/cJSON.c  ****         {
 556:TOOL/cJSON.c  ****             return 0;
 557:TOOL/cJSON.c  ****         }
 558:TOOL/cJSON.c  **** 
ARM GAS  /var/folders/ww/n4ctlbrs3x70633t9y2ks63c0000gn/T//ccTX1xk7.s 			page 15


 559:TOOL/cJSON.c  ****         if (i < 3)
 228              		.loc 1 559 9 is_stmt 1 view .LVU55
 229              		.loc 1 559 12 is_stmt 0 view .LVU56
 230 001a 022A     		cmp	r2, #2
 231 001c 00D8     		bhi	.L28
 560:TOOL/cJSON.c  ****         {
 561:TOOL/cJSON.c  ****             /* shift left to make place for the next nibble */
 562:TOOL/cJSON.c  ****             h = h << 4;
 232              		.loc 1 562 13 is_stmt 1 view .LVU57
 233              		.loc 1 562 15 is_stmt 0 view .LVU58
 234 001e 1B01     		lsls	r3, r3, #4
 235              	.LVL22:
 236              	.L28:
 539:TOOL/cJSON.c  ****     {
 237              		.loc 1 539 25 discriminator 2 view .LVU59
 238 0020 0132     		adds	r2, r2, #1
 239              	.LVL23:
 539:TOOL/cJSON.c  ****     {
 240              		.loc 1 539 5 discriminator 2 view .LVU60
 241 0022 032A     		cmp	r2, #3
 242 0024 11D8     		bhi	.L22
 243              	.L29:
 542:TOOL/cJSON.c  ****         {
 244              		.loc 1 542 9 is_stmt 1 view .LVU61
 542:TOOL/cJSON.c  ****         {
 245              		.loc 1 542 19 is_stmt 0 view .LVU62
 246 0026 845C     		ldrb	r4, [r0, r2]	@ zero_extendqisi2
 542:TOOL/cJSON.c  ****         {
 247              		.loc 1 542 31 view .LVU63
 248 0028 A4F13001 		sub	r1, r4, #48
 249 002c C9B2     		uxtb	r1, r1
 542:TOOL/cJSON.c  ****         {
 250              		.loc 1 542 12 view .LVU64
 251 002e 0929     		cmp	r1, #9
 252 0030 ECD8     		bhi	.L24
 544:TOOL/cJSON.c  ****         }
 253              		.loc 1 544 13 is_stmt 1 view .LVU65
 544:TOOL/cJSON.c  ****         }
 254              		.loc 1 544 15 is_stmt 0 view .LVU66
 255 0032 2344     		add	r3, r3, r4
 256              	.LVL24:
 544:TOOL/cJSON.c  ****         }
 257              		.loc 1 544 15 view .LVU67
 258 0034 303B     		subs	r3, r3, #48
 259              	.LVL25:
 544:TOOL/cJSON.c  ****         }
 260              		.loc 1 544 15 view .LVU68
 261 0036 F0E7     		b	.L25
 262              	.L26:
 550:TOOL/cJSON.c  ****         {
 263              		.loc 1 550 14 is_stmt 1 view .LVU69
 550:TOOL/cJSON.c  ****         {
 264              		.loc 1 550 36 is_stmt 0 view .LVU70
 265 0038 A4F16101 		sub	r1, r4, #97
 266 003c C9B2     		uxtb	r1, r1
 550:TOOL/cJSON.c  ****         {
 267              		.loc 1 550 17 view .LVU71
ARM GAS  /var/folders/ww/n4ctlbrs3x70633t9y2ks63c0000gn/T//ccTX1xk7.s 			page 16


 268 003e 0529     		cmp	r1, #5
 269 0040 02D8     		bhi	.L30
 552:TOOL/cJSON.c  ****         }
 270              		.loc 1 552 13 is_stmt 1 view .LVU72
 552:TOOL/cJSON.c  ****         }
 271              		.loc 1 552 15 is_stmt 0 view .LVU73
 272 0042 2344     		add	r3, r3, r4
 273              	.LVL26:
 552:TOOL/cJSON.c  ****         }
 274              		.loc 1 552 15 view .LVU74
 275 0044 573B     		subs	r3, r3, #87
 276              	.LVL27:
 552:TOOL/cJSON.c  ****         }
 277              		.loc 1 552 15 view .LVU75
 278 0046 E8E7     		b	.L25
 279              	.L30:
 556:TOOL/cJSON.c  ****         }
 280              		.loc 1 556 20 view .LVU76
 281 0048 0023     		movs	r3, #0
 282              	.LVL28:
 283              	.L22:
 563:TOOL/cJSON.c  ****         }
 564:TOOL/cJSON.c  ****     }
 565:TOOL/cJSON.c  **** 
 566:TOOL/cJSON.c  ****     return h;
 567:TOOL/cJSON.c  **** }
 284              		.loc 1 567 1 view .LVU77
 285 004a 1846     		mov	r0, r3
 286              	.LVL29:
 287              		.loc 1 567 1 view .LVU78
 288 004c 10BC     		pop	{r4}
 289              	.LCFI4:
 290              		.cfi_restore 4
 291              		.cfi_def_cfa_offset 0
 292 004e 7047     		bx	lr
 293              	.LVL30:
 294              	.L35:
 295              		.loc 1 567 1 view .LVU79
 296 0050 1046     		mov	r0, r2
 297              	.LVL31:
 298              		.loc 1 567 1 view .LVU80
 299 0052 7047     		bx	lr
 300              		.cfi_endproc
 301              	.LFE84:
 303              		.section	.text.utf16_literal_to_utf8,"ax",%progbits
 304              		.align	1
 305              		.syntax unified
 306              		.thumb
 307              		.thumb_func
 308              		.fpu softvfp
 310              	utf16_literal_to_utf8:
 311              	.LVL32:
 312              	.LFB85:
 568:TOOL/cJSON.c  **** 
 569:TOOL/cJSON.c  **** /* converts a UTF-16 literal to UTF-8
 570:TOOL/cJSON.c  ****  * A literal can be one or two sequences of the form \uXXXX */
 571:TOOL/cJSON.c  **** static unsigned char utf16_literal_to_utf8(const unsigned char * const input_pointer, const unsigne
ARM GAS  /var/folders/ww/n4ctlbrs3x70633t9y2ks63c0000gn/T//ccTX1xk7.s 			page 17


 572:TOOL/cJSON.c  **** {
 313              		.loc 1 572 1 is_stmt 1 view -0
 314              		.cfi_startproc
 315              		@ args = 0, pretend = 0, frame = 0
 316              		@ frame_needed = 0, uses_anonymous_args = 0
 317              		.loc 1 572 1 is_stmt 0 view .LVU82
 318 0000 F8B5     		push	{r3, r4, r5, r6, r7, lr}
 319              	.LCFI5:
 320              		.cfi_def_cfa_offset 24
 321              		.cfi_offset 3, -24
 322              		.cfi_offset 4, -20
 323              		.cfi_offset 5, -16
 324              		.cfi_offset 6, -12
 325              		.cfi_offset 7, -8
 326              		.cfi_offset 14, -4
 573:TOOL/cJSON.c  ****     long unsigned int codepoint = 0;
 327              		.loc 1 573 5 is_stmt 1 view .LVU83
 328              	.LVL33:
 574:TOOL/cJSON.c  ****     unsigned int first_code = 0;
 329              		.loc 1 574 5 view .LVU84
 575:TOOL/cJSON.c  ****     const unsigned char *first_sequence = input_pointer;
 330              		.loc 1 575 5 view .LVU85
 576:TOOL/cJSON.c  ****     unsigned char utf8_length = 0;
 331              		.loc 1 576 5 view .LVU86
 577:TOOL/cJSON.c  ****     unsigned char utf8_position = 0;
 332              		.loc 1 577 5 view .LVU87
 578:TOOL/cJSON.c  ****     unsigned char sequence_length = 0;
 333              		.loc 1 578 5 view .LVU88
 579:TOOL/cJSON.c  ****     unsigned char first_byte_mark = 0;
 334              		.loc 1 579 5 view .LVU89
 580:TOOL/cJSON.c  **** 
 581:TOOL/cJSON.c  ****     if ((input_end - first_sequence) < 6)
 335              		.loc 1 581 5 view .LVU90
 336              		.loc 1 581 20 is_stmt 0 view .LVU91
 337 0002 0B1A     		subs	r3, r1, r0
 338              		.loc 1 581 8 view .LVU92
 339 0004 052B     		cmp	r3, #5
 340 0006 5FDD     		ble	.L44
 341 0008 1546     		mov	r5, r2
 342 000a 0E46     		mov	r6, r1
 343 000c 0746     		mov	r7, r0
 582:TOOL/cJSON.c  ****     {
 583:TOOL/cJSON.c  ****         /* input ends unexpectedly */
 584:TOOL/cJSON.c  ****         goto fail;
 585:TOOL/cJSON.c  ****     }
 586:TOOL/cJSON.c  **** 
 587:TOOL/cJSON.c  ****     /* get the first utf16 sequence */
 588:TOOL/cJSON.c  ****     first_code = parse_hex4(first_sequence + 2);
 344              		.loc 1 588 5 is_stmt 1 view .LVU93
 345              		.loc 1 588 18 is_stmt 0 view .LVU94
 346 000e 0230     		adds	r0, r0, #2
 347              	.LVL34:
 348              		.loc 1 588 18 view .LVU95
 349 0010 FFF7FEFF 		bl	parse_hex4
 350              	.LVL35:
 351              		.loc 1 588 18 view .LVU96
 352 0014 0446     		mov	r4, r0
ARM GAS  /var/folders/ww/n4ctlbrs3x70633t9y2ks63c0000gn/T//ccTX1xk7.s 			page 18


 353              	.LVL36:
 589:TOOL/cJSON.c  **** 
 590:TOOL/cJSON.c  ****     /* check that the code is valid */
 591:TOOL/cJSON.c  ****     if (((first_code >= 0xDC00) && (first_code <= 0xDFFF)))
 354              		.loc 1 591 5 is_stmt 1 view .LVU97
 355              		.loc 1 591 33 is_stmt 0 view .LVU98
 356 0016 A0F55C43 		sub	r3, r0, #56320
 357              		.loc 1 591 8 view .LVU99
 358 001a B3F5806F 		cmp	r3, #1024
 359 001e 55D3     		bcc	.L45
 592:TOOL/cJSON.c  ****     {
 593:TOOL/cJSON.c  ****         goto fail;
 594:TOOL/cJSON.c  ****     }
 595:TOOL/cJSON.c  **** 
 596:TOOL/cJSON.c  ****     /* UTF16 surrogate pair */
 597:TOOL/cJSON.c  ****     if ((first_code >= 0xD800) && (first_code <= 0xDBFF))
 360              		.loc 1 597 5 is_stmt 1 view .LVU100
 361              		.loc 1 597 32 is_stmt 0 view .LVU101
 362 0020 A0F55843 		sub	r3, r0, #55296
 363              		.loc 1 597 8 view .LVU102
 364 0024 B3F5806F 		cmp	r3, #1024
 365 0028 1CD2     		bcs	.L46
 366              	.LBB5:
 598:TOOL/cJSON.c  ****     {
 599:TOOL/cJSON.c  ****         const unsigned char *second_sequence = first_sequence + 6;
 367              		.loc 1 599 9 is_stmt 1 view .LVU103
 368              		.loc 1 599 30 is_stmt 0 view .LVU104
 369 002a B91D     		adds	r1, r7, #6
 370              	.LVL37:
 600:TOOL/cJSON.c  ****         unsigned int second_code = 0;
 371              		.loc 1 600 9 is_stmt 1 view .LVU105
 601:TOOL/cJSON.c  ****         sequence_length = 12; /* \uXXXX\uXXXX */
 372              		.loc 1 601 9 view .LVU106
 602:TOOL/cJSON.c  **** 
 603:TOOL/cJSON.c  ****         if ((input_end - second_sequence) < 6)
 373              		.loc 1 603 9 view .LVU107
 374              		.loc 1 603 24 is_stmt 0 view .LVU108
 375 002c 711A     		subs	r1, r6, r1
 376              	.LVL38:
 377              		.loc 1 603 12 view .LVU109
 378 002e 0529     		cmp	r1, #5
 379 0030 4EDD     		ble	.L47
 604:TOOL/cJSON.c  ****         {
 605:TOOL/cJSON.c  ****             /* input ends unexpectedly */
 606:TOOL/cJSON.c  ****             goto fail;
 607:TOOL/cJSON.c  ****         }
 608:TOOL/cJSON.c  **** 
 609:TOOL/cJSON.c  ****         if ((second_sequence[0] != '\\') || (second_sequence[1] != 'u'))
 380              		.loc 1 609 9 is_stmt 1 view .LVU110
 381              		.loc 1 609 29 is_stmt 0 view .LVU111
 382 0032 BB79     		ldrb	r3, [r7, #6]	@ zero_extendqisi2
 383              		.loc 1 609 12 view .LVU112
 384 0034 5C2B     		cmp	r3, #92
 385 0036 4DD1     		bne	.L48
 386              		.loc 1 609 61 discriminator 1 view .LVU113
 387 0038 FB79     		ldrb	r3, [r7, #7]	@ zero_extendqisi2
 388              		.loc 1 609 42 discriminator 1 view .LVU114
ARM GAS  /var/folders/ww/n4ctlbrs3x70633t9y2ks63c0000gn/T//ccTX1xk7.s 			page 19


 389 003a 752B     		cmp	r3, #117
 390 003c 4CD1     		bne	.L49
 610:TOOL/cJSON.c  ****         {
 611:TOOL/cJSON.c  ****             /* missing second half of the surrogate pair */
 612:TOOL/cJSON.c  ****             goto fail;
 613:TOOL/cJSON.c  ****         }
 614:TOOL/cJSON.c  **** 
 615:TOOL/cJSON.c  ****         /* get the second utf16 sequence */
 616:TOOL/cJSON.c  ****         second_code = parse_hex4(second_sequence + 2);
 391              		.loc 1 616 9 is_stmt 1 view .LVU115
 392              		.loc 1 616 23 is_stmt 0 view .LVU116
 393 003e 07F10800 		add	r0, r7, #8
 394              	.LVL39:
 395              		.loc 1 616 23 view .LVU117
 396 0042 FFF7FEFF 		bl	parse_hex4
 397              	.LVL40:
 617:TOOL/cJSON.c  ****         /* check that the code is valid */
 618:TOOL/cJSON.c  ****         if ((second_code < 0xDC00) || (second_code > 0xDFFF))
 398              		.loc 1 618 9 is_stmt 1 view .LVU118
 399              		.loc 1 618 36 is_stmt 0 view .LVU119
 400 0046 A0F55C43 		sub	r3, r0, #56320
 401              		.loc 1 618 12 view .LVU120
 402 004a B3F5806F 		cmp	r3, #1024
 403 004e 45D2     		bcs	.L50
 619:TOOL/cJSON.c  ****         {
 620:TOOL/cJSON.c  ****             /* invalid second half of the surrogate pair */
 621:TOOL/cJSON.c  ****             goto fail;
 622:TOOL/cJSON.c  ****         }
 623:TOOL/cJSON.c  **** 
 624:TOOL/cJSON.c  **** 
 625:TOOL/cJSON.c  ****         /* calculate the unicode codepoint from the surrogate pair */
 626:TOOL/cJSON.c  ****         codepoint = 0x10000 + (((first_code & 0x3FF) << 10) | (second_code & 0x3FF));
 404              		.loc 1 626 9 is_stmt 1 view .LVU121
 405              		.loc 1 626 54 is_stmt 0 view .LVU122
 406 0050 244B     		ldr	r3, .L57
 407 0052 03EA8424 		and	r4, r3, r4, lsl #10
 408              	.LVL41:
 409              		.loc 1 626 76 view .LVU123
 410 0056 C0F30900 		ubfx	r0, r0, #0, #10
 411              	.LVL42:
 412              		.loc 1 626 61 view .LVU124
 413 005a 0443     		orrs	r4, r4, r0
 414              		.loc 1 626 19 view .LVU125
 415 005c 04F58034 		add	r4, r4, #65536
 416              	.LVL43:
 601:TOOL/cJSON.c  **** 
 417              		.loc 1 601 25 view .LVU126
 418 0060 0C20     		movs	r0, #12
 419              	.LBE5:
 420 0062 00E0     		b	.L38
 421              	.LVL44:
 422              	.L46:
 627:TOOL/cJSON.c  ****     }
 628:TOOL/cJSON.c  ****     else
 629:TOOL/cJSON.c  ****     {
 630:TOOL/cJSON.c  ****         sequence_length = 6; /* \uXXXX */
 423              		.loc 1 630 25 view .LVU127
ARM GAS  /var/folders/ww/n4ctlbrs3x70633t9y2ks63c0000gn/T//ccTX1xk7.s 			page 20


 424 0064 0620     		movs	r0, #6
 425              	.LVL45:
 426              	.L38:
 631:TOOL/cJSON.c  ****         codepoint = first_code;
 632:TOOL/cJSON.c  ****     }
 633:TOOL/cJSON.c  **** 
 634:TOOL/cJSON.c  ****     /* encode as UTF-8
 635:TOOL/cJSON.c  ****      * takes at maximum 4 bytes to encode:
 636:TOOL/cJSON.c  ****      * 11110xxx 10xxxxxx 10xxxxxx 10xxxxxx */
 637:TOOL/cJSON.c  ****     if (codepoint < 0x80)
 427              		.loc 1 637 5 is_stmt 1 view .LVU128
 428              		.loc 1 637 8 is_stmt 0 view .LVU129
 429 0066 7F2C     		cmp	r4, #127
 430 0068 0BD9     		bls	.L51
 638:TOOL/cJSON.c  ****     {
 639:TOOL/cJSON.c  ****         /* normal ascii, encoding 0xxxxxxx */
 640:TOOL/cJSON.c  ****         utf8_length = 1;
 641:TOOL/cJSON.c  ****     }
 642:TOOL/cJSON.c  ****     else if (codepoint < 0x800)
 431              		.loc 1 642 10 is_stmt 1 view .LVU130
 432              		.loc 1 642 13 is_stmt 0 view .LVU131
 433 006a B4F5006F 		cmp	r4, #2048
 434 006e 17D3     		bcc	.L52
 643:TOOL/cJSON.c  ****     {
 644:TOOL/cJSON.c  ****         /* two bytes, encoding 110xxxxx 10xxxxxx */
 645:TOOL/cJSON.c  ****         utf8_length = 2;
 646:TOOL/cJSON.c  ****         first_byte_mark = 0xC0; /* 11000000 */
 647:TOOL/cJSON.c  ****     }
 648:TOOL/cJSON.c  ****     else if (codepoint < 0x10000)
 435              		.loc 1 648 10 is_stmt 1 view .LVU132
 436              		.loc 1 648 13 is_stmt 0 view .LVU133
 437 0070 B4F5803F 		cmp	r4, #65536
 438 0074 17D3     		bcc	.L53
 649:TOOL/cJSON.c  ****     {
 650:TOOL/cJSON.c  ****         /* three bytes, encoding 1110xxxx 10xxxxxx 10xxxxxx */
 651:TOOL/cJSON.c  ****         utf8_length = 3;
 652:TOOL/cJSON.c  ****         first_byte_mark = 0xE0; /* 11100000 */
 653:TOOL/cJSON.c  ****     }
 654:TOOL/cJSON.c  ****     else if (codepoint <= 0x10FFFF)
 439              		.loc 1 654 10 is_stmt 1 view .LVU134
 440              		.loc 1 654 13 is_stmt 0 view .LVU135
 441 0076 B4F5881F 		cmp	r4, #1114112
 442 007a 31D2     		bcs	.L54
 655:TOOL/cJSON.c  ****     {
 656:TOOL/cJSON.c  ****         /* four bytes, encoding 1110xxxx 10xxxxxx 10xxxxxx 10xxxxxx */
 657:TOOL/cJSON.c  ****         utf8_length = 4;
 658:TOOL/cJSON.c  ****         first_byte_mark = 0xF0; /* 11110000 */
 443              		.loc 1 658 25 view .LVU136
 444 007c F027     		movs	r7, #240
 445              	.LVL46:
 657:TOOL/cJSON.c  ****         first_byte_mark = 0xF0; /* 11110000 */
 446              		.loc 1 657 21 view .LVU137
 447 007e 0426     		movs	r6, #4
 448              	.LVL47:
 657:TOOL/cJSON.c  ****         first_byte_mark = 0xF0; /* 11110000 */
 449              		.loc 1 657 21 view .LVU138
 450 0080 01E0     		b	.L39
ARM GAS  /var/folders/ww/n4ctlbrs3x70633t9y2ks63c0000gn/T//ccTX1xk7.s 			page 21


 451              	.LVL48:
 452              	.L51:
 579:TOOL/cJSON.c  **** 
 453              		.loc 1 579 19 view .LVU139
 454 0082 0027     		movs	r7, #0
 455              	.LVL49:
 640:TOOL/cJSON.c  ****     }
 456              		.loc 1 640 21 view .LVU140
 457 0084 0126     		movs	r6, #1
 458              	.LVL50:
 459              	.L39:
 659:TOOL/cJSON.c  ****     }
 660:TOOL/cJSON.c  ****     else
 661:TOOL/cJSON.c  ****     {
 662:TOOL/cJSON.c  ****         /* invalid unicode codepoint */
 663:TOOL/cJSON.c  ****         goto fail;
 664:TOOL/cJSON.c  ****     }
 665:TOOL/cJSON.c  **** 
 666:TOOL/cJSON.c  ****     /* encode as utf8 */
 667:TOOL/cJSON.c  ****     for (utf8_position = (unsigned char)(utf8_length - 1); utf8_position > 0; utf8_position--)
 460              		.loc 1 667 5 is_stmt 1 view .LVU141
 461              		.loc 1 667 24 is_stmt 0 view .LVU142
 462 0086 731E     		subs	r3, r6, #1
 463 0088 DBB2     		uxtb	r3, r3
 464              	.LVL51:
 465              	.L40:
 466              		.loc 1 667 5 discriminator 1 view .LVU143
 467 008a 7BB1     		cbz	r3, .L56
 668:TOOL/cJSON.c  ****     {
 669:TOOL/cJSON.c  ****         /* 10xxxxxx */
 670:TOOL/cJSON.c  ****         (*output_pointer)[utf8_position] = (unsigned char)((codepoint | 0x80) & 0xBF);
 468              		.loc 1 670 9 is_stmt 1 discriminator 3 view .LVU144
 469              		.loc 1 670 79 is_stmt 0 discriminator 3 view .LVU145
 470 008c 04F03F01 		and	r1, r4, #63
 471              		.loc 1 670 10 discriminator 3 view .LVU146
 472 0090 2A68     		ldr	r2, [r5]
 473              		.loc 1 670 44 discriminator 3 view .LVU147
 474 0092 41F08001 		orr	r1, r1, #128
 475              		.loc 1 670 42 discriminator 3 view .LVU148
 476 0096 D154     		strb	r1, [r2, r3]
 671:TOOL/cJSON.c  ****         codepoint >>= 6;
 477              		.loc 1 671 9 is_stmt 1 discriminator 3 view .LVU149
 478              		.loc 1 671 19 is_stmt 0 discriminator 3 view .LVU150
 479 0098 A409     		lsrs	r4, r4, #6
 480              	.LVL52:
 667:TOOL/cJSON.c  ****     {
 481              		.loc 1 667 92 discriminator 3 view .LVU151
 482 009a 013B     		subs	r3, r3, #1
 483              	.LVL53:
 667:TOOL/cJSON.c  ****     {
 484              		.loc 1 667 92 discriminator 3 view .LVU152
 485 009c DBB2     		uxtb	r3, r3
 486              	.LVL54:
 667:TOOL/cJSON.c  ****     {
 487              		.loc 1 667 92 discriminator 3 view .LVU153
 488 009e F4E7     		b	.L40
 489              	.LVL55:
ARM GAS  /var/folders/ww/n4ctlbrs3x70633t9y2ks63c0000gn/T//ccTX1xk7.s 			page 22


 490              	.L52:
 646:TOOL/cJSON.c  ****     }
 491              		.loc 1 646 25 view .LVU154
 492 00a0 C027     		movs	r7, #192
 493              	.LVL56:
 645:TOOL/cJSON.c  ****         first_byte_mark = 0xC0; /* 11000000 */
 494              		.loc 1 645 21 view .LVU155
 495 00a2 0226     		movs	r6, #2
 496              	.LVL57:
 645:TOOL/cJSON.c  ****         first_byte_mark = 0xC0; /* 11000000 */
 497              		.loc 1 645 21 view .LVU156
 498 00a4 EFE7     		b	.L39
 499              	.LVL58:
 500              	.L53:
 652:TOOL/cJSON.c  ****     }
 501              		.loc 1 652 25 view .LVU157
 502 00a6 E027     		movs	r7, #224
 503              	.LVL59:
 651:TOOL/cJSON.c  ****         first_byte_mark = 0xE0; /* 11100000 */
 504              		.loc 1 651 21 view .LVU158
 505 00a8 0326     		movs	r6, #3
 506              	.LVL60:
 651:TOOL/cJSON.c  ****         first_byte_mark = 0xE0; /* 11100000 */
 507              		.loc 1 651 21 view .LVU159
 508 00aa ECE7     		b	.L39
 509              	.LVL61:
 510              	.L56:
 672:TOOL/cJSON.c  ****     }
 673:TOOL/cJSON.c  ****     /* encode first byte */
 674:TOOL/cJSON.c  ****     if (utf8_length > 1)
 511              		.loc 1 674 5 is_stmt 1 view .LVU160
 512              		.loc 1 674 8 is_stmt 0 view .LVU161
 513 00ac 012E     		cmp	r6, #1
 514 00ae 06D9     		bls	.L42
 675:TOOL/cJSON.c  ****     {
 676:TOOL/cJSON.c  ****         (*output_pointer)[0] = (unsigned char)((codepoint | first_byte_mark) & 0xFF);
 515              		.loc 1 676 9 is_stmt 1 view .LVU162
 516              		.loc 1 676 10 is_stmt 0 view .LVU163
 517 00b0 2B68     		ldr	r3, [r5]
 518              	.LVL62:
 519              		.loc 1 676 32 view .LVU164
 520 00b2 3C43     		orrs	r4, r4, r7
 521              	.LVL63:
 522              		.loc 1 676 30 view .LVU165
 523 00b4 1C70     		strb	r4, [r3]
 524              	.L43:
 677:TOOL/cJSON.c  ****     }
 678:TOOL/cJSON.c  ****     else
 679:TOOL/cJSON.c  ****     {
 680:TOOL/cJSON.c  ****         (*output_pointer)[0] = (unsigned char)(codepoint & 0x7F);
 681:TOOL/cJSON.c  ****     }
 682:TOOL/cJSON.c  **** 
 683:TOOL/cJSON.c  ****     *output_pointer += utf8_length;
 525              		.loc 1 683 5 is_stmt 1 view .LVU166
 526              		.loc 1 683 21 is_stmt 0 view .LVU167
 527 00b6 2B68     		ldr	r3, [r5]
 528 00b8 3344     		add	r3, r3, r6
ARM GAS  /var/folders/ww/n4ctlbrs3x70633t9y2ks63c0000gn/T//ccTX1xk7.s 			page 23


 529 00ba 2B60     		str	r3, [r5]
 684:TOOL/cJSON.c  **** 
 685:TOOL/cJSON.c  ****     return sequence_length;
 530              		.loc 1 685 5 is_stmt 1 view .LVU168
 531              		.loc 1 685 12 is_stmt 0 view .LVU169
 532 00bc 05E0     		b	.L37
 533              	.LVL64:
 534              	.L42:
 680:TOOL/cJSON.c  ****     }
 535              		.loc 1 680 9 is_stmt 1 view .LVU170
 680:TOOL/cJSON.c  ****     }
 536              		.loc 1 680 10 is_stmt 0 view .LVU171
 537 00be 2B68     		ldr	r3, [r5]
 538              	.LVL65:
 680:TOOL/cJSON.c  ****     }
 539              		.loc 1 680 32 view .LVU172
 540 00c0 04F07F04 		and	r4, r4, #127
 541              	.LVL66:
 680:TOOL/cJSON.c  ****     }
 542              		.loc 1 680 30 view .LVU173
 543 00c4 1C70     		strb	r4, [r3]
 544 00c6 F6E7     		b	.L43
 545              	.LVL67:
 546              	.L44:
 686:TOOL/cJSON.c  **** 
 687:TOOL/cJSON.c  **** fail:
 688:TOOL/cJSON.c  ****     return 0;
 547              		.loc 1 688 12 view .LVU174
 548 00c8 0020     		movs	r0, #0
 549              	.LVL68:
 550              	.L37:
 689:TOOL/cJSON.c  **** }
 551              		.loc 1 689 1 view .LVU175
 552 00ca F8BD     		pop	{r3, r4, r5, r6, r7, pc}
 553              	.LVL69:
 554              	.L45:
 688:TOOL/cJSON.c  **** }
 555              		.loc 1 688 12 view .LVU176
 556 00cc 0020     		movs	r0, #0
 557              	.LVL70:
 688:TOOL/cJSON.c  **** }
 558              		.loc 1 688 12 view .LVU177
 559 00ce FCE7     		b	.L37
 560              	.LVL71:
 561              	.L47:
 688:TOOL/cJSON.c  **** }
 562              		.loc 1 688 12 view .LVU178
 563 00d0 0020     		movs	r0, #0
 564              	.LVL72:
 688:TOOL/cJSON.c  **** }
 565              		.loc 1 688 12 view .LVU179
 566 00d2 FAE7     		b	.L37
 567              	.LVL73:
 568              	.L48:
 688:TOOL/cJSON.c  **** }
 569              		.loc 1 688 12 view .LVU180
 570 00d4 0020     		movs	r0, #0
ARM GAS  /var/folders/ww/n4ctlbrs3x70633t9y2ks63c0000gn/T//ccTX1xk7.s 			page 24


 571              	.LVL74:
 688:TOOL/cJSON.c  **** }
 572              		.loc 1 688 12 view .LVU181
 573 00d6 F8E7     		b	.L37
 574              	.LVL75:
 575              	.L49:
 688:TOOL/cJSON.c  **** }
 576              		.loc 1 688 12 view .LVU182
 577 00d8 0020     		movs	r0, #0
 578              	.LVL76:
 688:TOOL/cJSON.c  **** }
 579              		.loc 1 688 12 view .LVU183
 580 00da F6E7     		b	.L37
 581              	.LVL77:
 582              	.L50:
 688:TOOL/cJSON.c  **** }
 583              		.loc 1 688 12 view .LVU184
 584 00dc 0020     		movs	r0, #0
 585              	.LVL78:
 688:TOOL/cJSON.c  **** }
 586              		.loc 1 688 12 view .LVU185
 587 00de F4E7     		b	.L37
 588              	.LVL79:
 589              	.L54:
 688:TOOL/cJSON.c  **** }
 590              		.loc 1 688 12 view .LVU186
 591 00e0 0020     		movs	r0, #0
 592              	.LVL80:
 688:TOOL/cJSON.c  **** }
 593              		.loc 1 688 12 view .LVU187
 594 00e2 F2E7     		b	.L37
 595              	.L58:
 596              		.align	2
 597              	.L57:
 598 00e4 00FC0F00 		.word	1047552
 599              		.cfi_endproc
 600              	.LFE85:
 602              		.section	.text.parse_string,"ax",%progbits
 603              		.align	1
 604              		.syntax unified
 605              		.thumb
 606              		.thumb_func
 607              		.fpu softvfp
 609              	parse_string:
 610              	.LVL81:
 611              	.LFB86:
 690:TOOL/cJSON.c  **** 
 691:TOOL/cJSON.c  **** /* Parse the input text into an unescaped cinput, and populate item. */
 692:TOOL/cJSON.c  **** static cJSON_bool parse_string(cJSON * const item, parse_buffer * const input_buffer)
 693:TOOL/cJSON.c  **** {
 612              		.loc 1 693 1 is_stmt 1 view -0
 613              		.cfi_startproc
 614              		@ args = 0, pretend = 0, frame = 8
 615              		@ frame_needed = 0, uses_anonymous_args = 0
 616              		.loc 1 693 1 is_stmt 0 view .LVU189
 617 0000 2DE9F041 		push	{r4, r5, r6, r7, r8, lr}
 618              	.LCFI6:
ARM GAS  /var/folders/ww/n4ctlbrs3x70633t9y2ks63c0000gn/T//ccTX1xk7.s 			page 25


 619              		.cfi_def_cfa_offset 24
 620              		.cfi_offset 4, -24
 621              		.cfi_offset 5, -20
 622              		.cfi_offset 6, -16
 623              		.cfi_offset 7, -12
 624              		.cfi_offset 8, -8
 625              		.cfi_offset 14, -4
 626 0004 82B0     		sub	sp, sp, #8
 627              	.LCFI7:
 628              		.cfi_def_cfa_offset 32
 629 0006 0746     		mov	r7, r0
 630 0008 0E46     		mov	r6, r1
 694:TOOL/cJSON.c  ****     const unsigned char *input_pointer = buffer_at_offset(input_buffer) + 1;
 631              		.loc 1 694 5 is_stmt 1 view .LVU190
 632              		.loc 1 694 42 is_stmt 0 view .LVU191
 633 000a 0B68     		ldr	r3, [r1]
 634 000c 8A68     		ldr	r2, [r1, #8]
 635              		.loc 1 694 73 view .LVU192
 636 000e 551C     		adds	r5, r2, #1
 637              		.loc 1 694 26 view .LVU193
 638 0010 1D44     		add	r5, r5, r3
 639              	.LVL82:
 695:TOOL/cJSON.c  ****     const unsigned char *input_end = buffer_at_offset(input_buffer) + 1;
 640              		.loc 1 695 5 is_stmt 1 view .LVU194
 696:TOOL/cJSON.c  ****     unsigned char *output_pointer = NULL;
 641              		.loc 1 696 5 view .LVU195
 642              		.loc 1 696 20 is_stmt 0 view .LVU196
 643 0012 0021     		movs	r1, #0
 644              	.LVL83:
 645              		.loc 1 696 20 view .LVU197
 646 0014 0191     		str	r1, [sp, #4]
 697:TOOL/cJSON.c  ****     unsigned char *output = NULL;
 647              		.loc 1 697 5 is_stmt 1 view .LVU198
 648              	.LVL84:
 698:TOOL/cJSON.c  **** 
 699:TOOL/cJSON.c  ****     /* not a string */
 700:TOOL/cJSON.c  ****     if (buffer_at_offset(input_buffer)[0] != '\"')
 649              		.loc 1 700 5 view .LVU199
 650              		.loc 1 700 9 is_stmt 0 view .LVU200
 651 0016 1846     		mov	r0, r3
 652              	.LVL85:
 653              		.loc 1 700 39 view .LVU201
 654 0018 03EB020E 		add	lr, r3, r2
 655 001c 9B5C     		ldrb	r3, [r3, r2]	@ zero_extendqisi2
 656              		.loc 1 700 8 view .LVU202
 657 001e 222B     		cmp	r3, #34
 658 0020 40F09F80 		bne	.L60
 695:TOOL/cJSON.c  ****     unsigned char *output_pointer = NULL;
 659              		.loc 1 695 26 view .LVU203
 660 0024 2C46     		mov	r4, r5
 661              	.LBB6:
 701:TOOL/cJSON.c  ****     {
 702:TOOL/cJSON.c  ****         goto fail;
 703:TOOL/cJSON.c  ****     }
 704:TOOL/cJSON.c  **** 
 705:TOOL/cJSON.c  ****     {
 706:TOOL/cJSON.c  ****         /* calculate approximate size of the output (overestimate) */
ARM GAS  /var/folders/ww/n4ctlbrs3x70633t9y2ks63c0000gn/T//ccTX1xk7.s 			page 26


 707:TOOL/cJSON.c  ****         size_t allocation_length = 0;
 708:TOOL/cJSON.c  ****         size_t skipped_bytes = 0;
 662              		.loc 1 708 16 view .LVU204
 663 0026 8C46     		mov	ip, r1
 664 0028 00E0     		b	.L61
 665              	.LVL86:
 666              	.L62:
 709:TOOL/cJSON.c  ****         while (((size_t)(input_end - input_buffer->content) < input_buffer->length) && (*input_end 
 710:TOOL/cJSON.c  ****         {
 711:TOOL/cJSON.c  ****             /* is escape sequence */
 712:TOOL/cJSON.c  ****             if (input_end[0] == '\\')
 713:TOOL/cJSON.c  ****             {
 714:TOOL/cJSON.c  ****                 if ((size_t)(input_end + 1 - input_buffer->content) >= input_buffer->length)
 715:TOOL/cJSON.c  ****                 {
 716:TOOL/cJSON.c  ****                     /* prevent buffer overflow when last input character is a backslash */
 717:TOOL/cJSON.c  ****                     goto fail;
 718:TOOL/cJSON.c  ****                 }
 719:TOOL/cJSON.c  ****                 skipped_bytes++;
 720:TOOL/cJSON.c  ****                 input_end++;
 721:TOOL/cJSON.c  ****             }
 722:TOOL/cJSON.c  ****             input_end++;
 667              		.loc 1 722 13 is_stmt 1 view .LVU205
 668              		.loc 1 722 22 is_stmt 0 view .LVU206
 669 002a 0134     		adds	r4, r4, #1
 670              	.LVL87:
 671              	.L61:
 709:TOOL/cJSON.c  ****         while (((size_t)(input_end - input_buffer->content) < input_buffer->length) && (*input_end 
 672              		.loc 1 709 36 view .LVU207
 673 002c 211A     		subs	r1, r4, r0
 709:TOOL/cJSON.c  ****         while (((size_t)(input_end - input_buffer->content) < input_buffer->length) && (*input_end 
 674              		.loc 1 709 75 view .LVU208
 675 002e 7268     		ldr	r2, [r6, #4]
 709:TOOL/cJSON.c  ****         while (((size_t)(input_end - input_buffer->content) < input_buffer->length) && (*input_end 
 676              		.loc 1 709 15 view .LVU209
 677 0030 9142     		cmp	r1, r2
 678 0032 0CD2     		bcs	.L63
 709:TOOL/cJSON.c  ****         while (((size_t)(input_end - input_buffer->content) < input_buffer->length) && (*input_end 
 679              		.loc 1 709 89 discriminator 1 view .LVU210
 680 0034 2378     		ldrb	r3, [r4]	@ zero_extendqisi2
 709:TOOL/cJSON.c  ****         while (((size_t)(input_end - input_buffer->content) < input_buffer->length) && (*input_end 
 681              		.loc 1 709 85 discriminator 1 view .LVU211
 682 0036 222B     		cmp	r3, #34
 683 0038 09D0     		beq	.L63
 712:TOOL/cJSON.c  ****             {
 684              		.loc 1 712 13 is_stmt 1 view .LVU212
 712:TOOL/cJSON.c  ****             {
 685              		.loc 1 712 16 is_stmt 0 view .LVU213
 686 003a 5C2B     		cmp	r3, #92
 687 003c F5D1     		bne	.L62
 714:TOOL/cJSON.c  ****                 {
 688              		.loc 1 714 17 is_stmt 1 view .LVU214
 714:TOOL/cJSON.c  ****                 {
 689              		.loc 1 714 40 is_stmt 0 view .LVU215
 690 003e 0134     		adds	r4, r4, #1
 691              	.LVL88:
 714:TOOL/cJSON.c  ****                 {
 692              		.loc 1 714 44 view .LVU216
ARM GAS  /var/folders/ww/n4ctlbrs3x70633t9y2ks63c0000gn/T//ccTX1xk7.s 			page 27


 693 0040 231A     		subs	r3, r4, r0
 714:TOOL/cJSON.c  ****                 {
 694              		.loc 1 714 20 view .LVU217
 695 0042 9342     		cmp	r3, r2
 696 0044 80F08D80 		bcs	.L60
 719:TOOL/cJSON.c  ****                 input_end++;
 697              		.loc 1 719 17 is_stmt 1 view .LVU218
 719:TOOL/cJSON.c  ****                 input_end++;
 698              		.loc 1 719 30 is_stmt 0 view .LVU219
 699 0048 0CF1010C 		add	ip, ip, #1
 700              	.LVL89:
 720:TOOL/cJSON.c  ****             }
 701              		.loc 1 720 17 is_stmt 1 view .LVU220
 720:TOOL/cJSON.c  ****             }
 702              		.loc 1 720 17 is_stmt 0 view .LVU221
 703 004c EDE7     		b	.L62
 704              	.L63:
 723:TOOL/cJSON.c  ****         }
 724:TOOL/cJSON.c  ****         if (((size_t)(input_end - input_buffer->content) >= input_buffer->length) || (*input_end !=
 705              		.loc 1 724 9 is_stmt 1 view .LVU222
 706              		.loc 1 724 12 is_stmt 0 view .LVU223
 707 004e 9142     		cmp	r1, r2
 708 0050 80F08780 		bcs	.L60
 709              		.loc 1 724 87 discriminator 1 view .LVU224
 710 0054 2378     		ldrb	r3, [r4]	@ zero_extendqisi2
 711              		.loc 1 724 83 discriminator 1 view .LVU225
 712 0056 222B     		cmp	r3, #34
 713 0058 40F08380 		bne	.L60
 725:TOOL/cJSON.c  ****         {
 726:TOOL/cJSON.c  ****             goto fail; /* string ended unexpectedly */
 727:TOOL/cJSON.c  ****         }
 728:TOOL/cJSON.c  **** 
 729:TOOL/cJSON.c  ****         /* This is at most how much we need for the output */
 730:TOOL/cJSON.c  ****         allocation_length = (size_t) (input_end - buffer_at_offset(input_buffer)) - skipped_bytes;
 714              		.loc 1 730 9 is_stmt 1 view .LVU226
 715              		.loc 1 730 49 is_stmt 0 view .LVU227
 716 005c A4EB0E00 		sub	r0, r4, lr
 717              		.loc 1 730 27 view .LVU228
 718 0060 A0EB0C00 		sub	r0, r0, ip
 719              	.LVL90:
 731:TOOL/cJSON.c  ****         output = (unsigned char*)input_buffer->hooks.allocate(allocation_length + sizeof(""));
 720              		.loc 1 731 9 is_stmt 1 view .LVU229
 721              		.loc 1 731 53 is_stmt 0 view .LVU230
 722 0064 3369     		ldr	r3, [r6, #16]
 723              		.loc 1 731 34 view .LVU231
 724 0066 0130     		adds	r0, r0, #1
 725              	.LVL91:
 726              		.loc 1 731 34 view .LVU232
 727 0068 9847     		blx	r3
 728              	.LVL92:
 732:TOOL/cJSON.c  ****         if (output == NULL)
 729              		.loc 1 732 9 is_stmt 1 view .LVU233
 730              		.loc 1 732 12 is_stmt 0 view .LVU234
 731 006a 8046     		mov	r8, r0
 732 006c 0028     		cmp	r0, #0
 733 006e 72D0     		beq	.L65
 734              	.LBE6:
ARM GAS  /var/folders/ww/n4ctlbrs3x70633t9y2ks63c0000gn/T//ccTX1xk7.s 			page 28


 733:TOOL/cJSON.c  ****         {
 734:TOOL/cJSON.c  ****             goto fail; /* allocation failure */
 735:TOOL/cJSON.c  ****         }
 736:TOOL/cJSON.c  ****     }
 737:TOOL/cJSON.c  **** 
 738:TOOL/cJSON.c  ****     output_pointer = output;
 735              		.loc 1 738 5 is_stmt 1 view .LVU235
 736              		.loc 1 738 20 is_stmt 0 view .LVU236
 737 0070 0190     		str	r0, [sp, #4]
 739:TOOL/cJSON.c  ****     /* loop through the string literal */
 740:TOOL/cJSON.c  ****     while (input_pointer < input_end)
 738              		.loc 1 740 5 is_stmt 1 view .LVU237
 739              		.loc 1 740 11 is_stmt 0 view .LVU238
 740 0072 05E0     		b	.L66
 741              	.LVL93:
 742              	.L83:
 741:TOOL/cJSON.c  ****     {
 742:TOOL/cJSON.c  ****         if (*input_pointer != '\\')
 743:TOOL/cJSON.c  ****         {
 744:TOOL/cJSON.c  ****             *output_pointer++ = *input_pointer++;
 743              		.loc 1 744 13 is_stmt 1 view .LVU239
 744              		.loc 1 744 28 is_stmt 0 view .LVU240
 745 0074 019B     		ldr	r3, [sp, #4]
 746 0076 5A1C     		adds	r2, r3, #1
 747 0078 0192     		str	r2, [sp, #4]
 748              		.loc 1 744 33 view .LVU241
 749 007a 15F8012B 		ldrb	r2, [r5], #1	@ zero_extendqisi2
 750              	.LVL94:
 751              		.loc 1 744 31 view .LVU242
 752 007e 1A70     		strb	r2, [r3]
 753              	.LVL95:
 754              	.L66:
 740:TOOL/cJSON.c  ****     {
 755              		.loc 1 740 11 view .LVU243
 756 0080 A542     		cmp	r5, r4
 757 0082 76D2     		bcs	.L82
 742:TOOL/cJSON.c  ****         {
 758              		.loc 1 742 9 is_stmt 1 view .LVU244
 742:TOOL/cJSON.c  ****         {
 759              		.loc 1 742 13 is_stmt 0 view .LVU245
 760 0084 2B78     		ldrb	r3, [r5]	@ zero_extendqisi2
 742:TOOL/cJSON.c  ****         {
 761              		.loc 1 742 12 view .LVU246
 762 0086 5C2B     		cmp	r3, #92
 763 0088 F4D1     		bne	.L83
 764              	.LBB7:
 745:TOOL/cJSON.c  ****         }
 746:TOOL/cJSON.c  ****         /* escape sequence */
 747:TOOL/cJSON.c  ****         else
 748:TOOL/cJSON.c  ****         {
 749:TOOL/cJSON.c  ****             unsigned char sequence_length = 2;
 765              		.loc 1 749 13 is_stmt 1 view .LVU247
 766              	.LVL96:
 750:TOOL/cJSON.c  ****             if ((input_end - input_pointer) < 1)
 767              		.loc 1 750 13 view .LVU248
 768              		.loc 1 750 28 is_stmt 0 view .LVU249
 769 008a 631B     		subs	r3, r4, r5
ARM GAS  /var/folders/ww/n4ctlbrs3x70633t9y2ks63c0000gn/T//ccTX1xk7.s 			page 29


 770              		.loc 1 750 16 view .LVU250
 771 008c 002B     		cmp	r3, #0
 772 008e 62DD     		ble	.L65
 751:TOOL/cJSON.c  ****             {
 752:TOOL/cJSON.c  ****                 goto fail;
 753:TOOL/cJSON.c  ****             }
 754:TOOL/cJSON.c  **** 
 755:TOOL/cJSON.c  ****             switch (input_pointer[1])
 773              		.loc 1 755 13 is_stmt 1 view .LVU251
 774              		.loc 1 755 34 is_stmt 0 view .LVU252
 775 0090 6B78     		ldrb	r3, [r5, #1]	@ zero_extendqisi2
 776              		.loc 1 755 13 view .LVU253
 777 0092 223B     		subs	r3, r3, #34
 778 0094 532B     		cmp	r3, #83
 779 0096 5ED8     		bhi	.L65
 780 0098 DFE803F0 		tbb	[pc, r3]
 781              	.L70:
 782 009c 4E       		.byte	(.L76-.L70)/2
 783 009d 5D       		.byte	(.L65-.L70)/2
 784 009e 5D       		.byte	(.L65-.L70)/2
 785 009f 5D       		.byte	(.L65-.L70)/2
 786 00a0 5D       		.byte	(.L65-.L70)/2
 787 00a1 5D       		.byte	(.L65-.L70)/2
 788 00a2 5D       		.byte	(.L65-.L70)/2
 789 00a3 5D       		.byte	(.L65-.L70)/2
 790 00a4 5D       		.byte	(.L65-.L70)/2
 791 00a5 5D       		.byte	(.L65-.L70)/2
 792 00a6 5D       		.byte	(.L65-.L70)/2
 793 00a7 5D       		.byte	(.L65-.L70)/2
 794 00a8 5D       		.byte	(.L65-.L70)/2
 795 00a9 4E       		.byte	(.L76-.L70)/2
 796 00aa 5D       		.byte	(.L65-.L70)/2
 797 00ab 5D       		.byte	(.L65-.L70)/2
 798 00ac 5D       		.byte	(.L65-.L70)/2
 799 00ad 5D       		.byte	(.L65-.L70)/2
 800 00ae 5D       		.byte	(.L65-.L70)/2
 801 00af 5D       		.byte	(.L65-.L70)/2
 802 00b0 5D       		.byte	(.L65-.L70)/2
 803 00b1 5D       		.byte	(.L65-.L70)/2
 804 00b2 5D       		.byte	(.L65-.L70)/2
 805 00b3 5D       		.byte	(.L65-.L70)/2
 806 00b4 5D       		.byte	(.L65-.L70)/2
 807 00b5 5D       		.byte	(.L65-.L70)/2
 808 00b6 5D       		.byte	(.L65-.L70)/2
 809 00b7 5D       		.byte	(.L65-.L70)/2
 810 00b8 5D       		.byte	(.L65-.L70)/2
 811 00b9 5D       		.byte	(.L65-.L70)/2
 812 00ba 5D       		.byte	(.L65-.L70)/2
 813 00bb 5D       		.byte	(.L65-.L70)/2
 814 00bc 5D       		.byte	(.L65-.L70)/2
 815 00bd 5D       		.byte	(.L65-.L70)/2
 816 00be 5D       		.byte	(.L65-.L70)/2
 817 00bf 5D       		.byte	(.L65-.L70)/2
 818 00c0 5D       		.byte	(.L65-.L70)/2
 819 00c1 5D       		.byte	(.L65-.L70)/2
 820 00c2 5D       		.byte	(.L65-.L70)/2
 821 00c3 5D       		.byte	(.L65-.L70)/2
ARM GAS  /var/folders/ww/n4ctlbrs3x70633t9y2ks63c0000gn/T//ccTX1xk7.s 			page 30


 822 00c4 5D       		.byte	(.L65-.L70)/2
 823 00c5 5D       		.byte	(.L65-.L70)/2
 824 00c6 5D       		.byte	(.L65-.L70)/2
 825 00c7 5D       		.byte	(.L65-.L70)/2
 826 00c8 5D       		.byte	(.L65-.L70)/2
 827 00c9 5D       		.byte	(.L65-.L70)/2
 828 00ca 5D       		.byte	(.L65-.L70)/2
 829 00cb 5D       		.byte	(.L65-.L70)/2
 830 00cc 5D       		.byte	(.L65-.L70)/2
 831 00cd 5D       		.byte	(.L65-.L70)/2
 832 00ce 5D       		.byte	(.L65-.L70)/2
 833 00cf 5D       		.byte	(.L65-.L70)/2
 834 00d0 5D       		.byte	(.L65-.L70)/2
 835 00d1 5D       		.byte	(.L65-.L70)/2
 836 00d2 5D       		.byte	(.L65-.L70)/2
 837 00d3 5D       		.byte	(.L65-.L70)/2
 838 00d4 5D       		.byte	(.L65-.L70)/2
 839 00d5 5D       		.byte	(.L65-.L70)/2
 840 00d6 4E       		.byte	(.L76-.L70)/2
 841 00d7 5D       		.byte	(.L65-.L70)/2
 842 00d8 5D       		.byte	(.L65-.L70)/2
 843 00d9 5D       		.byte	(.L65-.L70)/2
 844 00da 5D       		.byte	(.L65-.L70)/2
 845 00db 5D       		.byte	(.L65-.L70)/2
 846 00dc 2A       		.byte	(.L75-.L70)/2
 847 00dd 5D       		.byte	(.L65-.L70)/2
 848 00de 5D       		.byte	(.L65-.L70)/2
 849 00df 5D       		.byte	(.L65-.L70)/2
 850 00e0 32       		.byte	(.L74-.L70)/2
 851 00e1 5D       		.byte	(.L65-.L70)/2
 852 00e2 5D       		.byte	(.L65-.L70)/2
 853 00e3 5D       		.byte	(.L65-.L70)/2
 854 00e4 5D       		.byte	(.L65-.L70)/2
 855 00e5 5D       		.byte	(.L65-.L70)/2
 856 00e6 5D       		.byte	(.L65-.L70)/2
 857 00e7 5D       		.byte	(.L65-.L70)/2
 858 00e8 39       		.byte	(.L73-.L70)/2
 859 00e9 5D       		.byte	(.L65-.L70)/2
 860 00ea 5D       		.byte	(.L65-.L70)/2
 861 00eb 5D       		.byte	(.L65-.L70)/2
 862 00ec 40       		.byte	(.L72-.L70)/2
 863 00ed 5D       		.byte	(.L65-.L70)/2
 864 00ee 47       		.byte	(.L71-.L70)/2
 865 00ef 55       		.byte	(.L69-.L70)/2
 866              		.p2align 1
 867              	.L75:
 756:TOOL/cJSON.c  ****             {
 757:TOOL/cJSON.c  ****                 case 'b':
 758:TOOL/cJSON.c  ****                     *output_pointer++ = '\b';
 868              		.loc 1 758 21 is_stmt 1 view .LVU254
 869              		.loc 1 758 36 is_stmt 0 view .LVU255
 870 00f0 019B     		ldr	r3, [sp, #4]
 871 00f2 5A1C     		adds	r2, r3, #1
 872 00f4 0192     		str	r2, [sp, #4]
 873              		.loc 1 758 39 view .LVU256
 874 00f6 0822     		movs	r2, #8
 875 00f8 1A70     		strb	r2, [r3]
ARM GAS  /var/folders/ww/n4ctlbrs3x70633t9y2ks63c0000gn/T//ccTX1xk7.s 			page 31


 759:TOOL/cJSON.c  ****                     break;
 876              		.loc 1 759 21 is_stmt 1 view .LVU257
 749:TOOL/cJSON.c  ****             if ((input_end - input_pointer) < 1)
 877              		.loc 1 749 27 is_stmt 0 view .LVU258
 878 00fa 0223     		movs	r3, #2
 879              	.LVL97:
 880              	.L77:
 760:TOOL/cJSON.c  ****                 case 'f':
 761:TOOL/cJSON.c  ****                     *output_pointer++ = '\f';
 762:TOOL/cJSON.c  ****                     break;
 763:TOOL/cJSON.c  ****                 case 'n':
 764:TOOL/cJSON.c  ****                     *output_pointer++ = '\n';
 765:TOOL/cJSON.c  ****                     break;
 766:TOOL/cJSON.c  ****                 case 'r':
 767:TOOL/cJSON.c  ****                     *output_pointer++ = '\r';
 768:TOOL/cJSON.c  ****                     break;
 769:TOOL/cJSON.c  ****                 case 't':
 770:TOOL/cJSON.c  ****                     *output_pointer++ = '\t';
 771:TOOL/cJSON.c  ****                     break;
 772:TOOL/cJSON.c  ****                 case '\"':
 773:TOOL/cJSON.c  ****                 case '\\':
 774:TOOL/cJSON.c  ****                 case '/':
 775:TOOL/cJSON.c  ****                     *output_pointer++ = input_pointer[1];
 776:TOOL/cJSON.c  ****                     break;
 777:TOOL/cJSON.c  **** 
 778:TOOL/cJSON.c  ****                 /* UTF-16 literal */
 779:TOOL/cJSON.c  ****                 case 'u':
 780:TOOL/cJSON.c  ****                     sequence_length = utf16_literal_to_utf8(input_pointer, input_end, &output_point
 781:TOOL/cJSON.c  ****                     if (sequence_length == 0)
 782:TOOL/cJSON.c  ****                     {
 783:TOOL/cJSON.c  ****                         /* failed to convert UTF16-literal to UTF-8 */
 784:TOOL/cJSON.c  ****                         goto fail;
 785:TOOL/cJSON.c  ****                     }
 786:TOOL/cJSON.c  ****                     break;
 787:TOOL/cJSON.c  **** 
 788:TOOL/cJSON.c  ****                 default:
 789:TOOL/cJSON.c  ****                     goto fail;
 790:TOOL/cJSON.c  ****             }
 791:TOOL/cJSON.c  ****             input_pointer += sequence_length;
 881              		.loc 1 791 13 is_stmt 1 view .LVU259
 882              		.loc 1 791 27 is_stmt 0 view .LVU260
 883 00fc 1D44     		add	r5, r5, r3
 884              	.LVL98:
 885              		.loc 1 791 27 view .LVU261
 886 00fe BFE7     		b	.L66
 887              	.LVL99:
 888              	.L74:
 761:TOOL/cJSON.c  ****                     break;
 889              		.loc 1 761 21 is_stmt 1 view .LVU262
 761:TOOL/cJSON.c  ****                     break;
 890              		.loc 1 761 36 is_stmt 0 view .LVU263
 891 0100 019B     		ldr	r3, [sp, #4]
 892 0102 5A1C     		adds	r2, r3, #1
 893 0104 0192     		str	r2, [sp, #4]
 761:TOOL/cJSON.c  ****                     break;
 894              		.loc 1 761 39 view .LVU264
 895 0106 0C22     		movs	r2, #12
ARM GAS  /var/folders/ww/n4ctlbrs3x70633t9y2ks63c0000gn/T//ccTX1xk7.s 			page 32


 896 0108 1A70     		strb	r2, [r3]
 762:TOOL/cJSON.c  ****                 case 'n':
 897              		.loc 1 762 21 is_stmt 1 view .LVU265
 749:TOOL/cJSON.c  ****             if ((input_end - input_pointer) < 1)
 898              		.loc 1 749 27 is_stmt 0 view .LVU266
 899 010a 0223     		movs	r3, #2
 762:TOOL/cJSON.c  ****                 case 'n':
 900              		.loc 1 762 21 view .LVU267
 901 010c F6E7     		b	.L77
 902              	.L73:
 764:TOOL/cJSON.c  ****                     break;
 903              		.loc 1 764 21 is_stmt 1 view .LVU268
 764:TOOL/cJSON.c  ****                     break;
 904              		.loc 1 764 36 is_stmt 0 view .LVU269
 905 010e 019B     		ldr	r3, [sp, #4]
 906 0110 5A1C     		adds	r2, r3, #1
 907 0112 0192     		str	r2, [sp, #4]
 764:TOOL/cJSON.c  ****                     break;
 908              		.loc 1 764 39 view .LVU270
 909 0114 0A22     		movs	r2, #10
 910 0116 1A70     		strb	r2, [r3]
 765:TOOL/cJSON.c  ****                 case 'r':
 911              		.loc 1 765 21 is_stmt 1 view .LVU271
 749:TOOL/cJSON.c  ****             if ((input_end - input_pointer) < 1)
 912              		.loc 1 749 27 is_stmt 0 view .LVU272
 913 0118 0223     		movs	r3, #2
 765:TOOL/cJSON.c  ****                 case 'r':
 914              		.loc 1 765 21 view .LVU273
 915 011a EFE7     		b	.L77
 916              	.L72:
 767:TOOL/cJSON.c  ****                     break;
 917              		.loc 1 767 21 is_stmt 1 view .LVU274
 767:TOOL/cJSON.c  ****                     break;
 918              		.loc 1 767 36 is_stmt 0 view .LVU275
 919 011c 019B     		ldr	r3, [sp, #4]
 920 011e 5A1C     		adds	r2, r3, #1
 921 0120 0192     		str	r2, [sp, #4]
 767:TOOL/cJSON.c  ****                     break;
 922              		.loc 1 767 39 view .LVU276
 923 0122 0D22     		movs	r2, #13
 924 0124 1A70     		strb	r2, [r3]
 768:TOOL/cJSON.c  ****                 case 't':
 925              		.loc 1 768 21 is_stmt 1 view .LVU277
 749:TOOL/cJSON.c  ****             if ((input_end - input_pointer) < 1)
 926              		.loc 1 749 27 is_stmt 0 view .LVU278
 927 0126 0223     		movs	r3, #2
 768:TOOL/cJSON.c  ****                 case 't':
 928              		.loc 1 768 21 view .LVU279
 929 0128 E8E7     		b	.L77
 930              	.L71:
 770:TOOL/cJSON.c  ****                     break;
 931              		.loc 1 770 21 is_stmt 1 view .LVU280
 770:TOOL/cJSON.c  ****                     break;
 932              		.loc 1 770 36 is_stmt 0 view .LVU281
 933 012a 019B     		ldr	r3, [sp, #4]
 934 012c 5A1C     		adds	r2, r3, #1
 935 012e 0192     		str	r2, [sp, #4]
ARM GAS  /var/folders/ww/n4ctlbrs3x70633t9y2ks63c0000gn/T//ccTX1xk7.s 			page 33


 770:TOOL/cJSON.c  ****                     break;
 936              		.loc 1 770 39 view .LVU282
 937 0130 0922     		movs	r2, #9
 938 0132 1A70     		strb	r2, [r3]
 771:TOOL/cJSON.c  ****                 case '\"':
 939              		.loc 1 771 21 is_stmt 1 view .LVU283
 749:TOOL/cJSON.c  ****             if ((input_end - input_pointer) < 1)
 940              		.loc 1 749 27 is_stmt 0 view .LVU284
 941 0134 0223     		movs	r3, #2
 771:TOOL/cJSON.c  ****                 case '\"':
 942              		.loc 1 771 21 view .LVU285
 943 0136 E1E7     		b	.L77
 944              	.L76:
 775:TOOL/cJSON.c  ****                     break;
 945              		.loc 1 775 21 is_stmt 1 view .LVU286
 775:TOOL/cJSON.c  ****                     break;
 946              		.loc 1 775 36 is_stmt 0 view .LVU287
 947 0138 019B     		ldr	r3, [sp, #4]
 948 013a 5A1C     		adds	r2, r3, #1
 949 013c 0192     		str	r2, [sp, #4]
 775:TOOL/cJSON.c  ****                     break;
 950              		.loc 1 775 39 view .LVU288
 951 013e 6A78     		ldrb	r2, [r5, #1]	@ zero_extendqisi2
 952 0140 1A70     		strb	r2, [r3]
 776:TOOL/cJSON.c  **** 
 953              		.loc 1 776 21 is_stmt 1 view .LVU289
 749:TOOL/cJSON.c  ****             if ((input_end - input_pointer) < 1)
 954              		.loc 1 749 27 is_stmt 0 view .LVU290
 955 0142 0223     		movs	r3, #2
 776:TOOL/cJSON.c  **** 
 956              		.loc 1 776 21 view .LVU291
 957 0144 DAE7     		b	.L77
 958              	.L69:
 780:TOOL/cJSON.c  ****                     if (sequence_length == 0)
 959              		.loc 1 780 21 is_stmt 1 view .LVU292
 780:TOOL/cJSON.c  ****                     if (sequence_length == 0)
 960              		.loc 1 780 39 is_stmt 0 view .LVU293
 961 0146 01AA     		add	r2, sp, #4
 962 0148 2146     		mov	r1, r4
 963 014a 2846     		mov	r0, r5
 964 014c FFF7FEFF 		bl	utf16_literal_to_utf8
 965              	.LVL100:
 781:TOOL/cJSON.c  ****                     {
 966              		.loc 1 781 21 is_stmt 1 view .LVU294
 781:TOOL/cJSON.c  ****                     {
 967              		.loc 1 781 24 is_stmt 0 view .LVU295
 968 0150 0346     		mov	r3, r0
 969 0152 0028     		cmp	r0, #0
 970 0154 D2D1     		bne	.L77
 971              	.LVL101:
 972              	.L65:
 781:TOOL/cJSON.c  ****                     {
 973              		.loc 1 781 24 view .LVU296
 974              	.LBE7:
 792:TOOL/cJSON.c  ****         }
 793:TOOL/cJSON.c  ****     }
 794:TOOL/cJSON.c  **** 
ARM GAS  /var/folders/ww/n4ctlbrs3x70633t9y2ks63c0000gn/T//ccTX1xk7.s 			page 34


 795:TOOL/cJSON.c  ****     /* zero terminate the output */
 796:TOOL/cJSON.c  ****     *output_pointer = '\0';
 797:TOOL/cJSON.c  **** 
 798:TOOL/cJSON.c  ****     item->type = cJSON_String;
 799:TOOL/cJSON.c  ****     item->valuestring = (char*)output;
 800:TOOL/cJSON.c  **** 
 801:TOOL/cJSON.c  ****     input_buffer->offset = (size_t) (input_end - input_buffer->content);
 802:TOOL/cJSON.c  ****     input_buffer->offset++;
 803:TOOL/cJSON.c  **** 
 804:TOOL/cJSON.c  ****     return true;
 805:TOOL/cJSON.c  **** 
 806:TOOL/cJSON.c  **** fail:
 807:TOOL/cJSON.c  ****     if (output != NULL)
 975              		.loc 1 807 5 is_stmt 1 view .LVU297
 976              		.loc 1 807 8 is_stmt 0 view .LVU298
 977 0156 B8F1000F 		cmp	r8, #0
 978 015a 02D0     		beq	.L60
 808:TOOL/cJSON.c  ****     {
 809:TOOL/cJSON.c  ****         input_buffer->hooks.deallocate(output);
 979              		.loc 1 809 9 is_stmt 1 view .LVU299
 980              		.loc 1 809 28 is_stmt 0 view .LVU300
 981 015c 7369     		ldr	r3, [r6, #20]
 982              		.loc 1 809 9 view .LVU301
 983 015e 4046     		mov	r0, r8
 984 0160 9847     		blx	r3
 985              	.LVL102:
 986              	.L60:
 810:TOOL/cJSON.c  ****     }
 811:TOOL/cJSON.c  **** 
 812:TOOL/cJSON.c  ****     if (input_pointer != NULL)
 987              		.loc 1 812 5 is_stmt 1 view .LVU302
 988              		.loc 1 812 8 is_stmt 0 view .LVU303
 989 0162 9DB1     		cbz	r5, .L80
 813:TOOL/cJSON.c  ****     {
 814:TOOL/cJSON.c  ****         input_buffer->offset = (size_t)(input_pointer - input_buffer->content);
 990              		.loc 1 814 9 is_stmt 1 view .LVU304
 991              		.loc 1 814 69 is_stmt 0 view .LVU305
 992 0164 3368     		ldr	r3, [r6]
 993              		.loc 1 814 55 view .LVU306
 994 0166 ED1A     		subs	r5, r5, r3
 995              	.LVL103:
 996              		.loc 1 814 30 view .LVU307
 997 0168 B560     		str	r5, [r6, #8]
 815:TOOL/cJSON.c  ****     }
 816:TOOL/cJSON.c  **** 
 817:TOOL/cJSON.c  ****     return false;
 998              		.loc 1 817 12 view .LVU308
 999 016a 0020     		movs	r0, #0
 1000              	.L59:
 818:TOOL/cJSON.c  **** }
 1001              		.loc 1 818 1 view .LVU309
 1002 016c 02B0     		add	sp, sp, #8
 1003              	.LCFI8:
 1004              		.cfi_remember_state
 1005              		.cfi_def_cfa_offset 24
 1006              		@ sp needed
 1007 016e BDE8F081 		pop	{r4, r5, r6, r7, r8, pc}
ARM GAS  /var/folders/ww/n4ctlbrs3x70633t9y2ks63c0000gn/T//ccTX1xk7.s 			page 35


 1008              	.LVL104:
 1009              	.L82:
 1010              	.LCFI9:
 1011              		.cfi_restore_state
 796:TOOL/cJSON.c  **** 
 1012              		.loc 1 796 5 is_stmt 1 view .LVU310
 796:TOOL/cJSON.c  **** 
 1013              		.loc 1 796 21 is_stmt 0 view .LVU311
 1014 0172 019B     		ldr	r3, [sp, #4]
 1015 0174 0022     		movs	r2, #0
 1016 0176 1A70     		strb	r2, [r3]
 798:TOOL/cJSON.c  ****     item->valuestring = (char*)output;
 1017              		.loc 1 798 5 is_stmt 1 view .LVU312
 798:TOOL/cJSON.c  ****     item->valuestring = (char*)output;
 1018              		.loc 1 798 16 is_stmt 0 view .LVU313
 1019 0178 1023     		movs	r3, #16
 1020 017a FB60     		str	r3, [r7, #12]
 799:TOOL/cJSON.c  **** 
 1021              		.loc 1 799 5 is_stmt 1 view .LVU314
 799:TOOL/cJSON.c  **** 
 1022              		.loc 1 799 23 is_stmt 0 view .LVU315
 1023 017c C7F81080 		str	r8, [r7, #16]
 801:TOOL/cJSON.c  ****     input_buffer->offset++;
 1024              		.loc 1 801 5 is_stmt 1 view .LVU316
 801:TOOL/cJSON.c  ****     input_buffer->offset++;
 1025              		.loc 1 801 62 is_stmt 0 view .LVU317
 1026 0180 3368     		ldr	r3, [r6]
 801:TOOL/cJSON.c  ****     input_buffer->offset++;
 1027              		.loc 1 801 48 view .LVU318
 1028 0182 E31A     		subs	r3, r4, r3
 802:TOOL/cJSON.c  **** 
 1029              		.loc 1 802 5 is_stmt 1 view .LVU319
 802:TOOL/cJSON.c  **** 
 1030              		.loc 1 802 25 is_stmt 0 view .LVU320
 1031 0184 0133     		adds	r3, r3, #1
 1032 0186 B360     		str	r3, [r6, #8]
 804:TOOL/cJSON.c  **** 
 1033              		.loc 1 804 5 is_stmt 1 view .LVU321
 804:TOOL/cJSON.c  **** 
 1034              		.loc 1 804 12 is_stmt 0 view .LVU322
 1035 0188 0120     		movs	r0, #1
 1036 018a EFE7     		b	.L59
 1037              	.LVL105:
 1038              	.L80:
 817:TOOL/cJSON.c  **** }
 1039              		.loc 1 817 12 view .LVU323
 1040 018c 0020     		movs	r0, #0
 1041 018e EDE7     		b	.L59
 1042              		.cfi_endproc
 1043              	.LFE86:
 1045              		.section	.text.buffer_skip_whitespace,"ax",%progbits
 1046              		.align	1
 1047              		.syntax unified
 1048              		.thumb
 1049              		.thumb_func
 1050              		.fpu softvfp
 1052              	buffer_skip_whitespace:
ARM GAS  /var/folders/ww/n4ctlbrs3x70633t9y2ks63c0000gn/T//ccTX1xk7.s 			page 36


 1053              	.LVL106:
 1054              	.LFB89:
 819:TOOL/cJSON.c  **** 
 820:TOOL/cJSON.c  **** /* Render the cstring provided to an escaped version that can be printed. */
 821:TOOL/cJSON.c  **** static cJSON_bool print_string_ptr(const unsigned char * const input, printbuffer * const output_bu
 822:TOOL/cJSON.c  **** {
 823:TOOL/cJSON.c  ****     const unsigned char *input_pointer = NULL;
 824:TOOL/cJSON.c  ****     unsigned char *output = NULL;
 825:TOOL/cJSON.c  ****     unsigned char *output_pointer = NULL;
 826:TOOL/cJSON.c  ****     size_t output_length = 0;
 827:TOOL/cJSON.c  ****     /* numbers of additional characters needed for escaping */
 828:TOOL/cJSON.c  ****     size_t escape_characters = 0;
 829:TOOL/cJSON.c  **** 
 830:TOOL/cJSON.c  ****     if (output_buffer == NULL)
 831:TOOL/cJSON.c  ****     {
 832:TOOL/cJSON.c  ****         return false;
 833:TOOL/cJSON.c  ****     }
 834:TOOL/cJSON.c  **** 
 835:TOOL/cJSON.c  ****     /* empty string */
 836:TOOL/cJSON.c  ****     if (input == NULL)
 837:TOOL/cJSON.c  ****     {
 838:TOOL/cJSON.c  ****         output = ensure(output_buffer, sizeof("\"\""));
 839:TOOL/cJSON.c  ****         if (output == NULL)
 840:TOOL/cJSON.c  ****         {
 841:TOOL/cJSON.c  ****             return false;
 842:TOOL/cJSON.c  ****         }
 843:TOOL/cJSON.c  ****         strcpy((char*)output, "\"\"");
 844:TOOL/cJSON.c  **** 
 845:TOOL/cJSON.c  ****         return true;
 846:TOOL/cJSON.c  ****     }
 847:TOOL/cJSON.c  **** 
 848:TOOL/cJSON.c  ****     /* set "flag" to 1 if something needs to be escaped */
 849:TOOL/cJSON.c  ****     for (input_pointer = input; *input_pointer; input_pointer++)
 850:TOOL/cJSON.c  ****     {
 851:TOOL/cJSON.c  ****         switch (*input_pointer)
 852:TOOL/cJSON.c  ****         {
 853:TOOL/cJSON.c  ****             case '\"':
 854:TOOL/cJSON.c  ****             case '\\':
 855:TOOL/cJSON.c  ****             case '\b':
 856:TOOL/cJSON.c  ****             case '\f':
 857:TOOL/cJSON.c  ****             case '\n':
 858:TOOL/cJSON.c  ****             case '\r':
 859:TOOL/cJSON.c  ****             case '\t':
 860:TOOL/cJSON.c  ****                 /* one character escape sequence */
 861:TOOL/cJSON.c  ****                 escape_characters++;
 862:TOOL/cJSON.c  ****                 break;
 863:TOOL/cJSON.c  ****             default:
 864:TOOL/cJSON.c  ****                 if (*input_pointer < 32)
 865:TOOL/cJSON.c  ****                 {
 866:TOOL/cJSON.c  ****                     /* UTF-16 escape sequence uXXXX */
 867:TOOL/cJSON.c  ****                     escape_characters += 5;
 868:TOOL/cJSON.c  ****                 }
 869:TOOL/cJSON.c  ****                 break;
 870:TOOL/cJSON.c  ****         }
 871:TOOL/cJSON.c  ****     }
 872:TOOL/cJSON.c  ****     output_length = (size_t)(input_pointer - input) + escape_characters;
 873:TOOL/cJSON.c  **** 
ARM GAS  /var/folders/ww/n4ctlbrs3x70633t9y2ks63c0000gn/T//ccTX1xk7.s 			page 37


 874:TOOL/cJSON.c  ****     output = ensure(output_buffer, output_length + sizeof("\"\""));
 875:TOOL/cJSON.c  ****     if (output == NULL)
 876:TOOL/cJSON.c  ****     {
 877:TOOL/cJSON.c  ****         return false;
 878:TOOL/cJSON.c  ****     }
 879:TOOL/cJSON.c  **** 
 880:TOOL/cJSON.c  ****     /* no characters have to be escaped */
 881:TOOL/cJSON.c  ****     if (escape_characters == 0)
 882:TOOL/cJSON.c  ****     {
 883:TOOL/cJSON.c  ****         output[0] = '\"';
 884:TOOL/cJSON.c  ****         memcpy(output + 1, input, output_length);
 885:TOOL/cJSON.c  ****         output[output_length + 1] = '\"';
 886:TOOL/cJSON.c  ****         output[output_length + 2] = '\0';
 887:TOOL/cJSON.c  **** 
 888:TOOL/cJSON.c  ****         return true;
 889:TOOL/cJSON.c  ****     }
 890:TOOL/cJSON.c  **** 
 891:TOOL/cJSON.c  ****     output[0] = '\"';
 892:TOOL/cJSON.c  ****     output_pointer = output + 1;
 893:TOOL/cJSON.c  ****     /* copy the string */
 894:TOOL/cJSON.c  ****     for (input_pointer = input; *input_pointer != '\0'; (void)input_pointer++, output_pointer++)
 895:TOOL/cJSON.c  ****     {
 896:TOOL/cJSON.c  ****         if ((*input_pointer > 31) && (*input_pointer != '\"') && (*input_pointer != '\\'))
 897:TOOL/cJSON.c  ****         {
 898:TOOL/cJSON.c  ****             /* normal character, copy */
 899:TOOL/cJSON.c  ****             *output_pointer = *input_pointer;
 900:TOOL/cJSON.c  ****         }
 901:TOOL/cJSON.c  ****         else
 902:TOOL/cJSON.c  ****         {
 903:TOOL/cJSON.c  ****             /* character needs to be escaped */
 904:TOOL/cJSON.c  ****             *output_pointer++ = '\\';
 905:TOOL/cJSON.c  ****             switch (*input_pointer)
 906:TOOL/cJSON.c  ****             {
 907:TOOL/cJSON.c  ****                 case '\\':
 908:TOOL/cJSON.c  ****                     *output_pointer = '\\';
 909:TOOL/cJSON.c  ****                     break;
 910:TOOL/cJSON.c  ****                 case '\"':
 911:TOOL/cJSON.c  ****                     *output_pointer = '\"';
 912:TOOL/cJSON.c  ****                     break;
 913:TOOL/cJSON.c  ****                 case '\b':
 914:TOOL/cJSON.c  ****                     *output_pointer = 'b';
 915:TOOL/cJSON.c  ****                     break;
 916:TOOL/cJSON.c  ****                 case '\f':
 917:TOOL/cJSON.c  ****                     *output_pointer = 'f';
 918:TOOL/cJSON.c  ****                     break;
 919:TOOL/cJSON.c  ****                 case '\n':
 920:TOOL/cJSON.c  ****                     *output_pointer = 'n';
 921:TOOL/cJSON.c  ****                     break;
 922:TOOL/cJSON.c  ****                 case '\r':
 923:TOOL/cJSON.c  ****                     *output_pointer = 'r';
 924:TOOL/cJSON.c  ****                     break;
 925:TOOL/cJSON.c  ****                 case '\t':
 926:TOOL/cJSON.c  ****                     *output_pointer = 't';
 927:TOOL/cJSON.c  ****                     break;
 928:TOOL/cJSON.c  ****                 default:
 929:TOOL/cJSON.c  ****                     /* escape and print as unicode codepoint */
 930:TOOL/cJSON.c  ****                     sprintf((char*)output_pointer, "u%04x", *input_pointer);
ARM GAS  /var/folders/ww/n4ctlbrs3x70633t9y2ks63c0000gn/T//ccTX1xk7.s 			page 38


 931:TOOL/cJSON.c  ****                     output_pointer += 4;
 932:TOOL/cJSON.c  ****                     break;
 933:TOOL/cJSON.c  ****             }
 934:TOOL/cJSON.c  ****         }
 935:TOOL/cJSON.c  ****     }
 936:TOOL/cJSON.c  ****     output[output_length + 1] = '\"';
 937:TOOL/cJSON.c  ****     output[output_length + 2] = '\0';
 938:TOOL/cJSON.c  **** 
 939:TOOL/cJSON.c  ****     return true;
 940:TOOL/cJSON.c  **** }
 941:TOOL/cJSON.c  **** 
 942:TOOL/cJSON.c  **** /* Invoke print_string_ptr (which is useful) on an item. */
 943:TOOL/cJSON.c  **** static cJSON_bool print_string(const cJSON * const item, printbuffer * const p)
 944:TOOL/cJSON.c  **** {
 945:TOOL/cJSON.c  ****     return print_string_ptr((unsigned char*)item->valuestring, p);
 946:TOOL/cJSON.c  **** }
 947:TOOL/cJSON.c  **** 
 948:TOOL/cJSON.c  **** /* Predeclare these prototypes. */
 949:TOOL/cJSON.c  **** static cJSON_bool parse_value(cJSON * const item, parse_buffer * const input_buffer);
 950:TOOL/cJSON.c  **** static cJSON_bool print_value(const cJSON * const item, printbuffer * const output_buffer);
 951:TOOL/cJSON.c  **** static cJSON_bool parse_array(cJSON * const item, parse_buffer * const input_buffer);
 952:TOOL/cJSON.c  **** static cJSON_bool print_array(const cJSON * const item, printbuffer * const output_buffer);
 953:TOOL/cJSON.c  **** static cJSON_bool parse_object(cJSON * const item, parse_buffer * const input_buffer);
 954:TOOL/cJSON.c  **** static cJSON_bool print_object(const cJSON * const item, printbuffer * const output_buffer);
 955:TOOL/cJSON.c  **** 
 956:TOOL/cJSON.c  **** /* Utility to jump whitespace and cr/lf */
 957:TOOL/cJSON.c  **** static parse_buffer *buffer_skip_whitespace(parse_buffer * const buffer)
 958:TOOL/cJSON.c  **** {
 1055              		.loc 1 958 1 is_stmt 1 view -0
 1056              		.cfi_startproc
 1057              		@ args = 0, pretend = 0, frame = 0
 1058              		@ frame_needed = 0, uses_anonymous_args = 0
 1059              		@ link register save eliminated.
 959:TOOL/cJSON.c  ****     if ((buffer == NULL) || (buffer->content == NULL))
 1060              		.loc 1 959 5 view .LVU325
 1061              		.loc 1 959 8 is_stmt 0 view .LVU326
 1062 0000 0246     		mov	r2, r0
 1063 0002 80B1     		cbz	r0, .L85
 1064              		.loc 1 959 36 discriminator 1 view .LVU327
 1065 0004 0068     		ldr	r0, [r0]
 1066              	.LVL107:
 1067              		.loc 1 959 26 discriminator 1 view .LVU328
 1068 0006 18B9     		cbnz	r0, .L86
 960:TOOL/cJSON.c  ****     {
 961:TOOL/cJSON.c  ****         return NULL;
 1069              		.loc 1 961 16 view .LVU329
 1070 0008 0246     		mov	r2, r0
 1071              	.LVL108:
 1072              		.loc 1 961 16 view .LVU330
 1073 000a 0CE0     		b	.L85
 1074              	.LVL109:
 1075              	.L88:
 962:TOOL/cJSON.c  ****     }
 963:TOOL/cJSON.c  **** 
 964:TOOL/cJSON.c  ****     while (can_access_at_index(buffer, 0) && (buffer_at_offset(buffer)[0] <= 32))
 965:TOOL/cJSON.c  ****     {
 966:TOOL/cJSON.c  ****        buffer->offset++;
ARM GAS  /var/folders/ww/n4ctlbrs3x70633t9y2ks63c0000gn/T//ccTX1xk7.s 			page 39


 1076              		.loc 1 966 8 is_stmt 1 view .LVU331
 1077              		.loc 1 966 22 is_stmt 0 view .LVU332
 1078 000c 0133     		adds	r3, r3, #1
 1079 000e 9360     		str	r3, [r2, #8]
 1080              	.L86:
 964:TOOL/cJSON.c  ****     {
 1081              		.loc 1 964 12 view .LVU333
 1082 0010 9368     		ldr	r3, [r2, #8]
 1083 0012 5168     		ldr	r1, [r2, #4]
 1084 0014 8B42     		cmp	r3, r1
 1085 0016 02D2     		bcs	.L87
 964:TOOL/cJSON.c  ****     {
 1086              		.loc 1 964 71 discriminator 2 view .LVU334
 1087 0018 C15C     		ldrb	r1, [r0, r3]	@ zero_extendqisi2
 964:TOOL/cJSON.c  ****     {
 1088              		.loc 1 964 43 discriminator 2 view .LVU335
 1089 001a 2029     		cmp	r1, #32
 1090 001c F6D9     		bls	.L88
 1091              	.L87:
 967:TOOL/cJSON.c  ****     }
 968:TOOL/cJSON.c  **** 
 969:TOOL/cJSON.c  ****     if (buffer->offset == buffer->length)
 1092              		.loc 1 969 5 is_stmt 1 view .LVU336
 1093              		.loc 1 969 15 is_stmt 0 view .LVU337
 1094 001e 9368     		ldr	r3, [r2, #8]
 1095              		.loc 1 969 33 view .LVU338
 1096 0020 5168     		ldr	r1, [r2, #4]
 1097              		.loc 1 969 8 view .LVU339
 1098 0022 8B42     		cmp	r3, r1
 1099 0024 01D0     		beq	.L90
 1100              	.LVL110:
 1101              	.L85:
 970:TOOL/cJSON.c  ****     {
 971:TOOL/cJSON.c  ****         buffer->offset--;
 972:TOOL/cJSON.c  ****     }
 973:TOOL/cJSON.c  **** 
 974:TOOL/cJSON.c  ****     return buffer;
 975:TOOL/cJSON.c  **** }
 1102              		.loc 1 975 1 view .LVU340
 1103 0026 1046     		mov	r0, r2
 1104 0028 7047     		bx	lr
 1105              	.LVL111:
 1106              	.L90:
 971:TOOL/cJSON.c  ****     }
 1107              		.loc 1 971 9 is_stmt 1 view .LVU341
 971:TOOL/cJSON.c  ****     }
 1108              		.loc 1 971 23 is_stmt 0 view .LVU342
 1109 002a 013B     		subs	r3, r3, #1
 1110 002c 9360     		str	r3, [r2, #8]
 1111 002e FAE7     		b	.L85
 1112              		.cfi_endproc
 1113              	.LFE89:
 1115              		.section	.text.get_array_item,"ax",%progbits
 1116              		.align	1
 1117              		.syntax unified
 1118              		.thumb
 1119              		.thumb_func
ARM GAS  /var/folders/ww/n4ctlbrs3x70633t9y2ks63c0000gn/T//ccTX1xk7.s 			page 40


 1120              		.fpu softvfp
 1122              	get_array_item:
 1123              	.LVL112:
 1124              	.LFB105:
 976:TOOL/cJSON.c  **** 
 977:TOOL/cJSON.c  **** /* skip the UTF-8 BOM (byte order mark) if it is at the beginning of a buffer */
 978:TOOL/cJSON.c  **** static parse_buffer *skip_utf8_bom(parse_buffer * const buffer)
 979:TOOL/cJSON.c  **** {
 980:TOOL/cJSON.c  ****     if ((buffer == NULL) || (buffer->content == NULL) || (buffer->offset != 0))
 981:TOOL/cJSON.c  ****     {
 982:TOOL/cJSON.c  ****         return NULL;
 983:TOOL/cJSON.c  ****     }
 984:TOOL/cJSON.c  **** 
 985:TOOL/cJSON.c  ****     if (can_access_at_index(buffer, 4) && (strncmp((const char*)buffer_at_offset(buffer), "\xEF\xBB
 986:TOOL/cJSON.c  ****     {
 987:TOOL/cJSON.c  ****         buffer->offset += 3;
 988:TOOL/cJSON.c  ****     }
 989:TOOL/cJSON.c  **** 
 990:TOOL/cJSON.c  ****     return buffer;
 991:TOOL/cJSON.c  **** }
 992:TOOL/cJSON.c  **** 
 993:TOOL/cJSON.c  **** /* Parse an object - create a new root, and populate. */
 994:TOOL/cJSON.c  **** CJSON_PUBLIC(cJSON *) cJSON_ParseWithOpts(const char *value, const char **return_parse_end, cJSON_b
 995:TOOL/cJSON.c  **** {
 996:TOOL/cJSON.c  ****     parse_buffer buffer = { 0, 0, 0, 0, { 0, 0, 0 } };
 997:TOOL/cJSON.c  ****     cJSON *item = NULL;
 998:TOOL/cJSON.c  **** 
 999:TOOL/cJSON.c  ****     /* reset error position */
1000:TOOL/cJSON.c  ****     global_error.json = NULL;
1001:TOOL/cJSON.c  ****     global_error.position = 0;
1002:TOOL/cJSON.c  **** 
1003:TOOL/cJSON.c  ****     if (value == NULL)
1004:TOOL/cJSON.c  ****     {
1005:TOOL/cJSON.c  ****         goto fail;
1006:TOOL/cJSON.c  ****     }
1007:TOOL/cJSON.c  **** 
1008:TOOL/cJSON.c  ****     buffer.content = (const unsigned char*)value;
1009:TOOL/cJSON.c  ****     buffer.length = strlen((const char*)value) + sizeof("");
1010:TOOL/cJSON.c  ****     buffer.offset = 0;
1011:TOOL/cJSON.c  ****     buffer.hooks = global_hooks;
1012:TOOL/cJSON.c  **** 
1013:TOOL/cJSON.c  ****     item = cJSON_New_Item(&global_hooks);
1014:TOOL/cJSON.c  ****     if (item == NULL) /* memory fail */
1015:TOOL/cJSON.c  ****     {
1016:TOOL/cJSON.c  ****         goto fail;
1017:TOOL/cJSON.c  ****     }
1018:TOOL/cJSON.c  **** 
1019:TOOL/cJSON.c  ****     if (!parse_value(item, buffer_skip_whitespace(skip_utf8_bom(&buffer))))
1020:TOOL/cJSON.c  ****     {
1021:TOOL/cJSON.c  ****         /* parse failure. ep is set. */
1022:TOOL/cJSON.c  ****         goto fail;
1023:TOOL/cJSON.c  ****     }
1024:TOOL/cJSON.c  **** 
1025:TOOL/cJSON.c  ****     /* if we require null-terminated JSON without appended garbage, skip and then check for a null 
1026:TOOL/cJSON.c  ****     if (require_null_terminated)
1027:TOOL/cJSON.c  ****     {
1028:TOOL/cJSON.c  ****         buffer_skip_whitespace(&buffer);
ARM GAS  /var/folders/ww/n4ctlbrs3x70633t9y2ks63c0000gn/T//ccTX1xk7.s 			page 41


1029:TOOL/cJSON.c  ****         if ((buffer.offset >= buffer.length) || buffer_at_offset(&buffer)[0] != '\0')
1030:TOOL/cJSON.c  ****         {
1031:TOOL/cJSON.c  ****             goto fail;
1032:TOOL/cJSON.c  ****         }
1033:TOOL/cJSON.c  ****     }
1034:TOOL/cJSON.c  ****     if (return_parse_end)
1035:TOOL/cJSON.c  ****     {
1036:TOOL/cJSON.c  ****         *return_parse_end = (const char*)buffer_at_offset(&buffer);
1037:TOOL/cJSON.c  ****     }
1038:TOOL/cJSON.c  **** 
1039:TOOL/cJSON.c  ****     return item;
1040:TOOL/cJSON.c  **** 
1041:TOOL/cJSON.c  **** fail:
1042:TOOL/cJSON.c  ****     if (item != NULL)
1043:TOOL/cJSON.c  ****     {
1044:TOOL/cJSON.c  ****         cJSON_Delete(item);
1045:TOOL/cJSON.c  ****     }
1046:TOOL/cJSON.c  **** 
1047:TOOL/cJSON.c  ****     if (value != NULL)
1048:TOOL/cJSON.c  ****     {
1049:TOOL/cJSON.c  ****         error local_error;
1050:TOOL/cJSON.c  ****         local_error.json = (const unsigned char*)value;
1051:TOOL/cJSON.c  ****         local_error.position = 0;
1052:TOOL/cJSON.c  **** 
1053:TOOL/cJSON.c  ****         if (buffer.offset < buffer.length)
1054:TOOL/cJSON.c  ****         {
1055:TOOL/cJSON.c  ****             local_error.position = buffer.offset;
1056:TOOL/cJSON.c  ****         }
1057:TOOL/cJSON.c  ****         else if (buffer.length > 0)
1058:TOOL/cJSON.c  ****         {
1059:TOOL/cJSON.c  ****             local_error.position = buffer.length - 1;
1060:TOOL/cJSON.c  ****         }
1061:TOOL/cJSON.c  **** 
1062:TOOL/cJSON.c  ****         if (return_parse_end != NULL)
1063:TOOL/cJSON.c  ****         {
1064:TOOL/cJSON.c  ****             *return_parse_end = (const char*)local_error.json + local_error.position;
1065:TOOL/cJSON.c  ****         }
1066:TOOL/cJSON.c  **** 
1067:TOOL/cJSON.c  ****         global_error = local_error;
1068:TOOL/cJSON.c  ****     }
1069:TOOL/cJSON.c  **** 
1070:TOOL/cJSON.c  ****     return NULL;
1071:TOOL/cJSON.c  **** }
1072:TOOL/cJSON.c  **** 
1073:TOOL/cJSON.c  **** /* Default options for cJSON_Parse */
1074:TOOL/cJSON.c  **** CJSON_PUBLIC(cJSON *) cJSON_Parse(const char *value)
1075:TOOL/cJSON.c  **** {
1076:TOOL/cJSON.c  ****     return cJSON_ParseWithOpts(value, 0, 0);
1077:TOOL/cJSON.c  **** }
1078:TOOL/cJSON.c  **** 
1079:TOOL/cJSON.c  **** #define cjson_min(a, b) ((a < b) ? a : b)
1080:TOOL/cJSON.c  **** 
1081:TOOL/cJSON.c  **** static unsigned char *print(const cJSON * const item, cJSON_bool format, const internal_hooks * con
1082:TOOL/cJSON.c  **** {
1083:TOOL/cJSON.c  ****     printbuffer buffer[1];
1084:TOOL/cJSON.c  ****     unsigned char *printed = NULL;
1085:TOOL/cJSON.c  **** 
ARM GAS  /var/folders/ww/n4ctlbrs3x70633t9y2ks63c0000gn/T//ccTX1xk7.s 			page 42


1086:TOOL/cJSON.c  ****     memset(buffer, 0, sizeof(buffer));
1087:TOOL/cJSON.c  **** 
1088:TOOL/cJSON.c  ****     /* create buffer */
1089:TOOL/cJSON.c  ****     buffer->buffer = (unsigned char*) hooks->allocate(256);
1090:TOOL/cJSON.c  ****     buffer->format = format;
1091:TOOL/cJSON.c  ****     buffer->hooks = *hooks;
1092:TOOL/cJSON.c  ****     if (buffer->buffer == NULL)
1093:TOOL/cJSON.c  ****     {
1094:TOOL/cJSON.c  ****         goto fail;
1095:TOOL/cJSON.c  ****     }
1096:TOOL/cJSON.c  **** 
1097:TOOL/cJSON.c  ****     /* print the value */
1098:TOOL/cJSON.c  ****     if (!print_value(item, buffer))
1099:TOOL/cJSON.c  ****     {
1100:TOOL/cJSON.c  ****         goto fail;
1101:TOOL/cJSON.c  ****     }
1102:TOOL/cJSON.c  ****     update_offset(buffer);
1103:TOOL/cJSON.c  **** 
1104:TOOL/cJSON.c  ****     /* check if reallocate is available */
1105:TOOL/cJSON.c  ****     if (hooks->reallocate != NULL)
1106:TOOL/cJSON.c  ****     {
1107:TOOL/cJSON.c  ****         printed = (unsigned char*) hooks->reallocate(buffer->buffer, buffer->length);
1108:TOOL/cJSON.c  ****         buffer->buffer = NULL;
1109:TOOL/cJSON.c  ****         if (printed == NULL) {
1110:TOOL/cJSON.c  ****             goto fail;
1111:TOOL/cJSON.c  ****         }
1112:TOOL/cJSON.c  ****     }
1113:TOOL/cJSON.c  ****     else /* otherwise copy the JSON over to a new buffer */
1114:TOOL/cJSON.c  ****     {
1115:TOOL/cJSON.c  ****         printed = (unsigned char*) hooks->allocate(buffer->offset + 1);
1116:TOOL/cJSON.c  ****         if (printed == NULL)
1117:TOOL/cJSON.c  ****         {
1118:TOOL/cJSON.c  ****             goto fail;
1119:TOOL/cJSON.c  ****         }
1120:TOOL/cJSON.c  ****         memcpy(printed, buffer->buffer, cjson_min(buffer->length, buffer->offset + 1));
1121:TOOL/cJSON.c  ****         printed[buffer->offset] = '\0'; /* just to be sure */
1122:TOOL/cJSON.c  **** 
1123:TOOL/cJSON.c  ****         /* free the buffer */
1124:TOOL/cJSON.c  ****         hooks->deallocate(buffer->buffer);
1125:TOOL/cJSON.c  ****     }
1126:TOOL/cJSON.c  **** 
1127:TOOL/cJSON.c  ****     return printed;
1128:TOOL/cJSON.c  **** 
1129:TOOL/cJSON.c  **** fail:
1130:TOOL/cJSON.c  ****     if (buffer->buffer != NULL)
1131:TOOL/cJSON.c  ****     {
1132:TOOL/cJSON.c  ****         hooks->deallocate(buffer->buffer);
1133:TOOL/cJSON.c  ****     }
1134:TOOL/cJSON.c  **** 
1135:TOOL/cJSON.c  ****     if (printed != NULL)
1136:TOOL/cJSON.c  ****     {
1137:TOOL/cJSON.c  ****         hooks->deallocate(printed);
1138:TOOL/cJSON.c  ****     }
1139:TOOL/cJSON.c  **** 
1140:TOOL/cJSON.c  ****     return NULL;
1141:TOOL/cJSON.c  **** }
1142:TOOL/cJSON.c  **** 
ARM GAS  /var/folders/ww/n4ctlbrs3x70633t9y2ks63c0000gn/T//ccTX1xk7.s 			page 43


1143:TOOL/cJSON.c  **** /* Render a cJSON item/entity/structure to text. */
1144:TOOL/cJSON.c  **** CJSON_PUBLIC(char *) cJSON_Print(const cJSON *item)
1145:TOOL/cJSON.c  **** {
1146:TOOL/cJSON.c  ****     return (char*)print(item, true, &global_hooks);
1147:TOOL/cJSON.c  **** }
1148:TOOL/cJSON.c  **** 
1149:TOOL/cJSON.c  **** CJSON_PUBLIC(char *) cJSON_PrintUnformatted(const cJSON *item)
1150:TOOL/cJSON.c  **** {
1151:TOOL/cJSON.c  ****     return (char*)print(item, false, &global_hooks);
1152:TOOL/cJSON.c  **** }
1153:TOOL/cJSON.c  **** 
1154:TOOL/cJSON.c  **** CJSON_PUBLIC(char *) cJSON_PrintBuffered(const cJSON *item, int prebuffer, cJSON_bool fmt)
1155:TOOL/cJSON.c  **** {
1156:TOOL/cJSON.c  ****     printbuffer p = { 0, 0, 0, 0, 0, 0, { 0, 0, 0 } };
1157:TOOL/cJSON.c  **** 
1158:TOOL/cJSON.c  ****     if (prebuffer < 0)
1159:TOOL/cJSON.c  ****     {
1160:TOOL/cJSON.c  ****         return NULL;
1161:TOOL/cJSON.c  ****     }
1162:TOOL/cJSON.c  **** 
1163:TOOL/cJSON.c  ****     p.buffer = (unsigned char*)global_hooks.allocate((size_t)prebuffer);
1164:TOOL/cJSON.c  ****     if (!p.buffer)
1165:TOOL/cJSON.c  ****     {
1166:TOOL/cJSON.c  ****         return NULL;
1167:TOOL/cJSON.c  ****     }
1168:TOOL/cJSON.c  **** 
1169:TOOL/cJSON.c  ****     p.length = (size_t)prebuffer;
1170:TOOL/cJSON.c  ****     p.offset = 0;
1171:TOOL/cJSON.c  ****     p.noalloc = false;
1172:TOOL/cJSON.c  ****     p.format = fmt;
1173:TOOL/cJSON.c  ****     p.hooks = global_hooks;
1174:TOOL/cJSON.c  **** 
1175:TOOL/cJSON.c  ****     if (!print_value(item, &p))
1176:TOOL/cJSON.c  ****     {
1177:TOOL/cJSON.c  ****         global_hooks.deallocate(p.buffer);
1178:TOOL/cJSON.c  ****         return NULL;
1179:TOOL/cJSON.c  ****     }
1180:TOOL/cJSON.c  **** 
1181:TOOL/cJSON.c  ****     return (char*)p.buffer;
1182:TOOL/cJSON.c  **** }
1183:TOOL/cJSON.c  **** 
1184:TOOL/cJSON.c  **** CJSON_PUBLIC(cJSON_bool) cJSON_PrintPreallocated(cJSON *item, char *buf, const int len, const cJSON
1185:TOOL/cJSON.c  **** {
1186:TOOL/cJSON.c  ****     printbuffer p = { 0, 0, 0, 0, 0, 0, { 0, 0, 0 } };
1187:TOOL/cJSON.c  **** 
1188:TOOL/cJSON.c  ****     if ((len < 0) || (buf == NULL))
1189:TOOL/cJSON.c  ****     {
1190:TOOL/cJSON.c  ****         return false;
1191:TOOL/cJSON.c  ****     }
1192:TOOL/cJSON.c  **** 
1193:TOOL/cJSON.c  ****     p.buffer = (unsigned char*)buf;
1194:TOOL/cJSON.c  ****     p.length = (size_t)len;
1195:TOOL/cJSON.c  ****     p.offset = 0;
1196:TOOL/cJSON.c  ****     p.noalloc = true;
1197:TOOL/cJSON.c  ****     p.format = fmt;
1198:TOOL/cJSON.c  ****     p.hooks = global_hooks;
1199:TOOL/cJSON.c  **** 
ARM GAS  /var/folders/ww/n4ctlbrs3x70633t9y2ks63c0000gn/T//ccTX1xk7.s 			page 44


1200:TOOL/cJSON.c  ****     return print_value(item, &p);
1201:TOOL/cJSON.c  **** }
1202:TOOL/cJSON.c  **** 
1203:TOOL/cJSON.c  **** /* Parser core - when encountering text, process appropriately. */
1204:TOOL/cJSON.c  **** static cJSON_bool parse_value(cJSON * const item, parse_buffer * const input_buffer)
1205:TOOL/cJSON.c  **** {
1206:TOOL/cJSON.c  ****     if ((input_buffer == NULL) || (input_buffer->content == NULL))
1207:TOOL/cJSON.c  ****     {
1208:TOOL/cJSON.c  ****         return false; /* no input */
1209:TOOL/cJSON.c  ****     }
1210:TOOL/cJSON.c  **** 
1211:TOOL/cJSON.c  ****     /* parse the different types of values */
1212:TOOL/cJSON.c  ****     /* null */
1213:TOOL/cJSON.c  ****     if (can_read(input_buffer, 4) && (strncmp((const char*)buffer_at_offset(input_buffer), "null", 
1214:TOOL/cJSON.c  ****     {
1215:TOOL/cJSON.c  ****         item->type = cJSON_NULL;
1216:TOOL/cJSON.c  ****         input_buffer->offset += 4;
1217:TOOL/cJSON.c  ****         return true;
1218:TOOL/cJSON.c  ****     }
1219:TOOL/cJSON.c  ****     /* false */
1220:TOOL/cJSON.c  ****     if (can_read(input_buffer, 5) && (strncmp((const char*)buffer_at_offset(input_buffer), "false",
1221:TOOL/cJSON.c  ****     {
1222:TOOL/cJSON.c  ****         item->type = cJSON_False;
1223:TOOL/cJSON.c  ****         input_buffer->offset += 5;
1224:TOOL/cJSON.c  ****         return true;
1225:TOOL/cJSON.c  ****     }
1226:TOOL/cJSON.c  ****     /* true */
1227:TOOL/cJSON.c  ****     if (can_read(input_buffer, 4) && (strncmp((const char*)buffer_at_offset(input_buffer), "true", 
1228:TOOL/cJSON.c  ****     {
1229:TOOL/cJSON.c  ****         item->type = cJSON_True;
1230:TOOL/cJSON.c  ****         item->valueint = 1;
1231:TOOL/cJSON.c  ****         input_buffer->offset += 4;
1232:TOOL/cJSON.c  ****         return true;
1233:TOOL/cJSON.c  ****     }
1234:TOOL/cJSON.c  ****     /* string */
1235:TOOL/cJSON.c  ****     if (can_access_at_index(input_buffer, 0) && (buffer_at_offset(input_buffer)[0] == '\"'))
1236:TOOL/cJSON.c  ****     {
1237:TOOL/cJSON.c  ****         return parse_string(item, input_buffer);
1238:TOOL/cJSON.c  ****     }
1239:TOOL/cJSON.c  ****     /* number */
1240:TOOL/cJSON.c  ****     if (can_access_at_index(input_buffer, 0) && ((buffer_at_offset(input_buffer)[0] == '-') || ((bu
1241:TOOL/cJSON.c  ****     {
1242:TOOL/cJSON.c  ****         return parse_number(item, input_buffer);
1243:TOOL/cJSON.c  ****     }
1244:TOOL/cJSON.c  ****     /* array */
1245:TOOL/cJSON.c  ****     if (can_access_at_index(input_buffer, 0) && (buffer_at_offset(input_buffer)[0] == '['))
1246:TOOL/cJSON.c  ****     {
1247:TOOL/cJSON.c  ****         return parse_array(item, input_buffer);
1248:TOOL/cJSON.c  ****     }
1249:TOOL/cJSON.c  ****     /* object */
1250:TOOL/cJSON.c  ****     if (can_access_at_index(input_buffer, 0) && (buffer_at_offset(input_buffer)[0] == '{'))
1251:TOOL/cJSON.c  ****     {
1252:TOOL/cJSON.c  ****         return parse_object(item, input_buffer);
1253:TOOL/cJSON.c  ****     }
1254:TOOL/cJSON.c  **** 
1255:TOOL/cJSON.c  ****     return false;
1256:TOOL/cJSON.c  **** }
ARM GAS  /var/folders/ww/n4ctlbrs3x70633t9y2ks63c0000gn/T//ccTX1xk7.s 			page 45


1257:TOOL/cJSON.c  **** 
1258:TOOL/cJSON.c  **** /* Render a value to text. */
1259:TOOL/cJSON.c  **** static cJSON_bool print_value(const cJSON * const item, printbuffer * const output_buffer)
1260:TOOL/cJSON.c  **** {
1261:TOOL/cJSON.c  ****     unsigned char *output = NULL;
1262:TOOL/cJSON.c  **** 
1263:TOOL/cJSON.c  ****     if ((item == NULL) || (output_buffer == NULL))
1264:TOOL/cJSON.c  ****     {
1265:TOOL/cJSON.c  ****         return false;
1266:TOOL/cJSON.c  ****     }
1267:TOOL/cJSON.c  **** 
1268:TOOL/cJSON.c  ****     switch ((item->type) & 0xFF)
1269:TOOL/cJSON.c  ****     {
1270:TOOL/cJSON.c  ****         case cJSON_NULL:
1271:TOOL/cJSON.c  ****             output = ensure(output_buffer, 5);
1272:TOOL/cJSON.c  ****             if (output == NULL)
1273:TOOL/cJSON.c  ****             {
1274:TOOL/cJSON.c  ****                 return false;
1275:TOOL/cJSON.c  ****             }
1276:TOOL/cJSON.c  ****             strcpy((char*)output, "null");
1277:TOOL/cJSON.c  ****             return true;
1278:TOOL/cJSON.c  **** 
1279:TOOL/cJSON.c  ****         case cJSON_False:
1280:TOOL/cJSON.c  ****             output = ensure(output_buffer, 6);
1281:TOOL/cJSON.c  ****             if (output == NULL)
1282:TOOL/cJSON.c  ****             {
1283:TOOL/cJSON.c  ****                 return false;
1284:TOOL/cJSON.c  ****             }
1285:TOOL/cJSON.c  ****             strcpy((char*)output, "false");
1286:TOOL/cJSON.c  ****             return true;
1287:TOOL/cJSON.c  **** 
1288:TOOL/cJSON.c  ****         case cJSON_True:
1289:TOOL/cJSON.c  ****             output = ensure(output_buffer, 5);
1290:TOOL/cJSON.c  ****             if (output == NULL)
1291:TOOL/cJSON.c  ****             {
1292:TOOL/cJSON.c  ****                 return false;
1293:TOOL/cJSON.c  ****             }
1294:TOOL/cJSON.c  ****             strcpy((char*)output, "true");
1295:TOOL/cJSON.c  ****             return true;
1296:TOOL/cJSON.c  **** 
1297:TOOL/cJSON.c  ****         case cJSON_Number:
1298:TOOL/cJSON.c  ****             return print_number(item, output_buffer);
1299:TOOL/cJSON.c  **** 
1300:TOOL/cJSON.c  ****         case cJSON_Raw:
1301:TOOL/cJSON.c  ****         {
1302:TOOL/cJSON.c  ****             size_t raw_length = 0;
1303:TOOL/cJSON.c  ****             if (item->valuestring == NULL)
1304:TOOL/cJSON.c  ****             {
1305:TOOL/cJSON.c  ****                 if (!output_buffer->noalloc)
1306:TOOL/cJSON.c  ****                 {
1307:TOOL/cJSON.c  ****                     output_buffer->hooks.deallocate(output_buffer->buffer);
1308:TOOL/cJSON.c  ****                 }
1309:TOOL/cJSON.c  ****                 return false;
1310:TOOL/cJSON.c  ****             }
1311:TOOL/cJSON.c  **** 
1312:TOOL/cJSON.c  ****             raw_length = strlen(item->valuestring) + sizeof("");
1313:TOOL/cJSON.c  ****             output = ensure(output_buffer, raw_length);
ARM GAS  /var/folders/ww/n4ctlbrs3x70633t9y2ks63c0000gn/T//ccTX1xk7.s 			page 46


1314:TOOL/cJSON.c  ****             if (output == NULL)
1315:TOOL/cJSON.c  ****             {
1316:TOOL/cJSON.c  ****                 return false;
1317:TOOL/cJSON.c  ****             }
1318:TOOL/cJSON.c  ****             memcpy(output, item->valuestring, raw_length);
1319:TOOL/cJSON.c  ****             return true;
1320:TOOL/cJSON.c  ****         }
1321:TOOL/cJSON.c  **** 
1322:TOOL/cJSON.c  ****         case cJSON_String:
1323:TOOL/cJSON.c  ****             return print_string(item, output_buffer);
1324:TOOL/cJSON.c  **** 
1325:TOOL/cJSON.c  ****         case cJSON_Array:
1326:TOOL/cJSON.c  ****             return print_array(item, output_buffer);
1327:TOOL/cJSON.c  **** 
1328:TOOL/cJSON.c  ****         case cJSON_Object:
1329:TOOL/cJSON.c  ****             return print_object(item, output_buffer);
1330:TOOL/cJSON.c  **** 
1331:TOOL/cJSON.c  ****         default:
1332:TOOL/cJSON.c  ****             return false;
1333:TOOL/cJSON.c  ****     }
1334:TOOL/cJSON.c  **** }
1335:TOOL/cJSON.c  **** 
1336:TOOL/cJSON.c  **** /* Build an array from input text. */
1337:TOOL/cJSON.c  **** static cJSON_bool parse_array(cJSON * const item, parse_buffer * const input_buffer)
1338:TOOL/cJSON.c  **** {
1339:TOOL/cJSON.c  ****     cJSON *head = NULL; /* head of the linked list */
1340:TOOL/cJSON.c  ****     cJSON *current_item = NULL;
1341:TOOL/cJSON.c  **** 
1342:TOOL/cJSON.c  ****     if (input_buffer->depth >= CJSON_NESTING_LIMIT)
1343:TOOL/cJSON.c  ****     {
1344:TOOL/cJSON.c  ****         return false; /* to deeply nested */
1345:TOOL/cJSON.c  ****     }
1346:TOOL/cJSON.c  ****     input_buffer->depth++;
1347:TOOL/cJSON.c  **** 
1348:TOOL/cJSON.c  ****     if (buffer_at_offset(input_buffer)[0] != '[')
1349:TOOL/cJSON.c  ****     {
1350:TOOL/cJSON.c  ****         /* not an array */
1351:TOOL/cJSON.c  ****         goto fail;
1352:TOOL/cJSON.c  ****     }
1353:TOOL/cJSON.c  **** 
1354:TOOL/cJSON.c  ****     input_buffer->offset++;
1355:TOOL/cJSON.c  ****     buffer_skip_whitespace(input_buffer);
1356:TOOL/cJSON.c  ****     if (can_access_at_index(input_buffer, 0) && (buffer_at_offset(input_buffer)[0] == ']'))
1357:TOOL/cJSON.c  ****     {
1358:TOOL/cJSON.c  ****         /* empty array */
1359:TOOL/cJSON.c  ****         goto success;
1360:TOOL/cJSON.c  ****     }
1361:TOOL/cJSON.c  **** 
1362:TOOL/cJSON.c  ****     /* check if we skipped to the end of the buffer */
1363:TOOL/cJSON.c  ****     if (cannot_access_at_index(input_buffer, 0))
1364:TOOL/cJSON.c  ****     {
1365:TOOL/cJSON.c  ****         input_buffer->offset--;
1366:TOOL/cJSON.c  ****         goto fail;
1367:TOOL/cJSON.c  ****     }
1368:TOOL/cJSON.c  **** 
1369:TOOL/cJSON.c  ****     /* step back to character in front of the first element */
1370:TOOL/cJSON.c  ****     input_buffer->offset--;
ARM GAS  /var/folders/ww/n4ctlbrs3x70633t9y2ks63c0000gn/T//ccTX1xk7.s 			page 47


1371:TOOL/cJSON.c  ****     /* loop through the comma separated array elements */
1372:TOOL/cJSON.c  ****     do
1373:TOOL/cJSON.c  ****     {
1374:TOOL/cJSON.c  ****         /* allocate next item */
1375:TOOL/cJSON.c  ****         cJSON *new_item = cJSON_New_Item(&(input_buffer->hooks));
1376:TOOL/cJSON.c  ****         if (new_item == NULL)
1377:TOOL/cJSON.c  ****         {
1378:TOOL/cJSON.c  ****             goto fail; /* allocation failure */
1379:TOOL/cJSON.c  ****         }
1380:TOOL/cJSON.c  **** 
1381:TOOL/cJSON.c  ****         /* attach next item to list */
1382:TOOL/cJSON.c  ****         if (head == NULL)
1383:TOOL/cJSON.c  ****         {
1384:TOOL/cJSON.c  ****             /* start the linked list */
1385:TOOL/cJSON.c  ****             current_item = head = new_item;
1386:TOOL/cJSON.c  ****         }
1387:TOOL/cJSON.c  ****         else
1388:TOOL/cJSON.c  ****         {
1389:TOOL/cJSON.c  ****             /* add to the end and advance */
1390:TOOL/cJSON.c  ****             current_item->next = new_item;
1391:TOOL/cJSON.c  ****             new_item->prev = current_item;
1392:TOOL/cJSON.c  ****             current_item = new_item;
1393:TOOL/cJSON.c  ****         }
1394:TOOL/cJSON.c  **** 
1395:TOOL/cJSON.c  ****         /* parse next value */
1396:TOOL/cJSON.c  ****         input_buffer->offset++;
1397:TOOL/cJSON.c  ****         buffer_skip_whitespace(input_buffer);
1398:TOOL/cJSON.c  ****         if (!parse_value(current_item, input_buffer))
1399:TOOL/cJSON.c  ****         {
1400:TOOL/cJSON.c  ****             goto fail; /* failed to parse value */
1401:TOOL/cJSON.c  ****         }
1402:TOOL/cJSON.c  ****         buffer_skip_whitespace(input_buffer);
1403:TOOL/cJSON.c  ****     }
1404:TOOL/cJSON.c  ****     while (can_access_at_index(input_buffer, 0) && (buffer_at_offset(input_buffer)[0] == ','));
1405:TOOL/cJSON.c  **** 
1406:TOOL/cJSON.c  ****     if (cannot_access_at_index(input_buffer, 0) || buffer_at_offset(input_buffer)[0] != ']')
1407:TOOL/cJSON.c  ****     {
1408:TOOL/cJSON.c  ****         goto fail; /* expected end of array */
1409:TOOL/cJSON.c  ****     }
1410:TOOL/cJSON.c  **** 
1411:TOOL/cJSON.c  **** success:
1412:TOOL/cJSON.c  ****     input_buffer->depth--;
1413:TOOL/cJSON.c  **** 
1414:TOOL/cJSON.c  ****     item->type = cJSON_Array;
1415:TOOL/cJSON.c  ****     item->child = head;
1416:TOOL/cJSON.c  **** 
1417:TOOL/cJSON.c  ****     input_buffer->offset++;
1418:TOOL/cJSON.c  **** 
1419:TOOL/cJSON.c  ****     return true;
1420:TOOL/cJSON.c  **** 
1421:TOOL/cJSON.c  **** fail:
1422:TOOL/cJSON.c  ****     if (head != NULL)
1423:TOOL/cJSON.c  ****     {
1424:TOOL/cJSON.c  ****         cJSON_Delete(head);
1425:TOOL/cJSON.c  ****     }
1426:TOOL/cJSON.c  **** 
1427:TOOL/cJSON.c  ****     return false;
ARM GAS  /var/folders/ww/n4ctlbrs3x70633t9y2ks63c0000gn/T//ccTX1xk7.s 			page 48


1428:TOOL/cJSON.c  **** }
1429:TOOL/cJSON.c  **** 
1430:TOOL/cJSON.c  **** /* Render an array to text */
1431:TOOL/cJSON.c  **** static cJSON_bool print_array(const cJSON * const item, printbuffer * const output_buffer)
1432:TOOL/cJSON.c  **** {
1433:TOOL/cJSON.c  ****     unsigned char *output_pointer = NULL;
1434:TOOL/cJSON.c  ****     size_t length = 0;
1435:TOOL/cJSON.c  ****     cJSON *current_element = item->child;
1436:TOOL/cJSON.c  **** 
1437:TOOL/cJSON.c  ****     if (output_buffer == NULL)
1438:TOOL/cJSON.c  ****     {
1439:TOOL/cJSON.c  ****         return false;
1440:TOOL/cJSON.c  ****     }
1441:TOOL/cJSON.c  **** 
1442:TOOL/cJSON.c  ****     /* Compose the output array. */
1443:TOOL/cJSON.c  ****     /* opening square bracket */
1444:TOOL/cJSON.c  ****     output_pointer = ensure(output_buffer, 1);
1445:TOOL/cJSON.c  ****     if (output_pointer == NULL)
1446:TOOL/cJSON.c  ****     {
1447:TOOL/cJSON.c  ****         return false;
1448:TOOL/cJSON.c  ****     }
1449:TOOL/cJSON.c  **** 
1450:TOOL/cJSON.c  ****     *output_pointer = '[';
1451:TOOL/cJSON.c  ****     output_buffer->offset++;
1452:TOOL/cJSON.c  ****     output_buffer->depth++;
1453:TOOL/cJSON.c  **** 
1454:TOOL/cJSON.c  ****     while (current_element != NULL)
1455:TOOL/cJSON.c  ****     {
1456:TOOL/cJSON.c  ****         if (!print_value(current_element, output_buffer))
1457:TOOL/cJSON.c  ****         {
1458:TOOL/cJSON.c  ****             return false;
1459:TOOL/cJSON.c  ****         }
1460:TOOL/cJSON.c  ****         update_offset(output_buffer);
1461:TOOL/cJSON.c  ****         if (current_element->next)
1462:TOOL/cJSON.c  ****         {
1463:TOOL/cJSON.c  ****             length = (size_t) (output_buffer->format ? 2 : 1);
1464:TOOL/cJSON.c  ****             output_pointer = ensure(output_buffer, length + 1);
1465:TOOL/cJSON.c  ****             if (output_pointer == NULL)
1466:TOOL/cJSON.c  ****             {
1467:TOOL/cJSON.c  ****                 return false;
1468:TOOL/cJSON.c  ****             }
1469:TOOL/cJSON.c  ****             *output_pointer++ = ',';
1470:TOOL/cJSON.c  ****             if(output_buffer->format)
1471:TOOL/cJSON.c  ****             {
1472:TOOL/cJSON.c  ****                 *output_pointer++ = ' ';
1473:TOOL/cJSON.c  ****             }
1474:TOOL/cJSON.c  ****             *output_pointer = '\0';
1475:TOOL/cJSON.c  ****             output_buffer->offset += length;
1476:TOOL/cJSON.c  ****         }
1477:TOOL/cJSON.c  ****         current_element = current_element->next;
1478:TOOL/cJSON.c  ****     }
1479:TOOL/cJSON.c  **** 
1480:TOOL/cJSON.c  ****     output_pointer = ensure(output_buffer, 2);
1481:TOOL/cJSON.c  ****     if (output_pointer == NULL)
1482:TOOL/cJSON.c  ****     {
1483:TOOL/cJSON.c  ****         return false;
1484:TOOL/cJSON.c  ****     }
ARM GAS  /var/folders/ww/n4ctlbrs3x70633t9y2ks63c0000gn/T//ccTX1xk7.s 			page 49


1485:TOOL/cJSON.c  ****     *output_pointer++ = ']';
1486:TOOL/cJSON.c  ****     *output_pointer = '\0';
1487:TOOL/cJSON.c  ****     output_buffer->depth--;
1488:TOOL/cJSON.c  **** 
1489:TOOL/cJSON.c  ****     return true;
1490:TOOL/cJSON.c  **** }
1491:TOOL/cJSON.c  **** 
1492:TOOL/cJSON.c  **** /* Build an object from the text. */
1493:TOOL/cJSON.c  **** static cJSON_bool parse_object(cJSON * const item, parse_buffer * const input_buffer)
1494:TOOL/cJSON.c  **** {
1495:TOOL/cJSON.c  ****     cJSON *head = NULL; /* linked list head */
1496:TOOL/cJSON.c  ****     cJSON *current_item = NULL;
1497:TOOL/cJSON.c  **** 
1498:TOOL/cJSON.c  ****     if (input_buffer->depth >= CJSON_NESTING_LIMIT)
1499:TOOL/cJSON.c  ****     {
1500:TOOL/cJSON.c  ****         return false; /* to deeply nested */
1501:TOOL/cJSON.c  ****     }
1502:TOOL/cJSON.c  ****     input_buffer->depth++;
1503:TOOL/cJSON.c  **** 
1504:TOOL/cJSON.c  ****     if (cannot_access_at_index(input_buffer, 0) || (buffer_at_offset(input_buffer)[0] != '{'))
1505:TOOL/cJSON.c  ****     {
1506:TOOL/cJSON.c  ****         goto fail; /* not an object */
1507:TOOL/cJSON.c  ****     }
1508:TOOL/cJSON.c  **** 
1509:TOOL/cJSON.c  ****     input_buffer->offset++;
1510:TOOL/cJSON.c  ****     buffer_skip_whitespace(input_buffer);
1511:TOOL/cJSON.c  ****     if (can_access_at_index(input_buffer, 0) && (buffer_at_offset(input_buffer)[0] == '}'))
1512:TOOL/cJSON.c  ****     {
1513:TOOL/cJSON.c  ****         goto success; /* empty object */
1514:TOOL/cJSON.c  ****     }
1515:TOOL/cJSON.c  **** 
1516:TOOL/cJSON.c  ****     /* check if we skipped to the end of the buffer */
1517:TOOL/cJSON.c  ****     if (cannot_access_at_index(input_buffer, 0))
1518:TOOL/cJSON.c  ****     {
1519:TOOL/cJSON.c  ****         input_buffer->offset--;
1520:TOOL/cJSON.c  ****         goto fail;
1521:TOOL/cJSON.c  ****     }
1522:TOOL/cJSON.c  **** 
1523:TOOL/cJSON.c  ****     /* step back to character in front of the first element */
1524:TOOL/cJSON.c  ****     input_buffer->offset--;
1525:TOOL/cJSON.c  ****     /* loop through the comma separated array elements */
1526:TOOL/cJSON.c  ****     do
1527:TOOL/cJSON.c  ****     {
1528:TOOL/cJSON.c  ****         /* allocate next item */
1529:TOOL/cJSON.c  ****         cJSON *new_item = cJSON_New_Item(&(input_buffer->hooks));
1530:TOOL/cJSON.c  ****         if (new_item == NULL)
1531:TOOL/cJSON.c  ****         {
1532:TOOL/cJSON.c  ****             goto fail; /* allocation failure */
1533:TOOL/cJSON.c  ****         }
1534:TOOL/cJSON.c  **** 
1535:TOOL/cJSON.c  ****         /* attach next item to list */
1536:TOOL/cJSON.c  ****         if (head == NULL)
1537:TOOL/cJSON.c  ****         {
1538:TOOL/cJSON.c  ****             /* start the linked list */
1539:TOOL/cJSON.c  ****             current_item = head = new_item;
1540:TOOL/cJSON.c  ****         }
1541:TOOL/cJSON.c  ****         else
ARM GAS  /var/folders/ww/n4ctlbrs3x70633t9y2ks63c0000gn/T//ccTX1xk7.s 			page 50


1542:TOOL/cJSON.c  ****         {
1543:TOOL/cJSON.c  ****             /* add to the end and advance */
1544:TOOL/cJSON.c  ****             current_item->next = new_item;
1545:TOOL/cJSON.c  ****             new_item->prev = current_item;
1546:TOOL/cJSON.c  ****             current_item = new_item;
1547:TOOL/cJSON.c  ****         }
1548:TOOL/cJSON.c  **** 
1549:TOOL/cJSON.c  ****         /* parse the name of the child */
1550:TOOL/cJSON.c  ****         input_buffer->offset++;
1551:TOOL/cJSON.c  ****         buffer_skip_whitespace(input_buffer);
1552:TOOL/cJSON.c  ****         if (!parse_string(current_item, input_buffer))
1553:TOOL/cJSON.c  ****         {
1554:TOOL/cJSON.c  ****             goto fail; /* faile to parse name */
1555:TOOL/cJSON.c  ****         }
1556:TOOL/cJSON.c  ****         buffer_skip_whitespace(input_buffer);
1557:TOOL/cJSON.c  **** 
1558:TOOL/cJSON.c  ****         /* swap valuestring and string, because we parsed the name */
1559:TOOL/cJSON.c  ****         current_item->string = current_item->valuestring;
1560:TOOL/cJSON.c  ****         current_item->valuestring = NULL;
1561:TOOL/cJSON.c  **** 
1562:TOOL/cJSON.c  ****         if (cannot_access_at_index(input_buffer, 0) || (buffer_at_offset(input_buffer)[0] != ':'))
1563:TOOL/cJSON.c  ****         {
1564:TOOL/cJSON.c  ****             goto fail; /* invalid object */
1565:TOOL/cJSON.c  ****         }
1566:TOOL/cJSON.c  **** 
1567:TOOL/cJSON.c  ****         /* parse the value */
1568:TOOL/cJSON.c  ****         input_buffer->offset++;
1569:TOOL/cJSON.c  ****         buffer_skip_whitespace(input_buffer);
1570:TOOL/cJSON.c  ****         if (!parse_value(current_item, input_buffer))
1571:TOOL/cJSON.c  ****         {
1572:TOOL/cJSON.c  ****             goto fail; /* failed to parse value */
1573:TOOL/cJSON.c  ****         }
1574:TOOL/cJSON.c  ****         buffer_skip_whitespace(input_buffer);
1575:TOOL/cJSON.c  ****     }
1576:TOOL/cJSON.c  ****     while (can_access_at_index(input_buffer, 0) && (buffer_at_offset(input_buffer)[0] == ','));
1577:TOOL/cJSON.c  **** 
1578:TOOL/cJSON.c  ****     if (cannot_access_at_index(input_buffer, 0) || (buffer_at_offset(input_buffer)[0] != '}'))
1579:TOOL/cJSON.c  ****     {
1580:TOOL/cJSON.c  ****         goto fail; /* expected end of object */
1581:TOOL/cJSON.c  ****     }
1582:TOOL/cJSON.c  **** 
1583:TOOL/cJSON.c  **** success:
1584:TOOL/cJSON.c  ****     input_buffer->depth--;
1585:TOOL/cJSON.c  **** 
1586:TOOL/cJSON.c  ****     item->type = cJSON_Object;
1587:TOOL/cJSON.c  ****     item->child = head;
1588:TOOL/cJSON.c  **** 
1589:TOOL/cJSON.c  ****     input_buffer->offset++;
1590:TOOL/cJSON.c  ****     return true;
1591:TOOL/cJSON.c  **** 
1592:TOOL/cJSON.c  **** fail:
1593:TOOL/cJSON.c  ****     if (head != NULL)
1594:TOOL/cJSON.c  ****     {
1595:TOOL/cJSON.c  ****         cJSON_Delete(head);
1596:TOOL/cJSON.c  ****     }
1597:TOOL/cJSON.c  **** 
1598:TOOL/cJSON.c  ****     return false;
ARM GAS  /var/folders/ww/n4ctlbrs3x70633t9y2ks63c0000gn/T//ccTX1xk7.s 			page 51


1599:TOOL/cJSON.c  **** }
1600:TOOL/cJSON.c  **** 
1601:TOOL/cJSON.c  **** /* Render an object to text. */
1602:TOOL/cJSON.c  **** static cJSON_bool print_object(const cJSON * const item, printbuffer * const output_buffer)
1603:TOOL/cJSON.c  **** {
1604:TOOL/cJSON.c  ****     unsigned char *output_pointer = NULL;
1605:TOOL/cJSON.c  ****     size_t length = 0;
1606:TOOL/cJSON.c  ****     cJSON *current_item = item->child;
1607:TOOL/cJSON.c  **** 
1608:TOOL/cJSON.c  ****     if (output_buffer == NULL)
1609:TOOL/cJSON.c  ****     {
1610:TOOL/cJSON.c  ****         return false;
1611:TOOL/cJSON.c  ****     }
1612:TOOL/cJSON.c  **** 
1613:TOOL/cJSON.c  ****     /* Compose the output: */
1614:TOOL/cJSON.c  ****     length = (size_t) (output_buffer->format ? 2 : 1); /* fmt: {\n */
1615:TOOL/cJSON.c  ****     output_pointer = ensure(output_buffer, length + 1);
1616:TOOL/cJSON.c  ****     if (output_pointer == NULL)
1617:TOOL/cJSON.c  ****     {
1618:TOOL/cJSON.c  ****         return false;
1619:TOOL/cJSON.c  ****     }
1620:TOOL/cJSON.c  **** 
1621:TOOL/cJSON.c  ****     *output_pointer++ = '{';
1622:TOOL/cJSON.c  ****     output_buffer->depth++;
1623:TOOL/cJSON.c  ****     if (output_buffer->format)
1624:TOOL/cJSON.c  ****     {
1625:TOOL/cJSON.c  ****         *output_pointer++ = '\n';
1626:TOOL/cJSON.c  ****     }
1627:TOOL/cJSON.c  ****     output_buffer->offset += length;
1628:TOOL/cJSON.c  **** 
1629:TOOL/cJSON.c  ****     while (current_item)
1630:TOOL/cJSON.c  ****     {
1631:TOOL/cJSON.c  ****         if (output_buffer->format)
1632:TOOL/cJSON.c  ****         {
1633:TOOL/cJSON.c  ****             size_t i;
1634:TOOL/cJSON.c  ****             output_pointer = ensure(output_buffer, output_buffer->depth);
1635:TOOL/cJSON.c  ****             if (output_pointer == NULL)
1636:TOOL/cJSON.c  ****             {
1637:TOOL/cJSON.c  ****                 return false;
1638:TOOL/cJSON.c  ****             }
1639:TOOL/cJSON.c  ****             for (i = 0; i < output_buffer->depth; i++)
1640:TOOL/cJSON.c  ****             {
1641:TOOL/cJSON.c  ****                 *output_pointer++ = '\t';
1642:TOOL/cJSON.c  ****             }
1643:TOOL/cJSON.c  ****             output_buffer->offset += output_buffer->depth;
1644:TOOL/cJSON.c  ****         }
1645:TOOL/cJSON.c  **** 
1646:TOOL/cJSON.c  ****         /* print key */
1647:TOOL/cJSON.c  ****         if (!print_string_ptr((unsigned char*)current_item->string, output_buffer))
1648:TOOL/cJSON.c  ****         {
1649:TOOL/cJSON.c  ****             return false;
1650:TOOL/cJSON.c  ****         }
1651:TOOL/cJSON.c  ****         update_offset(output_buffer);
1652:TOOL/cJSON.c  **** 
1653:TOOL/cJSON.c  ****         length = (size_t) (output_buffer->format ? 2 : 1);
1654:TOOL/cJSON.c  ****         output_pointer = ensure(output_buffer, length);
1655:TOOL/cJSON.c  ****         if (output_pointer == NULL)
ARM GAS  /var/folders/ww/n4ctlbrs3x70633t9y2ks63c0000gn/T//ccTX1xk7.s 			page 52


1656:TOOL/cJSON.c  ****         {
1657:TOOL/cJSON.c  ****             return false;
1658:TOOL/cJSON.c  ****         }
1659:TOOL/cJSON.c  ****         *output_pointer++ = ':';
1660:TOOL/cJSON.c  ****         if (output_buffer->format)
1661:TOOL/cJSON.c  ****         {
1662:TOOL/cJSON.c  ****             *output_pointer++ = '\t';
1663:TOOL/cJSON.c  ****         }
1664:TOOL/cJSON.c  ****         output_buffer->offset += length;
1665:TOOL/cJSON.c  **** 
1666:TOOL/cJSON.c  ****         /* print value */
1667:TOOL/cJSON.c  ****         if (!print_value(current_item, output_buffer))
1668:TOOL/cJSON.c  ****         {
1669:TOOL/cJSON.c  ****             return false;
1670:TOOL/cJSON.c  ****         }
1671:TOOL/cJSON.c  ****         update_offset(output_buffer);
1672:TOOL/cJSON.c  **** 
1673:TOOL/cJSON.c  ****         /* print comma if not last */
1674:TOOL/cJSON.c  ****         length = (size_t) ((output_buffer->format ? 1 : 0) + (current_item->next ? 1 : 0));
1675:TOOL/cJSON.c  ****         output_pointer = ensure(output_buffer, length + 1);
1676:TOOL/cJSON.c  ****         if (output_pointer == NULL)
1677:TOOL/cJSON.c  ****         {
1678:TOOL/cJSON.c  ****             return false;
1679:TOOL/cJSON.c  ****         }
1680:TOOL/cJSON.c  ****         if (current_item->next)
1681:TOOL/cJSON.c  ****         {
1682:TOOL/cJSON.c  ****             *output_pointer++ = ',';
1683:TOOL/cJSON.c  ****         }
1684:TOOL/cJSON.c  **** 
1685:TOOL/cJSON.c  ****         if (output_buffer->format)
1686:TOOL/cJSON.c  ****         {
1687:TOOL/cJSON.c  ****             *output_pointer++ = '\n';
1688:TOOL/cJSON.c  ****         }
1689:TOOL/cJSON.c  ****         *output_pointer = '\0';
1690:TOOL/cJSON.c  ****         output_buffer->offset += length;
1691:TOOL/cJSON.c  **** 
1692:TOOL/cJSON.c  ****         current_item = current_item->next;
1693:TOOL/cJSON.c  ****     }
1694:TOOL/cJSON.c  **** 
1695:TOOL/cJSON.c  ****     output_pointer = ensure(output_buffer, output_buffer->format ? (output_buffer->depth + 1) : 2);
1696:TOOL/cJSON.c  ****     if (output_pointer == NULL)
1697:TOOL/cJSON.c  ****     {
1698:TOOL/cJSON.c  ****         return false;
1699:TOOL/cJSON.c  ****     }
1700:TOOL/cJSON.c  ****     if (output_buffer->format)
1701:TOOL/cJSON.c  ****     {
1702:TOOL/cJSON.c  ****         size_t i;
1703:TOOL/cJSON.c  ****         for (i = 0; i < (output_buffer->depth - 1); i++)
1704:TOOL/cJSON.c  ****         {
1705:TOOL/cJSON.c  ****             *output_pointer++ = '\t';
1706:TOOL/cJSON.c  ****         }
1707:TOOL/cJSON.c  ****     }
1708:TOOL/cJSON.c  ****     *output_pointer++ = '}';
1709:TOOL/cJSON.c  ****     *output_pointer = '\0';
1710:TOOL/cJSON.c  ****     output_buffer->depth--;
1711:TOOL/cJSON.c  **** 
1712:TOOL/cJSON.c  ****     return true;
ARM GAS  /var/folders/ww/n4ctlbrs3x70633t9y2ks63c0000gn/T//ccTX1xk7.s 			page 53


1713:TOOL/cJSON.c  **** }
1714:TOOL/cJSON.c  **** 
1715:TOOL/cJSON.c  **** /* Get Array size/item / object item. */
1716:TOOL/cJSON.c  **** CJSON_PUBLIC(int) cJSON_GetArraySize(const cJSON *array)
1717:TOOL/cJSON.c  **** {
1718:TOOL/cJSON.c  ****     cJSON *child = NULL;
1719:TOOL/cJSON.c  ****     size_t size = 0;
1720:TOOL/cJSON.c  **** 
1721:TOOL/cJSON.c  ****     if (array == NULL)
1722:TOOL/cJSON.c  ****     {
1723:TOOL/cJSON.c  ****         return 0;
1724:TOOL/cJSON.c  ****     }
1725:TOOL/cJSON.c  **** 
1726:TOOL/cJSON.c  ****     child = array->child;
1727:TOOL/cJSON.c  **** 
1728:TOOL/cJSON.c  ****     while(child != NULL)
1729:TOOL/cJSON.c  ****     {
1730:TOOL/cJSON.c  ****         size++;
1731:TOOL/cJSON.c  ****         child = child->next;
1732:TOOL/cJSON.c  ****     }
1733:TOOL/cJSON.c  **** 
1734:TOOL/cJSON.c  ****     /* FIXME: Can overflow here. Cannot be fixed without breaking the API */
1735:TOOL/cJSON.c  **** 
1736:TOOL/cJSON.c  ****     return (int)size;
1737:TOOL/cJSON.c  **** }
1738:TOOL/cJSON.c  **** 
1739:TOOL/cJSON.c  **** static cJSON* get_array_item(const cJSON *array, size_t index)
1740:TOOL/cJSON.c  **** {
 1125              		.loc 1 1740 1 is_stmt 1 view -0
 1126              		.cfi_startproc
 1127              		@ args = 0, pretend = 0, frame = 0
 1128              		@ frame_needed = 0, uses_anonymous_args = 0
 1129              		@ link register save eliminated.
1741:TOOL/cJSON.c  ****     cJSON *current_child = NULL;
 1130              		.loc 1 1741 5 view .LVU344
1742:TOOL/cJSON.c  **** 
1743:TOOL/cJSON.c  ****     if (array == NULL)
 1131              		.loc 1 1743 5 view .LVU345
 1132              		.loc 1 1743 8 is_stmt 0 view .LVU346
 1133 0000 30B1     		cbz	r0, .L91
1744:TOOL/cJSON.c  ****     {
1745:TOOL/cJSON.c  ****         return NULL;
1746:TOOL/cJSON.c  ****     }
1747:TOOL/cJSON.c  **** 
1748:TOOL/cJSON.c  ****     current_child = array->child;
 1134              		.loc 1 1748 5 is_stmt 1 view .LVU347
 1135              		.loc 1 1748 19 is_stmt 0 view .LVU348
 1136 0002 8068     		ldr	r0, [r0, #8]
 1137              	.LVL113:
1749:TOOL/cJSON.c  ****     while ((current_child != NULL) && (index > 0))
 1138              		.loc 1 1749 5 is_stmt 1 view .LVU349
 1139              	.L93:
 1140              		.loc 1 1749 11 is_stmt 0 view .LVU350
 1141 0004 20B1     		cbz	r0, .L91
 1142              		.loc 1 1749 36 discriminator 1 view .LVU351
 1143 0006 11B1     		cbz	r1, .L96
1750:TOOL/cJSON.c  ****     {
ARM GAS  /var/folders/ww/n4ctlbrs3x70633t9y2ks63c0000gn/T//ccTX1xk7.s 			page 54


1751:TOOL/cJSON.c  ****         index--;
 1144              		.loc 1 1751 9 is_stmt 1 view .LVU352
 1145              		.loc 1 1751 14 is_stmt 0 view .LVU353
 1146 0008 0139     		subs	r1, r1, #1
 1147              	.LVL114:
1752:TOOL/cJSON.c  ****         current_child = current_child->next;
 1148              		.loc 1 1752 9 is_stmt 1 view .LVU354
 1149              		.loc 1 1752 23 is_stmt 0 view .LVU355
 1150 000a 0068     		ldr	r0, [r0]
 1151              	.LVL115:
 1152              		.loc 1 1752 23 view .LVU356
 1153 000c FAE7     		b	.L93
 1154              	.L96:
 1155              		.loc 1 1752 23 view .LVU357
 1156 000e 7047     		bx	lr
 1157              	.LVL116:
 1158              	.L91:
1753:TOOL/cJSON.c  ****     }
1754:TOOL/cJSON.c  **** 
1755:TOOL/cJSON.c  ****     return current_child;
1756:TOOL/cJSON.c  **** }
 1159              		.loc 1 1756 1 view .LVU358
 1160 0010 7047     		bx	lr
 1161              		.cfi_endproc
 1162              	.LFE105:
 1164              		.section	.text.suffix_object,"ax",%progbits
 1165              		.align	1
 1166              		.syntax unified
 1167              		.thumb
 1168              		.thumb_func
 1169              		.fpu softvfp
 1171              	suffix_object:
 1172              	.LVL117:
 1173              	.LFB111:
1757:TOOL/cJSON.c  **** 
1758:TOOL/cJSON.c  **** CJSON_PUBLIC(cJSON *) cJSON_GetArrayItem(const cJSON *array, int index)
1759:TOOL/cJSON.c  **** {
1760:TOOL/cJSON.c  ****     if (index < 0)
1761:TOOL/cJSON.c  ****     {
1762:TOOL/cJSON.c  ****         return NULL;
1763:TOOL/cJSON.c  ****     }
1764:TOOL/cJSON.c  **** 
1765:TOOL/cJSON.c  ****     return get_array_item(array, (size_t)index);
1766:TOOL/cJSON.c  **** }
1767:TOOL/cJSON.c  **** 
1768:TOOL/cJSON.c  **** static cJSON *get_object_item(const cJSON * const object, const char * const name, const cJSON_bool
1769:TOOL/cJSON.c  **** {
1770:TOOL/cJSON.c  ****     cJSON *current_element = NULL;
1771:TOOL/cJSON.c  **** 
1772:TOOL/cJSON.c  ****     if ((object == NULL) || (name == NULL))
1773:TOOL/cJSON.c  ****     {
1774:TOOL/cJSON.c  ****         return NULL;
1775:TOOL/cJSON.c  ****     }
1776:TOOL/cJSON.c  **** 
1777:TOOL/cJSON.c  ****     current_element = object->child;
1778:TOOL/cJSON.c  ****     if (case_sensitive)
1779:TOOL/cJSON.c  ****     {
ARM GAS  /var/folders/ww/n4ctlbrs3x70633t9y2ks63c0000gn/T//ccTX1xk7.s 			page 55


1780:TOOL/cJSON.c  ****         while ((current_element != NULL) && (strcmp(name, current_element->string) != 0))
1781:TOOL/cJSON.c  ****         {
1782:TOOL/cJSON.c  ****             current_element = current_element->next;
1783:TOOL/cJSON.c  ****         }
1784:TOOL/cJSON.c  ****     }
1785:TOOL/cJSON.c  ****     else
1786:TOOL/cJSON.c  ****     {
1787:TOOL/cJSON.c  ****         while ((current_element != NULL) && (case_insensitive_strcmp((const unsigned char*)name, (c
1788:TOOL/cJSON.c  ****         {
1789:TOOL/cJSON.c  ****             current_element = current_element->next;
1790:TOOL/cJSON.c  ****         }
1791:TOOL/cJSON.c  ****     }
1792:TOOL/cJSON.c  **** 
1793:TOOL/cJSON.c  ****     return current_element;
1794:TOOL/cJSON.c  **** }
1795:TOOL/cJSON.c  **** 
1796:TOOL/cJSON.c  **** CJSON_PUBLIC(cJSON *) cJSON_GetObjectItem(const cJSON * const object, const char * const string)
1797:TOOL/cJSON.c  **** {
1798:TOOL/cJSON.c  ****     return get_object_item(object, string, false);
1799:TOOL/cJSON.c  **** }
1800:TOOL/cJSON.c  **** 
1801:TOOL/cJSON.c  **** CJSON_PUBLIC(cJSON *) cJSON_GetObjectItemCaseSensitive(const cJSON * const object, const char * con
1802:TOOL/cJSON.c  **** {
1803:TOOL/cJSON.c  ****     return get_object_item(object, string, true);
1804:TOOL/cJSON.c  **** }
1805:TOOL/cJSON.c  **** 
1806:TOOL/cJSON.c  **** CJSON_PUBLIC(cJSON_bool) cJSON_HasObjectItem(const cJSON *object, const char *string)
1807:TOOL/cJSON.c  **** {
1808:TOOL/cJSON.c  ****     return cJSON_GetObjectItem(object, string) ? 1 : 0;
1809:TOOL/cJSON.c  **** }
1810:TOOL/cJSON.c  **** 
1811:TOOL/cJSON.c  **** /* Utility for array list handling. */
1812:TOOL/cJSON.c  **** static void suffix_object(cJSON *prev, cJSON *item)
1813:TOOL/cJSON.c  **** {
 1174              		.loc 1 1813 1 is_stmt 1 view -0
 1175              		.cfi_startproc
 1176              		@ args = 0, pretend = 0, frame = 0
 1177              		@ frame_needed = 0, uses_anonymous_args = 0
 1178              		@ link register save eliminated.
1814:TOOL/cJSON.c  ****     prev->next = item;
 1179              		.loc 1 1814 5 view .LVU360
 1180              		.loc 1 1814 16 is_stmt 0 view .LVU361
 1181 0000 0160     		str	r1, [r0]
1815:TOOL/cJSON.c  ****     item->prev = prev;
 1182              		.loc 1 1815 5 is_stmt 1 view .LVU362
 1183              		.loc 1 1815 16 is_stmt 0 view .LVU363
 1184 0002 4860     		str	r0, [r1, #4]
1816:TOOL/cJSON.c  **** }
 1185              		.loc 1 1816 1 view .LVU364
 1186 0004 7047     		bx	lr
 1187              		.cfi_endproc
 1188              	.LFE111:
 1190              		.section	.text.internal_realloc,"ax",%progbits
 1191              		.align	1
 1192              		.syntax unified
 1193              		.thumb
 1194              		.thumb_func
ARM GAS  /var/folders/ww/n4ctlbrs3x70633t9y2ks63c0000gn/T//ccTX1xk7.s 			page 56


 1195              		.fpu softvfp
 1197              	internal_realloc:
 1198              	.LVL118:
 1199              	.LFB73:
 132:TOOL/cJSON.c  ****     return myrealloc(pointer, size);
 1200              		.loc 1 132 1 is_stmt 1 view -0
 1201              		.cfi_startproc
 1202              		@ args = 0, pretend = 0, frame = 0
 1203              		@ frame_needed = 0, uses_anonymous_args = 0
 132:TOOL/cJSON.c  ****     return myrealloc(pointer, size);
 1204              		.loc 1 132 1 is_stmt 0 view .LVU366
 1205 0000 08B5     		push	{r3, lr}
 1206              	.LCFI10:
 1207              		.cfi_def_cfa_offset 8
 1208              		.cfi_offset 3, -8
 1209              		.cfi_offset 14, -4
 133:TOOL/cJSON.c  **** }
 1210              		.loc 1 133 5 is_stmt 1 view .LVU367
 133:TOOL/cJSON.c  **** }
 1211              		.loc 1 133 12 is_stmt 0 view .LVU368
 1212 0002 FFF7FEFF 		bl	myrealloc
 1213              	.LVL119:
 134:TOOL/cJSON.c  **** //#else
 1214              		.loc 1 134 1 view .LVU369
 1215 0006 08BD     		pop	{r3, pc}
 1216              		.cfi_endproc
 1217              	.LFE73:
 1219              		.section	.text.internal_free,"ax",%progbits
 1220              		.align	1
 1221              		.syntax unified
 1222              		.thumb
 1223              		.thumb_func
 1224              		.fpu softvfp
 1226              	internal_free:
 1227              	.LVL120:
 1228              	.LFB72:
 128:TOOL/cJSON.c  ****     myfree(pointer);
 1229              		.loc 1 128 1 is_stmt 1 view -0
 1230              		.cfi_startproc
 1231              		@ args = 0, pretend = 0, frame = 0
 1232              		@ frame_needed = 0, uses_anonymous_args = 0
 128:TOOL/cJSON.c  ****     myfree(pointer);
 1233              		.loc 1 128 1 is_stmt 0 view .LVU371
 1234 0000 08B5     		push	{r3, lr}
 1235              	.LCFI11:
 1236              		.cfi_def_cfa_offset 8
 1237              		.cfi_offset 3, -8
 1238              		.cfi_offset 14, -4
 129:TOOL/cJSON.c  **** }
 1239              		.loc 1 129 5 is_stmt 1 view .LVU372
 1240 0002 FFF7FEFF 		bl	myfree
 1241              	.LVL121:
 130:TOOL/cJSON.c  **** static void *internal_realloc(void *pointer, size_t size)
 1242              		.loc 1 130 1 is_stmt 0 view .LVU373
 1243 0006 08BD     		pop	{r3, pc}
 1244              		.cfi_endproc
 1245              	.LFE72:
ARM GAS  /var/folders/ww/n4ctlbrs3x70633t9y2ks63c0000gn/T//ccTX1xk7.s 			page 57


 1247              		.section	.text.internal_malloc,"ax",%progbits
 1248              		.align	1
 1249              		.syntax unified
 1250              		.thumb
 1251              		.thumb_func
 1252              		.fpu softvfp
 1254              	internal_malloc:
 1255              	.LVL122:
 1256              	.LFB71:
 124:TOOL/cJSON.c  ****     return mymalloc(size);
 1257              		.loc 1 124 1 is_stmt 1 view -0
 1258              		.cfi_startproc
 1259              		@ args = 0, pretend = 0, frame = 0
 1260              		@ frame_needed = 0, uses_anonymous_args = 0
 124:TOOL/cJSON.c  ****     return mymalloc(size);
 1261              		.loc 1 124 1 is_stmt 0 view .LVU375
 1262 0000 08B5     		push	{r3, lr}
 1263              	.LCFI12:
 1264              		.cfi_def_cfa_offset 8
 1265              		.cfi_offset 3, -8
 1266              		.cfi_offset 14, -4
 125:TOOL/cJSON.c  **** }
 1267              		.loc 1 125 5 is_stmt 1 view .LVU376
 125:TOOL/cJSON.c  **** }
 1268              		.loc 1 125 12 is_stmt 0 view .LVU377
 1269 0002 FFF7FEFF 		bl	mymalloc
 1270              	.LVL123:
 126:TOOL/cJSON.c  **** static void internal_free(void *pointer)
 1271              		.loc 1 126 1 view .LVU378
 1272 0006 08BD     		pop	{r3, pc}
 1273              		.cfi_endproc
 1274              	.LFE71:
 1276              		.section	.text.update_offset,"ax",%progbits
 1277              		.align	1
 1278              		.syntax unified
 1279              		.thumb
 1280              		.thumb_func
 1281              		.fpu softvfp
 1283              	update_offset:
 1284              	.LVL124:
 1285              	.LFB82:
 456:TOOL/cJSON.c  ****     const unsigned char *buffer_pointer = NULL;
 1286              		.loc 1 456 1 is_stmt 1 view -0
 1287              		.cfi_startproc
 1288              		@ args = 0, pretend = 0, frame = 0
 1289              		@ frame_needed = 0, uses_anonymous_args = 0
 457:TOOL/cJSON.c  ****     if ((buffer == NULL) || (buffer->buffer == NULL))
 1290              		.loc 1 457 5 view .LVU380
 458:TOOL/cJSON.c  ****     {
 1291              		.loc 1 458 5 view .LVU381
 458:TOOL/cJSON.c  ****     {
 1292              		.loc 1 458 8 is_stmt 0 view .LVU382
 1293 0000 50B1     		cbz	r0, .L107
 456:TOOL/cJSON.c  ****     const unsigned char *buffer_pointer = NULL;
 1294              		.loc 1 456 1 discriminator 1 view .LVU383
 1295 0002 38B5     		push	{r3, r4, r5, lr}
 1296              	.LCFI13:
ARM GAS  /var/folders/ww/n4ctlbrs3x70633t9y2ks63c0000gn/T//ccTX1xk7.s 			page 58


 1297              		.cfi_def_cfa_offset 16
 1298              		.cfi_offset 3, -16
 1299              		.cfi_offset 4, -12
 1300              		.cfi_offset 5, -8
 1301              		.cfi_offset 14, -4
 1302 0004 0446     		mov	r4, r0
 458:TOOL/cJSON.c  ****     {
 1303              		.loc 1 458 36 discriminator 1 view .LVU384
 1304 0006 0068     		ldr	r0, [r0]
 1305              	.LVL125:
 458:TOOL/cJSON.c  ****     {
 1306              		.loc 1 458 26 discriminator 1 view .LVU385
 1307 0008 28B1     		cbz	r0, .L104
 462:TOOL/cJSON.c  **** 
 1308              		.loc 1 462 5 is_stmt 1 view .LVU386
 462:TOOL/cJSON.c  **** 
 1309              		.loc 1 462 45 is_stmt 0 view .LVU387
 1310 000a A568     		ldr	r5, [r4, #8]
 1311              	.LVL126:
 464:TOOL/cJSON.c  **** }
 1312              		.loc 1 464 5 is_stmt 1 view .LVU388
 464:TOOL/cJSON.c  **** }
 1313              		.loc 1 464 23 is_stmt 0 view .LVU389
 1314 000c 2844     		add	r0, r0, r5
 1315              	.LVL127:
 464:TOOL/cJSON.c  **** }
 1316              		.loc 1 464 23 view .LVU390
 1317 000e FFF7FEFF 		bl	strlen
 1318              	.LVL128:
 464:TOOL/cJSON.c  **** }
 1319              		.loc 1 464 20 view .LVU391
 1320 0012 2844     		add	r0, r0, r5
 1321 0014 A060     		str	r0, [r4, #8]
 1322              	.L104:
 465:TOOL/cJSON.c  **** 
 1323              		.loc 1 465 1 view .LVU392
 1324 0016 38BD     		pop	{r3, r4, r5, pc}
 1325              	.LVL129:
 1326              	.L107:
 1327              	.LCFI14:
 1328              		.cfi_def_cfa_offset 0
 1329              		.cfi_restore 3
 1330              		.cfi_restore 4
 1331              		.cfi_restore 5
 1332              		.cfi_restore 14
 465:TOOL/cJSON.c  **** 
 1333              		.loc 1 465 1 view .LVU393
 1334 0018 7047     		bx	lr
 1335              		.cfi_endproc
 1336              	.LFE82:
 1338              		.section	.text.cJSON_New_Item,"ax",%progbits
 1339              		.align	1
 1340              		.syntax unified
 1341              		.thumb
 1342              		.thumb_func
 1343              		.fpu softvfp
 1345              	cJSON_New_Item:
ARM GAS  /var/folders/ww/n4ctlbrs3x70633t9y2ks63c0000gn/T//ccTX1xk7.s 			page 59


 1346              	.LVL130:
 1347              	.LFB76:
 197:TOOL/cJSON.c  ****     cJSON* node = (cJSON*)hooks->allocate(sizeof(cJSON));
 1348              		.loc 1 197 1 is_stmt 1 view -0
 1349              		.cfi_startproc
 1350              		@ args = 0, pretend = 0, frame = 0
 1351              		@ frame_needed = 0, uses_anonymous_args = 0
 197:TOOL/cJSON.c  ****     cJSON* node = (cJSON*)hooks->allocate(sizeof(cJSON));
 1352              		.loc 1 197 1 is_stmt 0 view .LVU395
 1353 0000 10B5     		push	{r4, lr}
 1354              	.LCFI15:
 1355              		.cfi_def_cfa_offset 8
 1356              		.cfi_offset 4, -8
 1357              		.cfi_offset 14, -4
 198:TOOL/cJSON.c  ****     if (node)
 1358              		.loc 1 198 5 is_stmt 1 view .LVU396
 198:TOOL/cJSON.c  ****     if (node)
 1359              		.loc 1 198 32 is_stmt 0 view .LVU397
 1360 0002 0368     		ldr	r3, [r0]
 198:TOOL/cJSON.c  ****     if (node)
 1361              		.loc 1 198 27 view .LVU398
 1362 0004 2820     		movs	r0, #40
 1363              	.LVL131:
 198:TOOL/cJSON.c  ****     if (node)
 1364              		.loc 1 198 27 view .LVU399
 1365 0006 9847     		blx	r3
 1366              	.LVL132:
 199:TOOL/cJSON.c  ****     {
 1367              		.loc 1 199 5 is_stmt 1 view .LVU400
 199:TOOL/cJSON.c  ****     {
 1368              		.loc 1 199 8 is_stmt 0 view .LVU401
 1369 0008 0446     		mov	r4, r0
 1370 000a 18B1     		cbz	r0, .L110
 201:TOOL/cJSON.c  ****     }
 1371              		.loc 1 201 9 is_stmt 1 view .LVU402
 1372 000c 2822     		movs	r2, #40
 1373 000e 0021     		movs	r1, #0
 1374 0010 FFF7FEFF 		bl	memset
 1375              	.LVL133:
 204:TOOL/cJSON.c  **** }
 1376              		.loc 1 204 5 view .LVU403
 1377              	.L110:
 205:TOOL/cJSON.c  **** 
 1378              		.loc 1 205 1 is_stmt 0 view .LVU404
 1379 0014 2046     		mov	r0, r4
 1380 0016 10BD     		pop	{r4, pc}
 205:TOOL/cJSON.c  **** 
 1381              		.loc 1 205 1 view .LVU405
 1382              		.cfi_endproc
 1383              	.LFE76:
 1385              		.section	.text.skip_utf8_bom,"ax",%progbits
 1386              		.align	1
 1387              		.syntax unified
 1388              		.thumb
 1389              		.thumb_func
 1390              		.fpu softvfp
 1392              	skip_utf8_bom:
ARM GAS  /var/folders/ww/n4ctlbrs3x70633t9y2ks63c0000gn/T//ccTX1xk7.s 			page 60


 1393              	.LVL134:
 1394              	.LFB90:
 979:TOOL/cJSON.c  ****     if ((buffer == NULL) || (buffer->content == NULL) || (buffer->offset != 0))
 1395              		.loc 1 979 1 is_stmt 1 view -0
 1396              		.cfi_startproc
 1397              		@ args = 0, pretend = 0, frame = 0
 1398              		@ frame_needed = 0, uses_anonymous_args = 0
 979:TOOL/cJSON.c  ****     if ((buffer == NULL) || (buffer->content == NULL) || (buffer->offset != 0))
 1399              		.loc 1 979 1 is_stmt 0 view .LVU407
 1400 0000 38B5     		push	{r3, r4, r5, lr}
 1401              	.LCFI16:
 1402              		.cfi_def_cfa_offset 16
 1403              		.cfi_offset 3, -16
 1404              		.cfi_offset 4, -12
 1405              		.cfi_offset 5, -8
 1406              		.cfi_offset 14, -4
 980:TOOL/cJSON.c  ****     {
 1407              		.loc 1 980 5 is_stmt 1 view .LVU408
 980:TOOL/cJSON.c  ****     {
 1408              		.loc 1 980 8 is_stmt 0 view .LVU409
 1409 0002 0446     		mov	r4, r0
 1410 0004 78B1     		cbz	r0, .L114
 980:TOOL/cJSON.c  ****     {
 1411              		.loc 1 980 36 discriminator 1 view .LVU410
 1412 0006 0068     		ldr	r0, [r0]
 1413              	.LVL135:
 980:TOOL/cJSON.c  ****     {
 1414              		.loc 1 980 26 discriminator 1 view .LVU411
 1415 0008 78B1     		cbz	r0, .L115
 980:TOOL/cJSON.c  ****     {
 1416              		.loc 1 980 65 discriminator 2 view .LVU412
 1417 000a A568     		ldr	r5, [r4, #8]
 980:TOOL/cJSON.c  ****     {
 1418              		.loc 1 980 55 discriminator 2 view .LVU413
 1419 000c 7DB9     		cbnz	r5, .L116
 985:TOOL/cJSON.c  ****     {
 1420              		.loc 1 985 5 is_stmt 1 discriminator 1 view .LVU414
 985:TOOL/cJSON.c  ****     {
 1421              		.loc 1 985 9 is_stmt 0 discriminator 1 view .LVU415
 1422 000e 2B1D     		adds	r3, r5, #4
 1423 0010 6268     		ldr	r2, [r4, #4]
 1424 0012 9342     		cmp	r3, r2
 1425 0014 07D2     		bcs	.L114
 985:TOOL/cJSON.c  ****     {
 1426              		.loc 1 985 44 discriminator 2 view .LVU416
 1427 0016 0322     		movs	r2, #3
 1428 0018 0649     		ldr	r1, .L118
 1429 001a 2844     		add	r0, r0, r5
 1430 001c FFF7FEFF 		bl	strncmp
 1431              	.LVL136:
 985:TOOL/cJSON.c  ****     {
 1432              		.loc 1 985 40 discriminator 2 view .LVU417
 1433 0020 08B9     		cbnz	r0, .L114
 987:TOOL/cJSON.c  ****     }
 1434              		.loc 1 987 9 is_stmt 1 view .LVU418
 987:TOOL/cJSON.c  ****     }
 1435              		.loc 1 987 24 is_stmt 0 view .LVU419
ARM GAS  /var/folders/ww/n4ctlbrs3x70633t9y2ks63c0000gn/T//ccTX1xk7.s 			page 61


 1436 0022 0335     		adds	r5, r5, #3
 1437 0024 A560     		str	r5, [r4, #8]
 1438              	.LVL137:
 1439              	.L114:
 991:TOOL/cJSON.c  **** 
 1440              		.loc 1 991 1 view .LVU420
 1441 0026 2046     		mov	r0, r4
 1442 0028 38BD     		pop	{r3, r4, r5, pc}
 1443              	.LVL138:
 1444              	.L115:
 982:TOOL/cJSON.c  ****     }
 1445              		.loc 1 982 16 view .LVU421
 1446 002a 0446     		mov	r4, r0
 1447              	.LVL139:
 982:TOOL/cJSON.c  ****     }
 1448              		.loc 1 982 16 view .LVU422
 1449 002c FBE7     		b	.L114
 1450              	.LVL140:
 1451              	.L116:
 982:TOOL/cJSON.c  ****     }
 1452              		.loc 1 982 16 view .LVU423
 1453 002e 0024     		movs	r4, #0
 1454              	.LVL141:
 982:TOOL/cJSON.c  ****     }
 1455              		.loc 1 982 16 view .LVU424
 1456 0030 F9E7     		b	.L114
 1457              	.L119:
 1458 0032 00BF     		.align	2
 1459              	.L118:
 1460 0034 00000000 		.word	.LC0
 1461              		.cfi_endproc
 1462              	.LFE90:
 1464              		.global	__aeabi_dcmpge
 1465              		.global	__aeabi_dcmple
 1466              		.global	__aeabi_d2iz
 1467              		.section	.text.parse_number,"ax",%progbits
 1468              		.align	1
 1469              		.syntax unified
 1470              		.thumb
 1471              		.thumb_func
 1472              		.fpu softvfp
 1474              	parse_number:
 1475              	.LVL142:
 1476              	.LFB79:
 261:TOOL/cJSON.c  ****     double number = 0;
 1477              		.loc 1 261 1 is_stmt 1 view -0
 1478              		.cfi_startproc
 1479              		@ args = 0, pretend = 0, frame = 72
 1480              		@ frame_needed = 0, uses_anonymous_args = 0
 261:TOOL/cJSON.c  ****     double number = 0;
 1481              		.loc 1 261 1 is_stmt 0 view .LVU426
 1482 0000 2DE9F043 		push	{r4, r5, r6, r7, r8, r9, lr}
 1483              	.LCFI17:
 1484              		.cfi_def_cfa_offset 28
 1485              		.cfi_offset 4, -28
 1486              		.cfi_offset 5, -24
 1487              		.cfi_offset 6, -20
ARM GAS  /var/folders/ww/n4ctlbrs3x70633t9y2ks63c0000gn/T//ccTX1xk7.s 			page 62


 1488              		.cfi_offset 7, -16
 1489              		.cfi_offset 8, -12
 1490              		.cfi_offset 9, -8
 1491              		.cfi_offset 14, -4
 1492 0004 93B0     		sub	sp, sp, #76
 1493              	.LCFI18:
 1494              		.cfi_def_cfa_offset 104
 1495 0006 0546     		mov	r5, r0
 1496 0008 0C46     		mov	r4, r1
 262:TOOL/cJSON.c  ****     unsigned char *after_end = NULL;
 1497              		.loc 1 262 5 is_stmt 1 view .LVU427
 1498              	.LVL143:
 263:TOOL/cJSON.c  ****     unsigned char number_c_string[64];
 1499              		.loc 1 263 5 view .LVU428
 263:TOOL/cJSON.c  ****     unsigned char number_c_string[64];
 1500              		.loc 1 263 20 is_stmt 0 view .LVU429
 1501 000a 0023     		movs	r3, #0
 1502 000c 1193     		str	r3, [sp, #68]
 264:TOOL/cJSON.c  ****     unsigned char decimal_point = get_decimal_point();
 1503              		.loc 1 264 5 is_stmt 1 view .LVU430
 265:TOOL/cJSON.c  ****     size_t i = 0;
 1504              		.loc 1 265 5 view .LVU431
 265:TOOL/cJSON.c  ****     size_t i = 0;
 1505              		.loc 1 265 35 is_stmt 0 view .LVU432
 1506 000e FFF7FEFF 		bl	get_decimal_point
 1507              	.LVL144:
 266:TOOL/cJSON.c  **** 
 1508              		.loc 1 266 5 is_stmt 1 view .LVU433
 268:TOOL/cJSON.c  ****     {
 1509              		.loc 1 268 5 view .LVU434
 268:TOOL/cJSON.c  ****     {
 1510              		.loc 1 268 8 is_stmt 0 view .LVU435
 1511 0012 002C     		cmp	r4, #0
 1512 0014 00F0CF80 		beq	.L134
 268:TOOL/cJSON.c  ****     {
 1513              		.loc 1 268 48 discriminator 1 view .LVU436
 1514 0018 2368     		ldr	r3, [r4]
 268:TOOL/cJSON.c  ****     {
 1515              		.loc 1 268 32 discriminator 1 view .LVU437
 1516 001a 002B     		cmp	r3, #0
 1517 001c 00F0CD80 		beq	.L135
 276:TOOL/cJSON.c  ****     {
 1518              		.loc 1 276 12 view .LVU438
 1519 0020 0023     		movs	r3, #0
 1520 0022 04E0     		b	.L122
 1521              	.LVL145:
 1522              	.L124:
 294:TOOL/cJSON.c  ****                 break;
 1523              		.loc 1 294 17 is_stmt 1 view .LVU439
 294:TOOL/cJSON.c  ****                 break;
 1524              		.loc 1 294 36 is_stmt 0 view .LVU440
 1525 0024 12AA     		add	r2, sp, #72
 1526 0026 1A44     		add	r2, r2, r3
 1527 0028 02F8441C 		strb	r1, [r2, #-68]
 295:TOOL/cJSON.c  **** 
 1528              		.loc 1 295 17 is_stmt 1 view .LVU441
 1529              	.L127:
ARM GAS  /var/folders/ww/n4ctlbrs3x70633t9y2ks63c0000gn/T//ccTX1xk7.s 			page 63


 276:TOOL/cJSON.c  ****     {
 1530              		.loc 1 276 95 is_stmt 0 discriminator 2 view .LVU442
 1531 002c 0133     		adds	r3, r3, #1
 1532              	.LVL146:
 1533              	.L122:
 276:TOOL/cJSON.c  ****     {
 1534              		.loc 1 276 5 discriminator 1 view .LVU443
 1535 002e 3E2B     		cmp	r3, #62
 1536 0030 00F28B80 		bhi	.L123
 276:TOOL/cJSON.c  ****     {
 1537              		.loc 1 276 56 discriminator 4 view .LVU444
 1538 0034 A268     		ldr	r2, [r4, #8]
 1539 0036 1A44     		add	r2, r2, r3
 1540 0038 6168     		ldr	r1, [r4, #4]
 1541 003a 8A42     		cmp	r2, r1
 1542 003c 80F08580 		bcs	.L123
 278:TOOL/cJSON.c  ****         {
 1543              		.loc 1 278 9 is_stmt 1 view .LVU445
 278:TOOL/cJSON.c  ****         {
 1544              		.loc 1 278 17 is_stmt 0 view .LVU446
 1545 0040 2168     		ldr	r1, [r4]
 278:TOOL/cJSON.c  ****         {
 1546              		.loc 1 278 47 view .LVU447
 1547 0042 895C     		ldrb	r1, [r1, r2]	@ zero_extendqisi2
 278:TOOL/cJSON.c  ****         {
 1548              		.loc 1 278 9 view .LVU448
 1549 0044 A1F12B02 		sub	r2, r1, #43
 1550 0048 3A2A     		cmp	r2, #58
 1551 004a 7ED8     		bhi	.L123
 1552 004c 01A6     		adr	r6, .L125
 1553 004e 56F822F0 		ldr	pc, [r6, r2, lsl #2]
 1554 0052 00BF     		.p2align 2
 1555              	.L125:
 1556 0054 25000000 		.word	.L124+1
 1557 0058 4B010000 		.word	.L123+1
 1558 005c 25000000 		.word	.L124+1
 1559 0060 41010000 		.word	.L126+1
 1560 0064 4B010000 		.word	.L123+1
 1561 0068 25000000 		.word	.L124+1
 1562 006c 25000000 		.word	.L124+1
 1563 0070 25000000 		.word	.L124+1
 1564 0074 25000000 		.word	.L124+1
 1565 0078 25000000 		.word	.L124+1
 1566 007c 25000000 		.word	.L124+1
 1567 0080 25000000 		.word	.L124+1
 1568 0084 25000000 		.word	.L124+1
 1569 0088 25000000 		.word	.L124+1
 1570 008c 25000000 		.word	.L124+1
 1571 0090 4B010000 		.word	.L123+1
 1572 0094 4B010000 		.word	.L123+1
 1573 0098 4B010000 		.word	.L123+1
 1574 009c 4B010000 		.word	.L123+1
 1575 00a0 4B010000 		.word	.L123+1
 1576 00a4 4B010000 		.word	.L123+1
 1577 00a8 4B010000 		.word	.L123+1
 1578 00ac 4B010000 		.word	.L123+1
 1579 00b0 4B010000 		.word	.L123+1
ARM GAS  /var/folders/ww/n4ctlbrs3x70633t9y2ks63c0000gn/T//ccTX1xk7.s 			page 64


 1580 00b4 4B010000 		.word	.L123+1
 1581 00b8 4B010000 		.word	.L123+1
 1582 00bc 25000000 		.word	.L124+1
 1583 00c0 4B010000 		.word	.L123+1
 1584 00c4 4B010000 		.word	.L123+1
 1585 00c8 4B010000 		.word	.L123+1
 1586 00cc 4B010000 		.word	.L123+1
 1587 00d0 4B010000 		.word	.L123+1
 1588 00d4 4B010000 		.word	.L123+1
 1589 00d8 4B010000 		.word	.L123+1
 1590 00dc 4B010000 		.word	.L123+1
 1591 00e0 4B010000 		.word	.L123+1
 1592 00e4 4B010000 		.word	.L123+1
 1593 00e8 4B010000 		.word	.L123+1
 1594 00ec 4B010000 		.word	.L123+1
 1595 00f0 4B010000 		.word	.L123+1
 1596 00f4 4B010000 		.word	.L123+1
 1597 00f8 4B010000 		.word	.L123+1
 1598 00fc 4B010000 		.word	.L123+1
 1599 0100 4B010000 		.word	.L123+1
 1600 0104 4B010000 		.word	.L123+1
 1601 0108 4B010000 		.word	.L123+1
 1602 010c 4B010000 		.word	.L123+1
 1603 0110 4B010000 		.word	.L123+1
 1604 0114 4B010000 		.word	.L123+1
 1605 0118 4B010000 		.word	.L123+1
 1606 011c 4B010000 		.word	.L123+1
 1607 0120 4B010000 		.word	.L123+1
 1608 0124 4B010000 		.word	.L123+1
 1609 0128 4B010000 		.word	.L123+1
 1610 012c 4B010000 		.word	.L123+1
 1611 0130 4B010000 		.word	.L123+1
 1612 0134 4B010000 		.word	.L123+1
 1613 0138 4B010000 		.word	.L123+1
 1614 013c 25000000 		.word	.L124+1
 1615              		.p2align 1
 1616              	.L126:
 298:TOOL/cJSON.c  ****                 break;
 1617              		.loc 1 298 17 is_stmt 1 view .LVU449
 298:TOOL/cJSON.c  ****                 break;
 1618              		.loc 1 298 36 is_stmt 0 view .LVU450
 1619 0140 12AA     		add	r2, sp, #72
 1620 0142 1A44     		add	r2, r2, r3
 1621 0144 02F8440C 		strb	r0, [r2, #-68]
 299:TOOL/cJSON.c  **** 
 1622              		.loc 1 299 17 is_stmt 1 view .LVU451
 1623 0148 70E7     		b	.L127
 1624              	.L123:
 306:TOOL/cJSON.c  **** 
 1625              		.loc 1 306 5 view .LVU452
 306:TOOL/cJSON.c  **** 
 1626              		.loc 1 306 24 is_stmt 0 view .LVU453
 1627 014a 12AA     		add	r2, sp, #72
 1628 014c 1344     		add	r3, r3, r2
 1629              	.LVL147:
 306:TOOL/cJSON.c  **** 
 1630              		.loc 1 306 24 view .LVU454
ARM GAS  /var/folders/ww/n4ctlbrs3x70633t9y2ks63c0000gn/T//ccTX1xk7.s 			page 65


 1631 014e 0022     		movs	r2, #0
 1632 0150 03F8442C 		strb	r2, [r3, #-68]
 308:TOOL/cJSON.c  ****     if (number_c_string == after_end)
 1633              		.loc 1 308 5 is_stmt 1 view .LVU455
 308:TOOL/cJSON.c  ****     if (number_c_string == after_end)
 1634              		.loc 1 308 14 is_stmt 0 view .LVU456
 1635 0154 01AF     		add	r7, sp, #4
 1636 0156 11A9     		add	r1, sp, #68
 1637 0158 3846     		mov	r0, r7
 1638              	.LVL148:
 308:TOOL/cJSON.c  ****     if (number_c_string == after_end)
 1639              		.loc 1 308 14 view .LVU457
 1640 015a FFF7FEFF 		bl	strtod
 1641              	.LVL149:
 1642 015e 8046     		mov	r8, r0
 1643 0160 8946     		mov	r9, r1
 1644              	.LVL150:
 309:TOOL/cJSON.c  ****     {
 1645              		.loc 1 309 5 is_stmt 1 view .LVU458
 309:TOOL/cJSON.c  ****     {
 1646              		.loc 1 309 25 is_stmt 0 view .LVU459
 1647 0162 119E     		ldr	r6, [sp, #68]
 309:TOOL/cJSON.c  ****     {
 1648              		.loc 1 309 8 view .LVU460
 1649 0164 BE42     		cmp	r6, r7
 1650 0166 2AD0     		beq	.L136
 314:TOOL/cJSON.c  **** 
 1651              		.loc 1 314 5 is_stmt 1 view .LVU461
 314:TOOL/cJSON.c  **** 
 1652              		.loc 1 314 23 is_stmt 0 view .LVU462
 1653 0168 C5E90689 		strd	r8, [r5, #24]
 317:TOOL/cJSON.c  ****     {
 1654              		.loc 1 317 5 is_stmt 1 view .LVU463
 317:TOOL/cJSON.c  ****     {
 1655              		.loc 1 317 8 is_stmt 0 view .LVU464
 1656 016c 16A3     		adr	r3, .L142
 1657 016e D3E90023 		ldrd	r2, [r3]
 1658 0172 FFF7FEFF 		bl	__aeabi_dcmpge
 1659              	.LVL151:
 1660 0176 68B1     		cbz	r0, .L139
 319:TOOL/cJSON.c  ****     }
 1661              		.loc 1 319 9 is_stmt 1 view .LVU465
 319:TOOL/cJSON.c  ****     }
 1662              		.loc 1 319 24 is_stmt 0 view .LVU466
 1663 0178 6FF00043 		mvn	r3, #-2147483648
 1664 017c 6B61     		str	r3, [r5, #20]
 1665              	.L131:
 330:TOOL/cJSON.c  **** 
 1666              		.loc 1 330 5 is_stmt 1 view .LVU467
 330:TOOL/cJSON.c  **** 
 1667              		.loc 1 330 16 is_stmt 0 view .LVU468
 1668 017e 0823     		movs	r3, #8
 1669 0180 EB60     		str	r3, [r5, #12]
 332:TOOL/cJSON.c  ****     return true;
 1670              		.loc 1 332 5 is_stmt 1 view .LVU469
 332:TOOL/cJSON.c  ****     return true;
 1671              		.loc 1 332 48 is_stmt 0 view .LVU470
ARM GAS  /var/folders/ww/n4ctlbrs3x70633t9y2ks63c0000gn/T//ccTX1xk7.s 			page 66


 1672 0182 01AB     		add	r3, sp, #4
 1673 0184 F61A     		subs	r6, r6, r3
 332:TOOL/cJSON.c  ****     return true;
 1674              		.loc 1 332 26 view .LVU471
 1675 0186 A368     		ldr	r3, [r4, #8]
 1676 0188 1E44     		add	r6, r6, r3
 1677 018a A660     		str	r6, [r4, #8]
 333:TOOL/cJSON.c  **** }
 1678              		.loc 1 333 5 is_stmt 1 view .LVU472
 333:TOOL/cJSON.c  **** }
 1679              		.loc 1 333 12 is_stmt 0 view .LVU473
 1680 018c 0120     		movs	r0, #1
 1681              	.LVL152:
 1682              	.L120:
 334:TOOL/cJSON.c  **** 
 1683              		.loc 1 334 1 view .LVU474
 1684 018e 13B0     		add	sp, sp, #76
 1685              	.LCFI19:
 1686              		.cfi_remember_state
 1687              		.cfi_def_cfa_offset 28
 1688              		@ sp needed
 1689 0190 BDE8F083 		pop	{r4, r5, r6, r7, r8, r9, pc}
 1690              	.LVL153:
 1691              	.L139:
 1692              	.LCFI20:
 1693              		.cfi_restore_state
 321:TOOL/cJSON.c  ****     {
 1694              		.loc 1 321 10 is_stmt 1 view .LVU475
 321:TOOL/cJSON.c  ****     {
 1695              		.loc 1 321 13 is_stmt 0 view .LVU476
 1696 0194 0022     		movs	r2, #0
 1697 0196 0E4B     		ldr	r3, .L142+8
 1698 0198 4046     		mov	r0, r8
 1699 019a 4946     		mov	r1, r9
 1700 019c FFF7FEFF 		bl	__aeabi_dcmple
 1701              	.LVL154:
 1702 01a0 18B1     		cbz	r0, .L140
 323:TOOL/cJSON.c  ****     }
 1703              		.loc 1 323 9 is_stmt 1 view .LVU477
 323:TOOL/cJSON.c  ****     }
 1704              		.loc 1 323 24 is_stmt 0 view .LVU478
 1705 01a2 4FF00043 		mov	r3, #-2147483648
 1706 01a6 6B61     		str	r3, [r5, #20]
 1707 01a8 E9E7     		b	.L131
 1708              	.L140:
 327:TOOL/cJSON.c  ****     }
 1709              		.loc 1 327 9 is_stmt 1 view .LVU479
 327:TOOL/cJSON.c  ****     }
 1710              		.loc 1 327 26 is_stmt 0 view .LVU480
 1711 01aa 4046     		mov	r0, r8
 1712 01ac 4946     		mov	r1, r9
 1713 01ae FFF7FEFF 		bl	__aeabi_d2iz
 1714              	.LVL155:
 327:TOOL/cJSON.c  ****     }
 1715              		.loc 1 327 24 view .LVU481
 1716 01b2 6861     		str	r0, [r5, #20]
 1717 01b4 E3E7     		b	.L131
ARM GAS  /var/folders/ww/n4ctlbrs3x70633t9y2ks63c0000gn/T//ccTX1xk7.s 			page 67


 1718              	.LVL156:
 1719              	.L134:
 270:TOOL/cJSON.c  ****     }
 1720              		.loc 1 270 16 view .LVU482
 1721 01b6 0020     		movs	r0, #0
 1722              	.LVL157:
 270:TOOL/cJSON.c  ****     }
 1723              		.loc 1 270 16 view .LVU483
 1724 01b8 E9E7     		b	.L120
 1725              	.LVL158:
 1726              	.L135:
 270:TOOL/cJSON.c  ****     }
 1727              		.loc 1 270 16 view .LVU484
 1728 01ba 0020     		movs	r0, #0
 1729              	.LVL159:
 270:TOOL/cJSON.c  ****     }
 1730              		.loc 1 270 16 view .LVU485
 1731 01bc E7E7     		b	.L120
 1732              	.LVL160:
 1733              	.L136:
 311:TOOL/cJSON.c  ****     }
 1734              		.loc 1 311 16 view .LVU486
 1735 01be 0020     		movs	r0, #0
 1736 01c0 E5E7     		b	.L120
 1737              	.L143:
 1738 01c2 00BFAFF3 		.align	3
 1738      0080
 1739              	.L142:
 1740 01c8 0000C0FF 		.word	4290772992
 1741 01cc FFFFDF41 		.word	1105199103
 1742 01d0 0000E0C1 		.word	-1042284544
 1743              		.cfi_endproc
 1744              	.LFE79:
 1746              		.section	.text.ensure,"ax",%progbits
 1747              		.align	1
 1748              		.syntax unified
 1749              		.thumb
 1750              		.thumb_func
 1751              		.fpu softvfp
 1753              	ensure:
 1754              	.LVL161:
 1755              	.LFB81:
 368:TOOL/cJSON.c  ****     unsigned char *newbuffer = NULL;
 1756              		.loc 1 368 1 is_stmt 1 view -0
 1757              		.cfi_startproc
 1758              		@ args = 0, pretend = 0, frame = 0
 1759              		@ frame_needed = 0, uses_anonymous_args = 0
 368:TOOL/cJSON.c  ****     unsigned char *newbuffer = NULL;
 1760              		.loc 1 368 1 is_stmt 0 view .LVU488
 1761 0000 70B5     		push	{r4, r5, r6, lr}
 1762              	.LCFI21:
 1763              		.cfi_def_cfa_offset 16
 1764              		.cfi_offset 4, -16
 1765              		.cfi_offset 5, -12
 1766              		.cfi_offset 6, -8
 1767              		.cfi_offset 14, -4
 369:TOOL/cJSON.c  ****     size_t newsize = 0;
ARM GAS  /var/folders/ww/n4ctlbrs3x70633t9y2ks63c0000gn/T//ccTX1xk7.s 			page 68


 1768              		.loc 1 369 5 is_stmt 1 view .LVU489
 1769              	.LVL162:
 370:TOOL/cJSON.c  **** 
 1770              		.loc 1 370 5 view .LVU490
 372:TOOL/cJSON.c  ****     {
 1771              		.loc 1 372 5 view .LVU491
 372:TOOL/cJSON.c  ****     {
 1772              		.loc 1 372 8 is_stmt 0 view .LVU492
 1773 0002 0446     		mov	r4, r0
 1774 0004 0028     		cmp	r0, #0
 1775 0006 46D0     		beq	.L153
 372:TOOL/cJSON.c  ****     {
 1776              		.loc 1 372 26 discriminator 1 view .LVU493
 1777 0008 0668     		ldr	r6, [r0]
 372:TOOL/cJSON.c  ****     {
 1778              		.loc 1 372 21 discriminator 1 view .LVU494
 1779 000a 36B3     		cbz	r6, .L144
 377:TOOL/cJSON.c  ****     {
 1780              		.loc 1 377 5 is_stmt 1 view .LVU495
 377:TOOL/cJSON.c  ****     {
 1781              		.loc 1 377 11 is_stmt 0 view .LVU496
 1782 000c 4268     		ldr	r2, [r0, #4]
 377:TOOL/cJSON.c  ****     {
 1783              		.loc 1 377 8 view .LVU497
 1784 000e 12B1     		cbz	r2, .L146
 377:TOOL/cJSON.c  ****     {
 1785              		.loc 1 377 30 discriminator 1 view .LVU498
 1786 0010 8068     		ldr	r0, [r0, #8]
 1787              	.LVL163:
 377:TOOL/cJSON.c  ****     {
 1788              		.loc 1 377 25 discriminator 1 view .LVU499
 1789 0012 8242     		cmp	r2, r0
 1790 0014 41D9     		bls	.L154
 1791              	.L146:
 383:TOOL/cJSON.c  ****     {
 1792              		.loc 1 383 5 is_stmt 1 view .LVU500
 383:TOOL/cJSON.c  ****     {
 1793              		.loc 1 383 8 is_stmt 0 view .LVU501
 1794 0016 0029     		cmp	r1, #0
 1795 0018 41DB     		blt	.L155
 389:TOOL/cJSON.c  ****     if (needed <= p->length)
 1796              		.loc 1 389 5 is_stmt 1 view .LVU502
 389:TOOL/cJSON.c  ****     if (needed <= p->length)
 1797              		.loc 1 389 16 is_stmt 0 view .LVU503
 1798 001a A068     		ldr	r0, [r4, #8]
 389:TOOL/cJSON.c  ****     if (needed <= p->length)
 1799              		.loc 1 389 12 view .LVU504
 1800 001c 0144     		add	r1, r1, r0
 1801              	.LVL164:
 389:TOOL/cJSON.c  ****     if (needed <= p->length)
 1802              		.loc 1 389 12 view .LVU505
 1803 001e 0131     		adds	r1, r1, #1
 1804              	.LVL165:
 390:TOOL/cJSON.c  ****     {
 1805              		.loc 1 390 5 is_stmt 1 view .LVU506
 390:TOOL/cJSON.c  ****     {
 1806              		.loc 1 390 8 is_stmt 0 view .LVU507
ARM GAS  /var/folders/ww/n4ctlbrs3x70633t9y2ks63c0000gn/T//ccTX1xk7.s 			page 69


 1807 0020 8A42     		cmp	r2, r1
 1808 0022 0AD2     		bcs	.L159
 395:TOOL/cJSON.c  ****         return NULL;
 1809              		.loc 1 395 5 is_stmt 1 view .LVU508
 395:TOOL/cJSON.c  ****         return NULL;
 1810              		.loc 1 395 10 is_stmt 0 view .LVU509
 1811 0024 2269     		ldr	r2, [r4, #16]
 395:TOOL/cJSON.c  ****         return NULL;
 1812              		.loc 1 395 8 view .LVU510
 1813 0026 002A     		cmp	r2, #0
 1814 0028 3BD1     		bne	.L156
 400:TOOL/cJSON.c  ****     {
 1815              		.loc 1 400 5 is_stmt 1 view .LVU511
 400:TOOL/cJSON.c  ****     {
 1816              		.loc 1 400 8 is_stmt 0 view .LVU512
 1817 002a B1F1804F 		cmp	r1, #1073741824
 1818 002e 08D3     		bcc	.L148
 403:TOOL/cJSON.c  ****         {
 1819              		.loc 1 403 9 is_stmt 1 view .LVU513
 403:TOOL/cJSON.c  ****         {
 1820              		.loc 1 403 12 is_stmt 0 view .LVU514
 1821 0030 0029     		cmp	r1, #0
 1822 0032 04DB     		blt	.L160
 405:TOOL/cJSON.c  ****         }
 1823              		.loc 1 405 21 view .LVU515
 1824 0034 6FF00045 		mvn	r5, #-2147483648
 1825 0038 04E0     		b	.L149
 1826              	.L159:
 392:TOOL/cJSON.c  ****     }
 1827              		.loc 1 392 9 is_stmt 1 view .LVU516
 392:TOOL/cJSON.c  ****     }
 1828              		.loc 1 392 26 is_stmt 0 view .LVU517
 1829 003a 0644     		add	r6, r6, r0
 1830 003c 0DE0     		b	.L144
 1831              	.L160:
 409:TOOL/cJSON.c  ****         }
 1832              		.loc 1 409 20 view .LVU518
 1833 003e 0026     		movs	r6, #0
 1834 0040 0BE0     		b	.L144
 1835              	.L148:
 414:TOOL/cJSON.c  ****     }
 1836              		.loc 1 414 9 is_stmt 1 view .LVU519
 414:TOOL/cJSON.c  ****     }
 1837              		.loc 1 414 17 is_stmt 0 view .LVU520
 1838 0042 4D00     		lsls	r5, r1, #1
 1839              	.LVL166:
 1840              	.L149:
 417:TOOL/cJSON.c  ****     {
 1841              		.loc 1 417 5 is_stmt 1 view .LVU521
 417:TOOL/cJSON.c  ****     {
 1842              		.loc 1 417 17 is_stmt 0 view .LVU522
 1843 0044 236A     		ldr	r3, [r4, #32]
 417:TOOL/cJSON.c  ****     {
 1844              		.loc 1 417 8 view .LVU523
 1845 0046 8BB1     		cbz	r3, .L150
 420:TOOL/cJSON.c  ****         if (newbuffer == NULL)
 1846              		.loc 1 420 9 is_stmt 1 view .LVU524
ARM GAS  /var/folders/ww/n4ctlbrs3x70633t9y2ks63c0000gn/T//ccTX1xk7.s 			page 70


 420:TOOL/cJSON.c  ****         if (newbuffer == NULL)
 1847              		.loc 1 420 37 is_stmt 0 view .LVU525
 1848 0048 2946     		mov	r1, r5
 1849              	.LVL167:
 420:TOOL/cJSON.c  ****         if (newbuffer == NULL)
 1850              		.loc 1 420 37 view .LVU526
 1851 004a 3046     		mov	r0, r6
 1852              	.LVL168:
 420:TOOL/cJSON.c  ****         if (newbuffer == NULL)
 1853              		.loc 1 420 37 view .LVU527
 1854 004c 9847     		blx	r3
 1855              	.LVL169:
 421:TOOL/cJSON.c  ****         {
 1856              		.loc 1 421 9 is_stmt 1 view .LVU528
 421:TOOL/cJSON.c  ****         {
 1857              		.loc 1 421 12 is_stmt 0 view .LVU529
 1858 004e 0646     		mov	r6, r0
 1859 0050 28B1     		cbz	r0, .L161
 1860              	.LVL170:
 1861              	.L151:
 448:TOOL/cJSON.c  ****     p->buffer = newbuffer;
 1862              		.loc 1 448 5 is_stmt 1 view .LVU530
 448:TOOL/cJSON.c  ****     p->buffer = newbuffer;
 1863              		.loc 1 448 15 is_stmt 0 view .LVU531
 1864 0052 6560     		str	r5, [r4, #4]
 449:TOOL/cJSON.c  **** 
 1865              		.loc 1 449 5 is_stmt 1 view .LVU532
 449:TOOL/cJSON.c  **** 
 1866              		.loc 1 449 15 is_stmt 0 view .LVU533
 1867 0054 2660     		str	r6, [r4]
 451:TOOL/cJSON.c  **** }
 1868              		.loc 1 451 5 is_stmt 1 view .LVU534
 451:TOOL/cJSON.c  **** }
 1869              		.loc 1 451 25 is_stmt 0 view .LVU535
 1870 0056 A368     		ldr	r3, [r4, #8]
 451:TOOL/cJSON.c  **** }
 1871              		.loc 1 451 22 view .LVU536
 1872 0058 1E44     		add	r6, r6, r3
 1873              	.LVL171:
 1874              	.L144:
 452:TOOL/cJSON.c  **** 
 1875              		.loc 1 452 1 view .LVU537
 1876 005a 3046     		mov	r0, r6
 1877 005c 70BD     		pop	{r4, r5, r6, pc}
 1878              	.LVL172:
 1879              	.L161:
 423:TOOL/cJSON.c  ****             p->length = 0;
 1880              		.loc 1 423 13 is_stmt 1 view .LVU538
 423:TOOL/cJSON.c  ****             p->length = 0;
 1881              		.loc 1 423 21 is_stmt 0 view .LVU539
 1882 005e E369     		ldr	r3, [r4, #28]
 423:TOOL/cJSON.c  ****             p->length = 0;
 1883              		.loc 1 423 13 view .LVU540
 1884 0060 2068     		ldr	r0, [r4]
 1885              	.LVL173:
 423:TOOL/cJSON.c  ****             p->length = 0;
 1886              		.loc 1 423 13 view .LVU541
ARM GAS  /var/folders/ww/n4ctlbrs3x70633t9y2ks63c0000gn/T//ccTX1xk7.s 			page 71


 1887 0062 9847     		blx	r3
 1888              	.LVL174:
 424:TOOL/cJSON.c  ****             p->buffer = NULL;
 1889              		.loc 1 424 13 is_stmt 1 view .LVU542
 424:TOOL/cJSON.c  ****             p->buffer = NULL;
 1890              		.loc 1 424 23 is_stmt 0 view .LVU543
 1891 0064 0023     		movs	r3, #0
 1892 0066 6360     		str	r3, [r4, #4]
 425:TOOL/cJSON.c  **** 
 1893              		.loc 1 425 13 is_stmt 1 view .LVU544
 425:TOOL/cJSON.c  **** 
 1894              		.loc 1 425 23 is_stmt 0 view .LVU545
 1895 0068 2360     		str	r3, [r4]
 427:TOOL/cJSON.c  ****         }
 1896              		.loc 1 427 13 is_stmt 1 view .LVU546
 427:TOOL/cJSON.c  ****         }
 1897              		.loc 1 427 20 is_stmt 0 view .LVU547
 1898 006a F6E7     		b	.L144
 1899              	.LVL175:
 1900              	.L150:
 433:TOOL/cJSON.c  ****         if (!newbuffer)
 1901              		.loc 1 433 9 is_stmt 1 view .LVU548
 433:TOOL/cJSON.c  ****         if (!newbuffer)
 1902              		.loc 1 433 45 is_stmt 0 view .LVU549
 1903 006c A369     		ldr	r3, [r4, #24]
 433:TOOL/cJSON.c  ****         if (!newbuffer)
 1904              		.loc 1 433 37 view .LVU550
 1905 006e 2846     		mov	r0, r5
 1906 0070 9847     		blx	r3
 1907              	.LVL176:
 434:TOOL/cJSON.c  ****         {
 1908              		.loc 1 434 9 is_stmt 1 view .LVU551
 434:TOOL/cJSON.c  ****         {
 1909              		.loc 1 434 12 is_stmt 0 view .LVU552
 1910 0072 0646     		mov	r6, r0
 1911 0074 40B1     		cbz	r0, .L162
 442:TOOL/cJSON.c  ****         {
 1912              		.loc 1 442 9 is_stmt 1 view .LVU553
 444:TOOL/cJSON.c  ****         }
 1913              		.loc 1 444 13 view .LVU554
 444:TOOL/cJSON.c  ****         }
 1914              		.loc 1 444 43 is_stmt 0 view .LVU555
 1915 0076 A268     		ldr	r2, [r4, #8]
 444:TOOL/cJSON.c  ****         }
 1916              		.loc 1 444 13 view .LVU556
 1917 0078 0132     		adds	r2, r2, #1
 1918 007a 2168     		ldr	r1, [r4]
 1919 007c FFF7FEFF 		bl	memcpy
 1920              	.LVL177:
 446:TOOL/cJSON.c  ****     }
 1921              		.loc 1 446 9 is_stmt 1 view .LVU557
 446:TOOL/cJSON.c  ****     }
 1922              		.loc 1 446 17 is_stmt 0 view .LVU558
 1923 0080 E369     		ldr	r3, [r4, #28]
 446:TOOL/cJSON.c  ****     }
 1924              		.loc 1 446 9 view .LVU559
 1925 0082 2068     		ldr	r0, [r4]
ARM GAS  /var/folders/ww/n4ctlbrs3x70633t9y2ks63c0000gn/T//ccTX1xk7.s 			page 72


 1926 0084 9847     		blx	r3
 1927              	.LVL178:
 1928 0086 E4E7     		b	.L151
 1929              	.LVL179:
 1930              	.L162:
 436:TOOL/cJSON.c  ****             p->length = 0;
 1931              		.loc 1 436 13 is_stmt 1 view .LVU560
 436:TOOL/cJSON.c  ****             p->length = 0;
 1932              		.loc 1 436 21 is_stmt 0 view .LVU561
 1933 0088 E369     		ldr	r3, [r4, #28]
 436:TOOL/cJSON.c  ****             p->length = 0;
 1934              		.loc 1 436 13 view .LVU562
 1935 008a 2068     		ldr	r0, [r4]
 1936              	.LVL180:
 436:TOOL/cJSON.c  ****             p->length = 0;
 1937              		.loc 1 436 13 view .LVU563
 1938 008c 9847     		blx	r3
 1939              	.LVL181:
 437:TOOL/cJSON.c  ****             p->buffer = NULL;
 1940              		.loc 1 437 13 is_stmt 1 view .LVU564
 437:TOOL/cJSON.c  ****             p->buffer = NULL;
 1941              		.loc 1 437 23 is_stmt 0 view .LVU565
 1942 008e 0023     		movs	r3, #0
 1943 0090 6360     		str	r3, [r4, #4]
 438:TOOL/cJSON.c  **** 
 1944              		.loc 1 438 13 is_stmt 1 view .LVU566
 438:TOOL/cJSON.c  **** 
 1945              		.loc 1 438 23 is_stmt 0 view .LVU567
 1946 0092 2360     		str	r3, [r4]
 440:TOOL/cJSON.c  ****         }
 1947              		.loc 1 440 13 is_stmt 1 view .LVU568
 440:TOOL/cJSON.c  ****         }
 1948              		.loc 1 440 20 is_stmt 0 view .LVU569
 1949 0094 E1E7     		b	.L144
 1950              	.LVL182:
 1951              	.L153:
 374:TOOL/cJSON.c  ****     }
 1952              		.loc 1 374 16 view .LVU570
 1953 0096 0646     		mov	r6, r0
 1954 0098 DFE7     		b	.L144
 1955              	.LVL183:
 1956              	.L154:
 380:TOOL/cJSON.c  ****     }
 1957              		.loc 1 380 16 view .LVU571
 1958 009a 0026     		movs	r6, #0
 1959 009c DDE7     		b	.L144
 1960              	.L155:
 386:TOOL/cJSON.c  ****     }
 1961              		.loc 1 386 16 view .LVU572
 1962 009e 0026     		movs	r6, #0
 1963 00a0 DBE7     		b	.L144
 1964              	.L156:
 396:TOOL/cJSON.c  ****     }
 1965              		.loc 1 396 16 view .LVU573
 1966 00a2 0026     		movs	r6, #0
 1967 00a4 D9E7     		b	.L144
 1968              		.cfi_endproc
ARM GAS  /var/folders/ww/n4ctlbrs3x70633t9y2ks63c0000gn/T//ccTX1xk7.s 			page 73


 1969              	.LFE81:
 1971              		.section	.text.cJSON_strdup,"ax",%progbits
 1972              		.align	1
 1973              		.syntax unified
 1974              		.thumb
 1975              		.thumb_func
 1976              		.fpu softvfp
 1978              	cJSON_strdup:
 1979              	.LVL184:
 1980              	.LFB74:
 144:TOOL/cJSON.c  ****     size_t length = 0;
 1981              		.loc 1 144 1 is_stmt 1 view -0
 1982              		.cfi_startproc
 1983              		@ args = 0, pretend = 0, frame = 0
 1984              		@ frame_needed = 0, uses_anonymous_args = 0
 144:TOOL/cJSON.c  ****     size_t length = 0;
 1985              		.loc 1 144 1 is_stmt 0 view .LVU575
 1986 0000 70B5     		push	{r4, r5, r6, lr}
 1987              	.LCFI22:
 1988              		.cfi_def_cfa_offset 16
 1989              		.cfi_offset 4, -16
 1990              		.cfi_offset 5, -12
 1991              		.cfi_offset 6, -8
 1992              		.cfi_offset 14, -4
 145:TOOL/cJSON.c  ****     unsigned char *copy = NULL;
 1993              		.loc 1 145 5 is_stmt 1 view .LVU576
 1994              	.LVL185:
 146:TOOL/cJSON.c  **** 
 1995              		.loc 1 146 5 view .LVU577
 148:TOOL/cJSON.c  ****     {
 1996              		.loc 1 148 5 view .LVU578
 148:TOOL/cJSON.c  ****     {
 1997              		.loc 1 148 8 is_stmt 0 view .LVU579
 1998 0002 0446     		mov	r4, r0
 1999 0004 70B1     		cbz	r0, .L165
 2000 0006 0D46     		mov	r5, r1
 153:TOOL/cJSON.c  ****     copy = (unsigned char*)hooks->allocate(length);
 2001              		.loc 1 153 5 is_stmt 1 view .LVU580
 153:TOOL/cJSON.c  ****     copy = (unsigned char*)hooks->allocate(length);
 2002              		.loc 1 153 14 is_stmt 0 view .LVU581
 2003 0008 FFF7FEFF 		bl	strlen
 2004              	.LVL186:
 153:TOOL/cJSON.c  ****     copy = (unsigned char*)hooks->allocate(length);
 2005              		.loc 1 153 12 view .LVU582
 2006 000c 461C     		adds	r6, r0, #1
 2007              	.LVL187:
 154:TOOL/cJSON.c  ****     if (copy == NULL)
 2008              		.loc 1 154 5 is_stmt 1 view .LVU583
 154:TOOL/cJSON.c  ****     if (copy == NULL)
 2009              		.loc 1 154 33 is_stmt 0 view .LVU584
 2010 000e 2B68     		ldr	r3, [r5]
 154:TOOL/cJSON.c  ****     if (copy == NULL)
 2011              		.loc 1 154 28 view .LVU585
 2012 0010 3046     		mov	r0, r6
 2013 0012 9847     		blx	r3
 2014              	.LVL188:
 155:TOOL/cJSON.c  ****     {
ARM GAS  /var/folders/ww/n4ctlbrs3x70633t9y2ks63c0000gn/T//ccTX1xk7.s 			page 74


 2015              		.loc 1 155 5 is_stmt 1 view .LVU586
 155:TOOL/cJSON.c  ****     {
 2016              		.loc 1 155 8 is_stmt 0 view .LVU587
 2017 0014 0546     		mov	r5, r0
 2018              	.LVL189:
 155:TOOL/cJSON.c  ****     {
 2019              		.loc 1 155 8 view .LVU588
 2020 0016 18B1     		cbz	r0, .L163
 159:TOOL/cJSON.c  **** 
 2021              		.loc 1 159 5 is_stmt 1 view .LVU589
 2022 0018 3246     		mov	r2, r6
 2023 001a 2146     		mov	r1, r4
 2024 001c FFF7FEFF 		bl	memcpy
 2025              	.LVL190:
 161:TOOL/cJSON.c  **** }
 2026              		.loc 1 161 5 view .LVU590
 2027              	.L163:
 162:TOOL/cJSON.c  **** 
 2028              		.loc 1 162 1 is_stmt 0 view .LVU591
 2029 0020 2846     		mov	r0, r5
 2030 0022 70BD     		pop	{r4, r5, r6, pc}
 2031              	.LVL191:
 2032              	.L165:
 150:TOOL/cJSON.c  ****     }
 2033              		.loc 1 150 16 view .LVU592
 2034 0024 0546     		mov	r5, r0
 2035 0026 FBE7     		b	.L163
 2036              		.cfi_endproc
 2037              	.LFE74:
 2039              		.section	.text.create_reference,"ax",%progbits
 2040              		.align	1
 2041              		.syntax unified
 2042              		.thumb
 2043              		.thumb_func
 2044              		.fpu softvfp
 2046              	create_reference:
 2047              	.LVL192:
 2048              	.LFB112:
1817:TOOL/cJSON.c  **** 
1818:TOOL/cJSON.c  **** /* Utility for handling references. */
1819:TOOL/cJSON.c  **** static cJSON *create_reference(const cJSON *item, const internal_hooks * const hooks)
1820:TOOL/cJSON.c  **** {
 2049              		.loc 1 1820 1 is_stmt 1 view -0
 2050              		.cfi_startproc
 2051              		@ args = 0, pretend = 0, frame = 0
 2052              		@ frame_needed = 0, uses_anonymous_args = 0
 2053              		.loc 1 1820 1 is_stmt 0 view .LVU594
 2054 0000 F8B5     		push	{r3, r4, r5, r6, r7, lr}
 2055              	.LCFI23:
 2056              		.cfi_def_cfa_offset 24
 2057              		.cfi_offset 3, -24
 2058              		.cfi_offset 4, -20
 2059              		.cfi_offset 5, -16
 2060              		.cfi_offset 6, -12
 2061              		.cfi_offset 7, -8
 2062              		.cfi_offset 14, -4
1821:TOOL/cJSON.c  ****     cJSON *reference = NULL;
ARM GAS  /var/folders/ww/n4ctlbrs3x70633t9y2ks63c0000gn/T//ccTX1xk7.s 			page 75


 2063              		.loc 1 1821 5 is_stmt 1 view .LVU595
 2064              	.LVL193:
1822:TOOL/cJSON.c  ****     if (item == NULL)
 2065              		.loc 1 1822 5 view .LVU596
 2066              		.loc 1 1822 8 is_stmt 0 view .LVU597
 2067 0002 0446     		mov	r4, r0
 2068 0004 08B3     		cbz	r0, .L170
 2069 0006 0846     		mov	r0, r1
 2070              	.LVL194:
1823:TOOL/cJSON.c  ****     {
1824:TOOL/cJSON.c  ****         return NULL;
1825:TOOL/cJSON.c  ****     }
1826:TOOL/cJSON.c  **** 
1827:TOOL/cJSON.c  ****     reference = cJSON_New_Item(hooks);
 2071              		.loc 1 1827 5 is_stmt 1 view .LVU598
 2072              		.loc 1 1827 17 is_stmt 0 view .LVU599
 2073 0008 FFF7FEFF 		bl	cJSON_New_Item
 2074              	.LVL195:
1828:TOOL/cJSON.c  ****     if (reference == NULL)
 2075              		.loc 1 1828 5 is_stmt 1 view .LVU600
 2076              		.loc 1 1828 8 is_stmt 0 view .LVU601
 2077 000c 0146     		mov	r1, r0
 2078 000e D0B1     		cbz	r0, .L167
1829:TOOL/cJSON.c  ****     {
1830:TOOL/cJSON.c  ****         return NULL;
1831:TOOL/cJSON.c  ****     }
1832:TOOL/cJSON.c  **** 
1833:TOOL/cJSON.c  ****     memcpy(reference, item, sizeof(cJSON));
 2079              		.loc 1 1833 5 is_stmt 1 view .LVU602
 2080 0010 2346     		mov	r3, r4
 2081 0012 0246     		mov	r2, r0
 2082 0014 2034     		adds	r4, r4, #32
 2083              	.LVL196:
 2084              	.L169:
 2085              		.loc 1 1833 5 is_stmt 0 view .LVU603
 2086 0016 1F68     		ldr	r7, [r3]	@ unaligned
 2087 0018 5E68     		ldr	r6, [r3, #4]	@ unaligned
 2088 001a 9D68     		ldr	r5, [r3, #8]	@ unaligned
 2089 001c D868     		ldr	r0, [r3, #12]	@ unaligned
 2090 001e 1760     		str	r7, [r2]	@ unaligned
 2091 0020 5660     		str	r6, [r2, #4]	@ unaligned
 2092 0022 9560     		str	r5, [r2, #8]	@ unaligned
 2093 0024 D060     		str	r0, [r2, #12]	@ unaligned
 2094 0026 1033     		adds	r3, r3, #16
 2095 0028 1032     		adds	r2, r2, #16
 2096 002a A342     		cmp	r3, r4
 2097 002c F3D1     		bne	.L169
 2098 002e 1868     		ldr	r0, [r3]	@ unaligned
 2099 0030 5B68     		ldr	r3, [r3, #4]	@ unaligned
 2100 0032 1060     		str	r0, [r2]	@ unaligned
 2101 0034 5360     		str	r3, [r2, #4]	@ unaligned
1834:TOOL/cJSON.c  ****     reference->string = NULL;
 2102              		.loc 1 1834 5 is_stmt 1 view .LVU604
 2103              		.loc 1 1834 23 is_stmt 0 view .LVU605
 2104 0036 0023     		movs	r3, #0
 2105 0038 0B62     		str	r3, [r1, #32]
1835:TOOL/cJSON.c  ****     reference->type |= cJSON_IsReference;
ARM GAS  /var/folders/ww/n4ctlbrs3x70633t9y2ks63c0000gn/T//ccTX1xk7.s 			page 76


 2106              		.loc 1 1835 5 is_stmt 1 view .LVU606
 2107              		.loc 1 1835 21 is_stmt 0 view .LVU607
 2108 003a CA68     		ldr	r2, [r1, #12]
 2109 003c 42F48072 		orr	r2, r2, #256
 2110 0040 CA60     		str	r2, [r1, #12]
1836:TOOL/cJSON.c  ****     reference->next = reference->prev = NULL;
 2111              		.loc 1 1836 5 is_stmt 1 view .LVU608
 2112              		.loc 1 1836 39 is_stmt 0 view .LVU609
 2113 0042 4B60     		str	r3, [r1, #4]
 2114              		.loc 1 1836 21 view .LVU610
 2115 0044 0B60     		str	r3, [r1]
1837:TOOL/cJSON.c  ****     return reference;
 2116              		.loc 1 1837 5 is_stmt 1 view .LVU611
 2117              	.LVL197:
 2118              	.L167:
1838:TOOL/cJSON.c  **** }
 2119              		.loc 1 1838 1 is_stmt 0 view .LVU612
 2120 0046 0846     		mov	r0, r1
 2121 0048 F8BD     		pop	{r3, r4, r5, r6, r7, pc}
 2122              	.LVL198:
 2123              	.L170:
1824:TOOL/cJSON.c  ****     }
 2124              		.loc 1 1824 16 view .LVU613
 2125 004a 0146     		mov	r1, r0
 2126              	.LVL199:
1824:TOOL/cJSON.c  ****     }
 2127              		.loc 1 1824 16 view .LVU614
 2128 004c FBE7     		b	.L167
 2129              		.cfi_endproc
 2130              	.LFE112:
 2132              		.section	.text.print_string_ptr,"ax",%progbits
 2133              		.align	1
 2134              		.syntax unified
 2135              		.thumb
 2136              		.thumb_func
 2137              		.fpu softvfp
 2139              	print_string_ptr:
 2140              	.LVL200:
 2141              	.LFB87:
 822:TOOL/cJSON.c  ****     const unsigned char *input_pointer = NULL;
 2142              		.loc 1 822 1 is_stmt 1 view -0
 2143              		.cfi_startproc
 2144              		@ args = 0, pretend = 0, frame = 0
 2145              		@ frame_needed = 0, uses_anonymous_args = 0
 823:TOOL/cJSON.c  ****     unsigned char *output = NULL;
 2146              		.loc 1 823 5 view .LVU616
 824:TOOL/cJSON.c  ****     unsigned char *output_pointer = NULL;
 2147              		.loc 1 824 5 view .LVU617
 825:TOOL/cJSON.c  ****     size_t output_length = 0;
 2148              		.loc 1 825 5 view .LVU618
 826:TOOL/cJSON.c  ****     /* numbers of additional characters needed for escaping */
 2149              		.loc 1 826 5 view .LVU619
 828:TOOL/cJSON.c  **** 
 2150              		.loc 1 828 5 view .LVU620
 830:TOOL/cJSON.c  ****     {
 2151              		.loc 1 830 5 view .LVU621
 830:TOOL/cJSON.c  ****     {
ARM GAS  /var/folders/ww/n4ctlbrs3x70633t9y2ks63c0000gn/T//ccTX1xk7.s 			page 77


 2152              		.loc 1 830 8 is_stmt 0 view .LVU622
 2153 0000 0029     		cmp	r1, #0
 2154 0002 00F08780 		beq	.L194
 822:TOOL/cJSON.c  ****     const unsigned char *input_pointer = NULL;
 2155              		.loc 1 822 1 view .LVU623
 2156 0006 F8B5     		push	{r3, r4, r5, r6, r7, lr}
 2157              	.LCFI24:
 2158              		.cfi_def_cfa_offset 24
 2159              		.cfi_offset 3, -24
 2160              		.cfi_offset 4, -20
 2161              		.cfi_offset 5, -16
 2162              		.cfi_offset 6, -12
 2163              		.cfi_offset 7, -8
 2164              		.cfi_offset 14, -4
 2165 0008 0546     		mov	r5, r0
 2166 000a 0846     		mov	r0, r1
 2167              	.LVL201:
 836:TOOL/cJSON.c  ****     {
 2168              		.loc 1 836 5 is_stmt 1 view .LVU624
 836:TOOL/cJSON.c  ****     {
 2169              		.loc 1 836 8 is_stmt 0 view .LVU625
 2170 000c 15B1     		cbz	r5, .L202
 849:TOOL/cJSON.c  ****     {
 2171              		.loc 1 849 24 view .LVU626
 2172 000e 2946     		mov	r1, r5
 2173              	.LVL202:
 828:TOOL/cJSON.c  **** 
 2174              		.loc 1 828 12 view .LVU627
 2175 0010 0026     		movs	r6, #0
 2176 0012 12E0     		b	.L174
 2177              	.L202:
 838:TOOL/cJSON.c  ****         if (output == NULL)
 2178              		.loc 1 838 9 is_stmt 1 view .LVU628
 838:TOOL/cJSON.c  ****         if (output == NULL)
 2179              		.loc 1 838 18 is_stmt 0 view .LVU629
 2180 0014 0321     		movs	r1, #3
 2181 0016 FFF7FEFF 		bl	ensure
 2182              	.LVL203:
 839:TOOL/cJSON.c  ****         {
 2183              		.loc 1 839 9 is_stmt 1 view .LVU630
 839:TOOL/cJSON.c  ****         {
 2184              		.loc 1 839 12 is_stmt 0 view .LVU631
 2185 001a 0346     		mov	r3, r0
 2186 001c 0028     		cmp	r0, #0
 2187 001e 7BD0     		beq	.L196
 843:TOOL/cJSON.c  **** 
 2188              		.loc 1 843 9 is_stmt 1 view .LVU632
 2189 0020 3F4A     		ldr	r2, .L208
 2190 0022 1188     		ldrh	r1, [r2]	@ unaligned
 2191 0024 9278     		ldrb	r2, [r2, #2]	@ zero_extendqisi2
 2192 0026 1980     		strh	r1, [r3]	@ unaligned
 2193 0028 9A70     		strb	r2, [r3, #2]
 845:TOOL/cJSON.c  ****     }
 2194              		.loc 1 845 9 view .LVU633
 845:TOOL/cJSON.c  ****     }
 2195              		.loc 1 845 16 is_stmt 0 view .LVU634
 2196 002a 0120     		movs	r0, #1
ARM GAS  /var/folders/ww/n4ctlbrs3x70633t9y2ks63c0000gn/T//ccTX1xk7.s 			page 78


 2197              	.LVL204:
 845:TOOL/cJSON.c  ****     }
 2198              		.loc 1 845 16 view .LVU635
 2199 002c 71E0     		b	.L172
 2200              	.LVL205:
 2201              	.L175:
 851:TOOL/cJSON.c  ****         {
 2202              		.loc 1 851 9 view .LVU636
 2203 002e 222B     		cmp	r3, #34
 2204 0030 01D0     		beq	.L176
 2205 0032 5C2B     		cmp	r3, #92
 2206 0034 0CD1     		bne	.L177
 2207              	.L176:
 861:TOOL/cJSON.c  ****                 break;
 2208              		.loc 1 861 17 is_stmt 1 view .LVU637
 861:TOOL/cJSON.c  ****                 break;
 2209              		.loc 1 861 34 is_stmt 0 view .LVU638
 2210 0036 0136     		adds	r6, r6, #1
 2211              	.LVL206:
 862:TOOL/cJSON.c  ****             default:
 2212              		.loc 1 862 17 is_stmt 1 view .LVU639
 2213              	.L178:
 849:TOOL/cJSON.c  ****     {
 2214              		.loc 1 849 62 is_stmt 0 discriminator 2 view .LVU640
 2215 0038 0131     		adds	r1, r1, #1
 2216              	.LVL207:
 2217              	.L174:
 849:TOOL/cJSON.c  ****     {
 2218              		.loc 1 849 33 discriminator 1 view .LVU641
 2219 003a 0B78     		ldrb	r3, [r1]	@ zero_extendqisi2
 849:TOOL/cJSON.c  ****     {
 2220              		.loc 1 849 5 discriminator 1 view .LVU642
 2221 003c 63B1     		cbz	r3, .L203
 851:TOOL/cJSON.c  ****         {
 2222              		.loc 1 851 9 is_stmt 1 view .LVU643
 2223 003e 0D2B     		cmp	r3, #13
 2224 0040 F5D8     		bhi	.L175
 2225 0042 0C2B     		cmp	r3, #12
 2226 0044 F7D2     		bcs	.L176
 2227 0046 A3F10802 		sub	r2, r3, #8
 2228 004a D2B2     		uxtb	r2, r2
 2229 004c 022A     		cmp	r2, #2
 2230 004e F2D9     		bls	.L176
 2231              	.L177:
 864:TOOL/cJSON.c  ****                 {
 2232              		.loc 1 864 17 view .LVU644
 864:TOOL/cJSON.c  ****                 {
 2233              		.loc 1 864 20 is_stmt 0 view .LVU645
 2234 0050 1F2B     		cmp	r3, #31
 2235 0052 F1D8     		bhi	.L178
 867:TOOL/cJSON.c  ****                 }
 2236              		.loc 1 867 21 is_stmt 1 view .LVU646
 867:TOOL/cJSON.c  ****                 }
 2237              		.loc 1 867 39 is_stmt 0 view .LVU647
 2238 0054 0536     		adds	r6, r6, #5
 2239              	.LVL208:
 867:TOOL/cJSON.c  ****                 }
ARM GAS  /var/folders/ww/n4ctlbrs3x70633t9y2ks63c0000gn/T//ccTX1xk7.s 			page 79


 2240              		.loc 1 867 39 view .LVU648
 2241 0056 EFE7     		b	.L178
 2242              	.L203:
 872:TOOL/cJSON.c  **** 
 2243              		.loc 1 872 5 is_stmt 1 view .LVU649
 872:TOOL/cJSON.c  **** 
 2244              		.loc 1 872 44 is_stmt 0 view .LVU650
 2245 0058 491B     		subs	r1, r1, r5
 2246              	.LVL209:
 872:TOOL/cJSON.c  **** 
 2247              		.loc 1 872 19 view .LVU651
 2248 005a 8C19     		adds	r4, r1, r6
 2249              	.LVL210:
 874:TOOL/cJSON.c  ****     if (output == NULL)
 2250              		.loc 1 874 5 is_stmt 1 view .LVU652
 874:TOOL/cJSON.c  ****     if (output == NULL)
 2251              		.loc 1 874 14 is_stmt 0 view .LVU653
 2252 005c E11C     		adds	r1, r4, #3
 2253 005e FFF7FEFF 		bl	ensure
 2254              	.LVL211:
 875:TOOL/cJSON.c  ****     {
 2255              		.loc 1 875 5 is_stmt 1 view .LVU654
 875:TOOL/cJSON.c  ****     {
 2256              		.loc 1 875 8 is_stmt 0 view .LVU655
 2257 0062 0746     		mov	r7, r0
 2258 0064 0028     		cmp	r0, #0
 2259 0066 59D0     		beq	.L197
 881:TOOL/cJSON.c  ****     {
 2260              		.loc 1 881 5 is_stmt 1 view .LVU656
 881:TOOL/cJSON.c  ****     {
 2261              		.loc 1 881 8 is_stmt 0 view .LVU657
 2262 0068 26B1     		cbz	r6, .L204
 891:TOOL/cJSON.c  ****     output_pointer = output + 1;
 2263              		.loc 1 891 5 is_stmt 1 view .LVU658
 891:TOOL/cJSON.c  ****     output_pointer = output + 1;
 2264              		.loc 1 891 15 is_stmt 0 view .LVU659
 2265 006a 0646     		mov	r6, r0
 2266              	.LVL212:
 891:TOOL/cJSON.c  ****     output_pointer = output + 1;
 2267              		.loc 1 891 15 view .LVU660
 2268 006c 2223     		movs	r3, #34
 2269 006e 06F8013B 		strb	r3, [r6], #1
 892:TOOL/cJSON.c  ****     /* copy the string */
 2270              		.loc 1 892 5 is_stmt 1 view .LVU661
 2271              	.LVL213:
 894:TOOL/cJSON.c  ****     {
 2272              		.loc 1 894 5 view .LVU662
 894:TOOL/cJSON.c  ****     {
 2273              		.loc 1 894 5 is_stmt 0 view .LVU663
 2274 0072 11E0     		b	.L181
 2275              	.LVL214:
 2276              	.L204:
 883:TOOL/cJSON.c  ****         memcpy(output + 1, input, output_length);
 2277              		.loc 1 883 9 is_stmt 1 view .LVU664
 883:TOOL/cJSON.c  ****         memcpy(output + 1, input, output_length);
 2278              		.loc 1 883 19 is_stmt 0 view .LVU665
 2279 0074 2226     		movs	r6, #34
ARM GAS  /var/folders/ww/n4ctlbrs3x70633t9y2ks63c0000gn/T//ccTX1xk7.s 			page 80


 2280              	.LVL215:
 883:TOOL/cJSON.c  ****         memcpy(output + 1, input, output_length);
 2281              		.loc 1 883 19 view .LVU666
 2282 0076 00F8016B 		strb	r6, [r0], #1
 2283              	.LVL216:
 884:TOOL/cJSON.c  ****         output[output_length + 1] = '\"';
 2284              		.loc 1 884 9 is_stmt 1 view .LVU667
 2285 007a 2246     		mov	r2, r4
 2286 007c 2946     		mov	r1, r5
 2287 007e FFF7FEFF 		bl	memcpy
 2288              	.LVL217:
 885:TOOL/cJSON.c  ****         output[output_length + 2] = '\0';
 2289              		.loc 1 885 9 view .LVU668
 885:TOOL/cJSON.c  ****         output[output_length + 2] = '\0';
 2290              		.loc 1 885 15 is_stmt 0 view .LVU669
 2291 0082 631C     		adds	r3, r4, #1
 885:TOOL/cJSON.c  ****         output[output_length + 2] = '\0';
 2292              		.loc 1 885 35 view .LVU670
 2293 0084 FE54     		strb	r6, [r7, r3]
 886:TOOL/cJSON.c  **** 
 2294              		.loc 1 886 9 is_stmt 1 view .LVU671
 886:TOOL/cJSON.c  **** 
 2295              		.loc 1 886 15 is_stmt 0 view .LVU672
 2296 0086 0234     		adds	r4, r4, #2
 2297              	.LVL218:
 886:TOOL/cJSON.c  **** 
 2298              		.loc 1 886 35 view .LVU673
 2299 0088 0023     		movs	r3, #0
 2300 008a 3B55     		strb	r3, [r7, r4]
 888:TOOL/cJSON.c  ****     }
 2301              		.loc 1 888 9 is_stmt 1 view .LVU674
 888:TOOL/cJSON.c  ****     }
 2302              		.loc 1 888 16 is_stmt 0 view .LVU675
 2303 008c 0120     		movs	r0, #1
 2304 008e 40E0     		b	.L172
 2305              	.LVL219:
 2306              	.L206:
 899:TOOL/cJSON.c  ****         }
 2307              		.loc 1 899 13 is_stmt 1 view .LVU676
 899:TOOL/cJSON.c  ****         }
 2308              		.loc 1 899 29 is_stmt 0 view .LVU677
 2309 0090 3370     		strb	r3, [r6]
 2310 0092 3046     		mov	r0, r6
 2311              	.LVL220:
 2312              	.L183:
 894:TOOL/cJSON.c  ****     {
 2313              		.loc 1 894 57 discriminator 2 view .LVU678
 2314 0094 0135     		adds	r5, r5, #1
 2315              	.LVL221:
 894:TOOL/cJSON.c  ****     {
 2316              		.loc 1 894 94 discriminator 2 view .LVU679
 2317 0096 461C     		adds	r6, r0, #1
 2318              	.LVL222:
 2319              	.L181:
 894:TOOL/cJSON.c  ****     {
 2320              		.loc 1 894 33 discriminator 1 view .LVU680
 2321 0098 2B78     		ldrb	r3, [r5]	@ zero_extendqisi2
ARM GAS  /var/folders/ww/n4ctlbrs3x70633t9y2ks63c0000gn/T//ccTX1xk7.s 			page 81


 894:TOOL/cJSON.c  ****     {
 2322              		.loc 1 894 5 discriminator 1 view .LVU681
 2323 009a 9BB3     		cbz	r3, .L205
 896:TOOL/cJSON.c  ****         {
 2324              		.loc 1 896 9 is_stmt 1 view .LVU682
 896:TOOL/cJSON.c  ****         {
 2325              		.loc 1 896 12 is_stmt 0 view .LVU683
 2326 009c 1F2B     		cmp	r3, #31
 2327 009e 03D9     		bls	.L182
 896:TOOL/cJSON.c  ****         {
 2328              		.loc 1 896 35 discriminator 1 view .LVU684
 2329 00a0 222B     		cmp	r3, #34
 2330 00a2 01D0     		beq	.L182
 896:TOOL/cJSON.c  ****         {
 2331              		.loc 1 896 63 discriminator 2 view .LVU685
 2332 00a4 5C2B     		cmp	r3, #92
 2333 00a6 F3D1     		bne	.L206
 2334              	.L182:
 904:TOOL/cJSON.c  ****             switch (*input_pointer)
 2335              		.loc 1 904 13 is_stmt 1 view .LVU686
 904:TOOL/cJSON.c  ****             switch (*input_pointer)
 2336              		.loc 1 904 28 is_stmt 0 view .LVU687
 2337 00a8 3046     		mov	r0, r6
 2338              	.LVL223:
 904:TOOL/cJSON.c  ****             switch (*input_pointer)
 2339              		.loc 1 904 31 view .LVU688
 2340 00aa 5C23     		movs	r3, #92
 2341 00ac 00F8013B 		strb	r3, [r0], #1
 2342              	.LVL224:
 905:TOOL/cJSON.c  ****             {
 2343              		.loc 1 905 13 is_stmt 1 view .LVU689
 905:TOOL/cJSON.c  ****             {
 2344              		.loc 1 905 21 is_stmt 0 view .LVU690
 2345 00b0 2A78     		ldrb	r2, [r5]	@ zero_extendqisi2
 905:TOOL/cJSON.c  ****             {
 2346              		.loc 1 905 13 view .LVU691
 2347 00b2 0C2A     		cmp	r2, #12
 2348 00b4 1DD0     		beq	.L184
 2349 00b6 0AD8     		bhi	.L185
 2350 00b8 092A     		cmp	r2, #9
 2351 00ba 20D0     		beq	.L186
 2352 00bc 0A2A     		cmp	r2, #10
 2353 00be 1BD0     		beq	.L187
 2354 00c0 082A     		cmp	r2, #8
 2355 00c2 13D0     		beq	.L207
 2356              	.L189:
 930:TOOL/cJSON.c  ****                     output_pointer += 4;
 2357              		.loc 1 930 21 is_stmt 1 view .LVU692
 2358 00c4 1749     		ldr	r1, .L208+4
 2359 00c6 FFF7FEFF 		bl	sprintf
 2360              	.LVL225:
 931:TOOL/cJSON.c  ****                     break;
 2361              		.loc 1 931 21 view .LVU693
 931:TOOL/cJSON.c  ****                     break;
 2362              		.loc 1 931 36 is_stmt 0 view .LVU694
 2363 00ca 701D     		adds	r0, r6, #5
 2364              	.LVL226:
ARM GAS  /var/folders/ww/n4ctlbrs3x70633t9y2ks63c0000gn/T//ccTX1xk7.s 			page 82


 932:TOOL/cJSON.c  ****             }
 2365              		.loc 1 932 21 is_stmt 1 view .LVU695
 2366 00cc E2E7     		b	.L183
 2367              	.LVL227:
 2368              	.L185:
 905:TOOL/cJSON.c  ****             {
 2369              		.loc 1 905 13 is_stmt 0 view .LVU696
 2370 00ce 222A     		cmp	r2, #34
 2371 00d0 09D0     		beq	.L190
 2372 00d2 5C2A     		cmp	r2, #92
 2373 00d4 04D0     		beq	.L191
 2374 00d6 0D2A     		cmp	r2, #13
 2375 00d8 F4D1     		bne	.L189
 923:TOOL/cJSON.c  ****                     break;
 2376              		.loc 1 923 21 is_stmt 1 view .LVU697
 923:TOOL/cJSON.c  ****                     break;
 2377              		.loc 1 923 37 is_stmt 0 view .LVU698
 2378 00da 7223     		movs	r3, #114
 2379 00dc 7370     		strb	r3, [r6, #1]
 924:TOOL/cJSON.c  ****                 case '\t':
 2380              		.loc 1 924 21 is_stmt 1 view .LVU699
 2381 00de D9E7     		b	.L183
 2382              	.L191:
 908:TOOL/cJSON.c  ****                     break;
 2383              		.loc 1 908 21 view .LVU700
 908:TOOL/cJSON.c  ****                     break;
 2384              		.loc 1 908 37 is_stmt 0 view .LVU701
 2385 00e0 5C23     		movs	r3, #92
 2386 00e2 7370     		strb	r3, [r6, #1]
 909:TOOL/cJSON.c  ****                 case '\"':
 2387              		.loc 1 909 21 is_stmt 1 view .LVU702
 2388 00e4 D6E7     		b	.L183
 2389              	.L190:
 911:TOOL/cJSON.c  ****                     break;
 2390              		.loc 1 911 21 view .LVU703
 911:TOOL/cJSON.c  ****                     break;
 2391              		.loc 1 911 37 is_stmt 0 view .LVU704
 2392 00e6 2223     		movs	r3, #34
 2393 00e8 7370     		strb	r3, [r6, #1]
 912:TOOL/cJSON.c  ****                 case '\b':
 2394              		.loc 1 912 21 is_stmt 1 view .LVU705
 2395 00ea D3E7     		b	.L183
 2396              	.L207:
 914:TOOL/cJSON.c  ****                     break;
 2397              		.loc 1 914 21 view .LVU706
 914:TOOL/cJSON.c  ****                     break;
 2398              		.loc 1 914 37 is_stmt 0 view .LVU707
 2399 00ec 6223     		movs	r3, #98
 2400 00ee 7370     		strb	r3, [r6, #1]
 915:TOOL/cJSON.c  ****                 case '\f':
 2401              		.loc 1 915 21 is_stmt 1 view .LVU708
 2402 00f0 D0E7     		b	.L183
 2403              	.L184:
 917:TOOL/cJSON.c  ****                     break;
 2404              		.loc 1 917 21 view .LVU709
 917:TOOL/cJSON.c  ****                     break;
 2405              		.loc 1 917 37 is_stmt 0 view .LVU710
ARM GAS  /var/folders/ww/n4ctlbrs3x70633t9y2ks63c0000gn/T//ccTX1xk7.s 			page 83


 2406 00f2 6623     		movs	r3, #102
 2407 00f4 7370     		strb	r3, [r6, #1]
 918:TOOL/cJSON.c  ****                 case '\n':
 2408              		.loc 1 918 21 is_stmt 1 view .LVU711
 2409 00f6 CDE7     		b	.L183
 2410              	.L187:
 920:TOOL/cJSON.c  ****                     break;
 2411              		.loc 1 920 21 view .LVU712
 920:TOOL/cJSON.c  ****                     break;
 2412              		.loc 1 920 37 is_stmt 0 view .LVU713
 2413 00f8 6E23     		movs	r3, #110
 2414 00fa 7370     		strb	r3, [r6, #1]
 921:TOOL/cJSON.c  ****                 case '\r':
 2415              		.loc 1 921 21 is_stmt 1 view .LVU714
 2416 00fc CAE7     		b	.L183
 2417              	.L186:
 926:TOOL/cJSON.c  ****                     break;
 2418              		.loc 1 926 21 view .LVU715
 926:TOOL/cJSON.c  ****                     break;
 2419              		.loc 1 926 37 is_stmt 0 view .LVU716
 2420 00fe 7423     		movs	r3, #116
 2421 0100 7370     		strb	r3, [r6, #1]
 927:TOOL/cJSON.c  ****                 default:
 2422              		.loc 1 927 21 is_stmt 1 view .LVU717
 2423 0102 C7E7     		b	.L183
 2424              	.L205:
 936:TOOL/cJSON.c  ****     output[output_length + 2] = '\0';
 2425              		.loc 1 936 5 view .LVU718
 936:TOOL/cJSON.c  ****     output[output_length + 2] = '\0';
 2426              		.loc 1 936 11 is_stmt 0 view .LVU719
 2427 0104 631C     		adds	r3, r4, #1
 936:TOOL/cJSON.c  ****     output[output_length + 2] = '\0';
 2428              		.loc 1 936 31 view .LVU720
 2429 0106 2222     		movs	r2, #34
 2430 0108 FA54     		strb	r2, [r7, r3]
 937:TOOL/cJSON.c  **** 
 2431              		.loc 1 937 5 is_stmt 1 view .LVU721
 937:TOOL/cJSON.c  **** 
 2432              		.loc 1 937 11 is_stmt 0 view .LVU722
 2433 010a 0234     		adds	r4, r4, #2
 2434              	.LVL228:
 937:TOOL/cJSON.c  **** 
 2435              		.loc 1 937 31 view .LVU723
 2436 010c 0023     		movs	r3, #0
 2437 010e 3B55     		strb	r3, [r7, r4]
 939:TOOL/cJSON.c  **** }
 2438              		.loc 1 939 5 is_stmt 1 view .LVU724
 939:TOOL/cJSON.c  **** }
 2439              		.loc 1 939 12 is_stmt 0 view .LVU725
 2440 0110 0120     		movs	r0, #1
 2441              	.LVL229:
 2442              	.L172:
 940:TOOL/cJSON.c  **** 
 2443              		.loc 1 940 1 view .LVU726
 2444 0112 F8BD     		pop	{r3, r4, r5, r6, r7, pc}
 2445              	.LVL230:
 2446              	.L194:
ARM GAS  /var/folders/ww/n4ctlbrs3x70633t9y2ks63c0000gn/T//ccTX1xk7.s 			page 84


 2447              	.LCFI25:
 2448              		.cfi_def_cfa_offset 0
 2449              		.cfi_restore 3
 2450              		.cfi_restore 4
 2451              		.cfi_restore 5
 2452              		.cfi_restore 6
 2453              		.cfi_restore 7
 2454              		.cfi_restore 14
 832:TOOL/cJSON.c  ****     }
 2455              		.loc 1 832 16 view .LVU727
 2456 0114 0020     		movs	r0, #0
 2457              	.LVL231:
 940:TOOL/cJSON.c  **** 
 2458              		.loc 1 940 1 view .LVU728
 2459 0116 7047     		bx	lr
 2460              	.LVL232:
 2461              	.L196:
 2462              	.LCFI26:
 2463              		.cfi_def_cfa_offset 24
 2464              		.cfi_offset 3, -24
 2465              		.cfi_offset 4, -20
 2466              		.cfi_offset 5, -16
 2467              		.cfi_offset 6, -12
 2468              		.cfi_offset 7, -8
 2469              		.cfi_offset 14, -4
 841:TOOL/cJSON.c  ****         }
 2470              		.loc 1 841 20 view .LVU729
 2471 0118 0020     		movs	r0, #0
 2472              	.LVL233:
 841:TOOL/cJSON.c  ****         }
 2473              		.loc 1 841 20 view .LVU730
 2474 011a FAE7     		b	.L172
 2475              	.LVL234:
 2476              	.L197:
 877:TOOL/cJSON.c  ****     }
 2477              		.loc 1 877 16 view .LVU731
 2478 011c 0020     		movs	r0, #0
 2479              	.LVL235:
 877:TOOL/cJSON.c  ****     }
 2480              		.loc 1 877 16 view .LVU732
 2481 011e F8E7     		b	.L172
 2482              	.L209:
 2483              		.align	2
 2484              	.L208:
 2485 0120 00000000 		.word	.LC1
 2486 0124 04000000 		.word	.LC2
 2487              		.cfi_endproc
 2488              	.LFE87:
 2490              		.section	.text.print_string,"ax",%progbits
 2491              		.align	1
 2492              		.syntax unified
 2493              		.thumb
 2494              		.thumb_func
 2495              		.fpu softvfp
 2497              	print_string:
 2498              	.LVL236:
 2499              	.LFB88:
ARM GAS  /var/folders/ww/n4ctlbrs3x70633t9y2ks63c0000gn/T//ccTX1xk7.s 			page 85


 944:TOOL/cJSON.c  ****     return print_string_ptr((unsigned char*)item->valuestring, p);
 2500              		.loc 1 944 1 is_stmt 1 view -0
 2501              		.cfi_startproc
 2502              		@ args = 0, pretend = 0, frame = 0
 2503              		@ frame_needed = 0, uses_anonymous_args = 0
 944:TOOL/cJSON.c  ****     return print_string_ptr((unsigned char*)item->valuestring, p);
 2504              		.loc 1 944 1 is_stmt 0 view .LVU734
 2505 0000 08B5     		push	{r3, lr}
 2506              	.LCFI27:
 2507              		.cfi_def_cfa_offset 8
 2508              		.cfi_offset 3, -8
 2509              		.cfi_offset 14, -4
 945:TOOL/cJSON.c  **** }
 2510              		.loc 1 945 5 is_stmt 1 view .LVU735
 945:TOOL/cJSON.c  **** }
 2511              		.loc 1 945 12 is_stmt 0 view .LVU736
 2512 0002 0069     		ldr	r0, [r0, #16]
 2513              	.LVL237:
 945:TOOL/cJSON.c  **** }
 2514              		.loc 1 945 12 view .LVU737
 2515 0004 FFF7FEFF 		bl	print_string_ptr
 2516              	.LVL238:
 946:TOOL/cJSON.c  **** 
 2517              		.loc 1 946 1 view .LVU738
 2518 0008 08BD     		pop	{r3, pc}
 2519              		.cfi_endproc
 2520              	.LFE88:
 2522              		.global	__aeabi_dmul
 2523              		.global	__aeabi_dcmpeq
 2524              		.section	.text.print_number,"ax",%progbits
 2525              		.align	1
 2526              		.syntax unified
 2527              		.thumb
 2528              		.thumb_func
 2529              		.fpu softvfp
 2531              	print_number:
 2532              	.LVL239:
 2533              	.LFB83:
 469:TOOL/cJSON.c  ****     unsigned char *output_pointer = NULL;
 2534              		.loc 1 469 1 is_stmt 1 view -0
 2535              		.cfi_startproc
 2536              		@ args = 0, pretend = 0, frame = 40
 2537              		@ frame_needed = 0, uses_anonymous_args = 0
 469:TOOL/cJSON.c  ****     unsigned char *output_pointer = NULL;
 2538              		.loc 1 469 1 is_stmt 0 view .LVU740
 2539 0000 2DE9F043 		push	{r4, r5, r6, r7, r8, r9, lr}
 2540              	.LCFI28:
 2541              		.cfi_def_cfa_offset 28
 2542              		.cfi_offset 4, -28
 2543              		.cfi_offset 5, -24
 2544              		.cfi_offset 6, -20
 2545              		.cfi_offset 7, -16
 2546              		.cfi_offset 8, -12
 2547              		.cfi_offset 9, -8
 2548              		.cfi_offset 14, -4
 2549 0004 8BB0     		sub	sp, sp, #44
 2550              	.LCFI29:
ARM GAS  /var/folders/ww/n4ctlbrs3x70633t9y2ks63c0000gn/T//ccTX1xk7.s 			page 86


 2551              		.cfi_def_cfa_offset 72
 2552 0006 0F46     		mov	r7, r1
 470:TOOL/cJSON.c  ****     double d = item->valuedouble;
 2553              		.loc 1 470 5 is_stmt 1 view .LVU741
 2554              	.LVL240:
 471:TOOL/cJSON.c  ****     int length = 0;
 2555              		.loc 1 471 5 view .LVU742
 471:TOOL/cJSON.c  ****     int length = 0;
 2556              		.loc 1 471 12 is_stmt 0 view .LVU743
 2557 0008 D0E90689 		ldrd	r8, [r0, #24]
 2558              	.LVL241:
 472:TOOL/cJSON.c  ****     size_t i = 0;
 2559              		.loc 1 472 5 is_stmt 1 view .LVU744
 473:TOOL/cJSON.c  ****     unsigned char number_buffer[26]; /* temporary buffer to print the number into */
 2560              		.loc 1 473 5 view .LVU745
 474:TOOL/cJSON.c  ****     unsigned char decimal_point = get_decimal_point();
 2561              		.loc 1 474 5 view .LVU746
 475:TOOL/cJSON.c  ****     double test;
 2562              		.loc 1 475 5 view .LVU747
 475:TOOL/cJSON.c  ****     double test;
 2563              		.loc 1 475 35 is_stmt 0 view .LVU748
 2564 000c FFF7FEFF 		bl	get_decimal_point
 2565              	.LVL242:
 476:TOOL/cJSON.c  **** 
 2566              		.loc 1 476 5 is_stmt 1 view .LVU749
 478:TOOL/cJSON.c  ****     {
 2567              		.loc 1 478 5 view .LVU750
 478:TOOL/cJSON.c  ****     {
 2568              		.loc 1 478 8 is_stmt 0 view .LVU751
 2569 0010 002F     		cmp	r7, #0
 2570 0012 53D0     		beq	.L223
 2571 0014 0546     		mov	r5, r0
 484:TOOL/cJSON.c  ****     {
 2572              		.loc 1 484 5 is_stmt 1 view .LVU752
 484:TOOL/cJSON.c  ****     {
 2573              		.loc 1 484 12 is_stmt 0 view .LVU753
 2574 0016 0022     		movs	r2, #0
 2575 0018 0023     		movs	r3, #0
 2576 001a 4046     		mov	r0, r8
 2577              	.LVL243:
 484:TOOL/cJSON.c  ****     {
 2578              		.loc 1 484 12 view .LVU754
 2579 001c 4946     		mov	r1, r9
 2580 001e FFF7FEFF 		bl	__aeabi_dmul
 2581              	.LVL244:
 484:TOOL/cJSON.c  ****     {
 2582              		.loc 1 484 8 view .LVU755
 2583 0022 0022     		movs	r2, #0
 2584 0024 0023     		movs	r3, #0
 2585 0026 FFF7FEFF 		bl	__aeabi_dcmpeq
 2586              	.LVL245:
 2587 002a 68B9     		cbnz	r0, .L227
 486:TOOL/cJSON.c  ****     }
 2588              		.loc 1 486 9 is_stmt 1 view .LVU756
 486:TOOL/cJSON.c  ****     }
 2589              		.loc 1 486 18 is_stmt 0 view .LVU757
 2590 002c 254B     		ldr	r3, .L232
ARM GAS  /var/folders/ww/n4ctlbrs3x70633t9y2ks63c0000gn/T//ccTX1xk7.s 			page 87


 2591 002e 93E80300 		ldm	r3, {r0, r1}
 2592 0032 0390     		str	r0, [sp, #12]
 2593 0034 8DF81010 		strb	r1, [sp, #16]
 2594              	.LVL246:
 486:TOOL/cJSON.c  ****     }
 2595              		.loc 1 486 18 view .LVU758
 2596 0038 0426     		movs	r6, #4
 2597              	.LVL247:
 2598              	.L216:
 502:TOOL/cJSON.c  ****     {
 2599              		.loc 1 502 5 is_stmt 1 view .LVU759
 502:TOOL/cJSON.c  ****     {
 2600              		.loc 1 502 22 is_stmt 0 view .LVU760
 2601 003a 3446     		mov	r4, r6
 502:TOOL/cJSON.c  ****     {
 2602              		.loc 1 502 8 view .LVU761
 2603 003c 192E     		cmp	r6, #25
 2604 003e 21D9     		bls	.L229
 504:TOOL/cJSON.c  ****     }
 2605              		.loc 1 504 16 view .LVU762
 2606 0040 0020     		movs	r0, #0
 2607              	.LVL248:
 2608              	.L212:
 531:TOOL/cJSON.c  **** 
 2609              		.loc 1 531 1 view .LVU763
 2610 0042 0BB0     		add	sp, sp, #44
 2611              	.LCFI30:
 2612              		.cfi_remember_state
 2613              		.cfi_def_cfa_offset 28
 2614              		@ sp needed
 2615 0044 BDE8F083 		pop	{r4, r5, r6, r7, r8, r9, pc}
 2616              	.LVL249:
 2617              	.L227:
 2618              	.LCFI31:
 2619              		.cfi_restore_state
 491:TOOL/cJSON.c  **** 
 2620              		.loc 1 491 9 is_stmt 1 view .LVU764
 491:TOOL/cJSON.c  **** 
 2621              		.loc 1 491 18 is_stmt 0 view .LVU765
 2622 0048 4246     		mov	r2, r8
 2623 004a 4B46     		mov	r3, r9
 2624 004c 1E49     		ldr	r1, .L232+4
 2625 004e 03A8     		add	r0, sp, #12
 2626 0050 FFF7FEFF 		bl	sprintf
 2627              	.LVL250:
 2628 0054 0646     		mov	r6, r0
 2629              	.LVL251:
 494:TOOL/cJSON.c  ****         {
 2630              		.loc 1 494 9 is_stmt 1 view .LVU766
 494:TOOL/cJSON.c  ****         {
 2631              		.loc 1 494 14 is_stmt 0 view .LVU767
 2632 0056 6A46     		mov	r2, sp
 2633 0058 1C49     		ldr	r1, .L232+8
 2634 005a 03A8     		add	r0, sp, #12
 2635              	.LVL252:
 494:TOOL/cJSON.c  ****         {
 2636              		.loc 1 494 14 view .LVU768
ARM GAS  /var/folders/ww/n4ctlbrs3x70633t9y2ks63c0000gn/T//ccTX1xk7.s 			page 88


 2637 005c FFF7FEFF 		bl	sscanf
 2638              	.LVL253:
 494:TOOL/cJSON.c  ****         {
 2639              		.loc 1 494 12 view .LVU769
 2640 0060 0128     		cmp	r0, #1
 2641 0062 07D1     		bne	.L217
 494:TOOL/cJSON.c  ****         {
 2642              		.loc 1 494 63 discriminator 1 view .LVU770
 2643 0064 4246     		mov	r2, r8
 2644 0066 4B46     		mov	r3, r9
 2645 0068 DDE90001 		ldrd	r0, [sp]
 2646 006c FFF7FEFF 		bl	__aeabi_dcmpeq
 2647              	.LVL254:
 2648 0070 0028     		cmp	r0, #0
 2649 0072 E2D1     		bne	.L216
 2650              	.L217:
 497:TOOL/cJSON.c  ****         }
 2651              		.loc 1 497 13 is_stmt 1 view .LVU771
 497:TOOL/cJSON.c  ****         }
 2652              		.loc 1 497 22 is_stmt 0 view .LVU772
 2653 0074 4246     		mov	r2, r8
 2654 0076 4B46     		mov	r3, r9
 2655 0078 1549     		ldr	r1, .L232+12
 2656 007a 03A8     		add	r0, sp, #12
 2657 007c FFF7FEFF 		bl	sprintf
 2658              	.LVL255:
 2659 0080 0646     		mov	r6, r0
 2660              	.LVL256:
 497:TOOL/cJSON.c  ****         }
 2661              		.loc 1 497 22 view .LVU773
 2662 0082 DAE7     		b	.L216
 2663              	.LVL257:
 2664              	.L229:
 508:TOOL/cJSON.c  ****     if (output_pointer == NULL)
 2665              		.loc 1 508 5 is_stmt 1 view .LVU774
 508:TOOL/cJSON.c  ****     if (output_pointer == NULL)
 2666              		.loc 1 508 22 is_stmt 0 view .LVU775
 2667 0084 3146     		mov	r1, r6
 2668 0086 3846     		mov	r0, r7
 2669 0088 FFF7FEFF 		bl	ensure
 2670              	.LVL258:
 509:TOOL/cJSON.c  ****     {
 2671              		.loc 1 509 5 is_stmt 1 view .LVU776
 509:TOOL/cJSON.c  ****     {
 2672              		.loc 1 509 8 is_stmt 0 view .LVU777
 2673 008c 0146     		mov	r1, r0
 2674 008e B8B1     		cbz	r0, .L225
 516:TOOL/cJSON.c  ****     {
 2675              		.loc 1 516 12 view .LVU778
 2676 0090 0023     		movs	r3, #0
 2677 0092 02E0     		b	.L219
 2678              	.LVL259:
 2679              	.L231:
 520:TOOL/cJSON.c  ****             continue;
 2680              		.loc 1 520 13 is_stmt 1 view .LVU779
 520:TOOL/cJSON.c  ****             continue;
 2681              		.loc 1 520 31 is_stmt 0 view .LVU780
ARM GAS  /var/folders/ww/n4ctlbrs3x70633t9y2ks63c0000gn/T//ccTX1xk7.s 			page 89


 2682 0094 2E22     		movs	r2, #46
 2683 0096 CA54     		strb	r2, [r1, r3]
 521:TOOL/cJSON.c  ****         }
 2684              		.loc 1 521 13 is_stmt 1 view .LVU781
 2685              	.L221:
 516:TOOL/cJSON.c  ****     {
 2686              		.loc 1 516 40 is_stmt 0 discriminator 2 view .LVU782
 2687 0098 0133     		adds	r3, r3, #1
 2688              	.LVL260:
 2689              	.L219:
 516:TOOL/cJSON.c  ****     {
 2690              		.loc 1 516 5 discriminator 1 view .LVU783
 2691 009a 9C42     		cmp	r4, r3
 2692 009c 07D9     		bls	.L230
 518:TOOL/cJSON.c  ****         {
 2693              		.loc 1 518 9 is_stmt 1 view .LVU784
 518:TOOL/cJSON.c  ****         {
 2694              		.loc 1 518 26 is_stmt 0 view .LVU785
 2695 009e 0AAA     		add	r2, sp, #40
 2696 00a0 1A44     		add	r2, r2, r3
 2697 00a2 12F81C2C 		ldrb	r2, [r2, #-28]	@ zero_extendqisi2
 518:TOOL/cJSON.c  ****         {
 2698              		.loc 1 518 12 view .LVU786
 2699 00a6 AA42     		cmp	r2, r5
 2700 00a8 F4D0     		beq	.L231
 524:TOOL/cJSON.c  ****     }
 2701              		.loc 1 524 9 is_stmt 1 view .LVU787
 524:TOOL/cJSON.c  ****     }
 2702              		.loc 1 524 27 is_stmt 0 view .LVU788
 2703 00aa CA54     		strb	r2, [r1, r3]
 2704 00ac F4E7     		b	.L221
 2705              	.L230:
 526:TOOL/cJSON.c  **** 
 2706              		.loc 1 526 5 is_stmt 1 view .LVU789
 526:TOOL/cJSON.c  **** 
 2707              		.loc 1 526 23 is_stmt 0 view .LVU790
 2708 00ae 0022     		movs	r2, #0
 2709 00b0 CA54     		strb	r2, [r1, r3]
 528:TOOL/cJSON.c  **** 
 2710              		.loc 1 528 5 is_stmt 1 view .LVU791
 528:TOOL/cJSON.c  **** 
 2711              		.loc 1 528 27 is_stmt 0 view .LVU792
 2712 00b2 BB68     		ldr	r3, [r7, #8]
 2713              	.LVL261:
 528:TOOL/cJSON.c  **** 
 2714              		.loc 1 528 27 view .LVU793
 2715 00b4 1C44     		add	r4, r4, r3
 2716              	.LVL262:
 528:TOOL/cJSON.c  **** 
 2717              		.loc 1 528 27 view .LVU794
 2718 00b6 BC60     		str	r4, [r7, #8]
 530:TOOL/cJSON.c  **** }
 2719              		.loc 1 530 5 is_stmt 1 view .LVU795
 530:TOOL/cJSON.c  **** }
 2720              		.loc 1 530 12 is_stmt 0 view .LVU796
 2721 00b8 0120     		movs	r0, #1
 2722              	.LVL263:
ARM GAS  /var/folders/ww/n4ctlbrs3x70633t9y2ks63c0000gn/T//ccTX1xk7.s 			page 90


 530:TOOL/cJSON.c  **** }
 2723              		.loc 1 530 12 view .LVU797
 2724 00ba C2E7     		b	.L212
 2725              	.LVL264:
 2726              	.L223:
 480:TOOL/cJSON.c  ****     }
 2727              		.loc 1 480 16 view .LVU798
 2728 00bc 0020     		movs	r0, #0
 2729              	.LVL265:
 480:TOOL/cJSON.c  ****     }
 2730              		.loc 1 480 16 view .LVU799
 2731 00be C0E7     		b	.L212
 2732              	.LVL266:
 2733              	.L225:
 511:TOOL/cJSON.c  ****     }
 2734              		.loc 1 511 16 view .LVU800
 2735 00c0 0020     		movs	r0, #0
 2736              	.LVL267:
 511:TOOL/cJSON.c  ****     }
 2737              		.loc 1 511 16 view .LVU801
 2738 00c2 BEE7     		b	.L212
 2739              	.L233:
 2740              		.align	2
 2741              	.L232:
 2742 00c4 00000000 		.word	.LC3
 2743 00c8 08000000 		.word	.LC4
 2744 00cc 10000000 		.word	.LC5
 2745 00d0 14000000 		.word	.LC6
 2746              		.cfi_endproc
 2747              	.LFE83:
 2749              		.section	.text.print_value,"ax",%progbits
 2750              		.align	1
 2751              		.syntax unified
 2752              		.thumb
 2753              		.thumb_func
 2754              		.fpu softvfp
 2756              	print_value:
 2757              	.LVL268:
 2758              	.LFB99:
1260:TOOL/cJSON.c  ****     unsigned char *output = NULL;
 2759              		.loc 1 1260 1 is_stmt 1 view -0
 2760              		.cfi_startproc
 2761              		@ args = 0, pretend = 0, frame = 0
 2762              		@ frame_needed = 0, uses_anonymous_args = 0
1260:TOOL/cJSON.c  ****     unsigned char *output = NULL;
 2763              		.loc 1 1260 1 is_stmt 0 view .LVU803
 2764 0000 70B5     		push	{r4, r5, r6, lr}
 2765              	.LCFI32:
 2766              		.cfi_def_cfa_offset 16
 2767              		.cfi_offset 4, -16
 2768              		.cfi_offset 5, -12
 2769              		.cfi_offset 6, -8
 2770              		.cfi_offset 14, -4
1261:TOOL/cJSON.c  **** 
 2771              		.loc 1 1261 5 is_stmt 1 view .LVU804
 2772              	.LVL269:
1263:TOOL/cJSON.c  ****     {
ARM GAS  /var/folders/ww/n4ctlbrs3x70633t9y2ks63c0000gn/T//ccTX1xk7.s 			page 91


 2773              		.loc 1 1263 5 view .LVU805
1263:TOOL/cJSON.c  ****     {
 2774              		.loc 1 1263 8 is_stmt 0 view .LVU806
 2775 0002 0028     		cmp	r0, #0
 2776 0004 6DD0     		beq	.L248
 2777 0006 0646     		mov	r6, r0
1263:TOOL/cJSON.c  ****     {
 2778              		.loc 1 1263 24 discriminator 1 view .LVU807
 2779 0008 0029     		cmp	r1, #0
 2780 000a 6CD0     		beq	.L249
 2781 000c 0D46     		mov	r5, r1
1268:TOOL/cJSON.c  ****     {
 2782              		.loc 1 1268 5 is_stmt 1 view .LVU808
1268:TOOL/cJSON.c  ****     {
 2783              		.loc 1 1268 26 is_stmt 0 view .LVU809
 2784 000e 047B     		ldrb	r4, [r0, #12]	@ zero_extendqisi2
1268:TOOL/cJSON.c  ****     {
 2785              		.loc 1 1268 5 view .LVU810
 2786 0010 082C     		cmp	r4, #8
 2787 0012 53D0     		beq	.L236
 2788 0014 18DD     		ble	.L255
 2789 0016 202C     		cmp	r4, #32
 2790 0018 5BD0     		beq	.L241
 2791 001a 1EDD     		ble	.L256
 2792 001c 402C     		cmp	r4, #64
 2793 001e 5CD0     		beq	.L244
 2794 0020 802C     		cmp	r4, #128
 2795 0022 22D1     		bne	.L257
 2796              	.LBB8:
1302:TOOL/cJSON.c  ****             if (item->valuestring == NULL)
 2797              		.loc 1 1302 13 is_stmt 1 view .LVU811
 2798              	.LVL270:
1303:TOOL/cJSON.c  ****             {
 2799              		.loc 1 1303 13 view .LVU812
1303:TOOL/cJSON.c  ****             {
 2800              		.loc 1 1303 21 is_stmt 0 view .LVU813
 2801 0024 0069     		ldr	r0, [r0, #16]
 2802              	.LVL271:
1303:TOOL/cJSON.c  ****             {
 2803              		.loc 1 1303 16 view .LVU814
 2804 0026 0028     		cmp	r0, #0
 2805 0028 4CD0     		beq	.L258
1312:TOOL/cJSON.c  ****             output = ensure(output_buffer, raw_length);
 2806              		.loc 1 1312 13 is_stmt 1 view .LVU815
1312:TOOL/cJSON.c  ****             output = ensure(output_buffer, raw_length);
 2807              		.loc 1 1312 26 is_stmt 0 view .LVU816
 2808 002a FFF7FEFF 		bl	strlen
 2809              	.LVL272:
1312:TOOL/cJSON.c  ****             output = ensure(output_buffer, raw_length);
 2810              		.loc 1 1312 24 view .LVU817
 2811 002e 441C     		adds	r4, r0, #1
 2812              	.LVL273:
1313:TOOL/cJSON.c  ****             if (output == NULL)
 2813              		.loc 1 1313 13 is_stmt 1 view .LVU818
1313:TOOL/cJSON.c  ****             if (output == NULL)
 2814              		.loc 1 1313 22 is_stmt 0 view .LVU819
 2815 0030 2146     		mov	r1, r4
ARM GAS  /var/folders/ww/n4ctlbrs3x70633t9y2ks63c0000gn/T//ccTX1xk7.s 			page 92


 2816 0032 2846     		mov	r0, r5
 2817 0034 FFF7FEFF 		bl	ensure
 2818              	.LVL274:
1314:TOOL/cJSON.c  ****             {
 2819              		.loc 1 1314 13 is_stmt 1 view .LVU820
1314:TOOL/cJSON.c  ****             {
 2820              		.loc 1 1314 16 is_stmt 0 view .LVU821
 2821 0038 0028     		cmp	r0, #0
 2822 003a 5CD0     		beq	.L253
1318:TOOL/cJSON.c  ****             return true;
 2823              		.loc 1 1318 13 is_stmt 1 view .LVU822
 2824 003c 2246     		mov	r2, r4
 2825 003e 3169     		ldr	r1, [r6, #16]
 2826 0040 FFF7FEFF 		bl	memcpy
 2827              	.LVL275:
1319:TOOL/cJSON.c  ****         }
 2828              		.loc 1 1319 13 view .LVU823
1319:TOOL/cJSON.c  ****         }
 2829              		.loc 1 1319 20 is_stmt 0 view .LVU824
 2830 0044 0124     		movs	r4, #1
 2831              	.LVL276:
1319:TOOL/cJSON.c  ****         }
 2832              		.loc 1 1319 20 view .LVU825
 2833 0046 06E0     		b	.L234
 2834              	.LVL277:
 2835              	.L255:
1319:TOOL/cJSON.c  ****         }
 2836              		.loc 1 1319 20 view .LVU826
 2837              	.LBE8:
1268:TOOL/cJSON.c  ****     {
 2838              		.loc 1 1268 5 view .LVU827
 2839 0048 022C     		cmp	r4, #2
 2840 004a 2AD0     		beq	.L238
 2841 004c 042C     		cmp	r4, #4
 2842 004e 0ED0     		beq	.L239
 2843 0050 012C     		cmp	r4, #1
 2844 0052 1AD0     		beq	.L240
1332:TOOL/cJSON.c  ****     }
 2845              		.loc 1 1332 20 view .LVU828
 2846 0054 0024     		movs	r4, #0
 2847              	.LVL278:
 2848              	.L234:
1334:TOOL/cJSON.c  **** 
 2849              		.loc 1 1334 1 view .LVU829
 2850 0056 2046     		mov	r0, r4
 2851 0058 70BD     		pop	{r4, r5, r6, pc}
 2852              	.LVL279:
 2853              	.L256:
1268:TOOL/cJSON.c  ****     {
 2854              		.loc 1 1268 5 view .LVU830
 2855 005a 102C     		cmp	r4, #16
 2856 005c 03D1     		bne	.L259
1323:TOOL/cJSON.c  **** 
 2857              		.loc 1 1323 13 is_stmt 1 view .LVU831
1323:TOOL/cJSON.c  **** 
 2858              		.loc 1 1323 20 is_stmt 0 view .LVU832
 2859 005e FFF7FEFF 		bl	print_string
ARM GAS  /var/folders/ww/n4ctlbrs3x70633t9y2ks63c0000gn/T//ccTX1xk7.s 			page 93


 2860              	.LVL280:
1323:TOOL/cJSON.c  **** 
 2861              		.loc 1 1323 20 view .LVU833
 2862 0062 0446     		mov	r4, r0
 2863 0064 F7E7     		b	.L234
 2864              	.LVL281:
 2865              	.L259:
1332:TOOL/cJSON.c  ****     }
 2866              		.loc 1 1332 20 view .LVU834
 2867 0066 0024     		movs	r4, #0
 2868 0068 F5E7     		b	.L234
 2869              	.L257:
 2870 006a 0024     		movs	r4, #0
 2871 006c F3E7     		b	.L234
 2872              	.L239:
1271:TOOL/cJSON.c  ****             if (output == NULL)
 2873              		.loc 1 1271 13 is_stmt 1 view .LVU835
1271:TOOL/cJSON.c  ****             if (output == NULL)
 2874              		.loc 1 1271 22 is_stmt 0 view .LVU836
 2875 006e 0521     		movs	r1, #5
 2876              	.LVL282:
1271:TOOL/cJSON.c  ****             if (output == NULL)
 2877              		.loc 1 1271 22 view .LVU837
 2878 0070 2846     		mov	r0, r5
 2879              	.LVL283:
1271:TOOL/cJSON.c  ****             if (output == NULL)
 2880              		.loc 1 1271 22 view .LVU838
 2881 0072 FFF7FEFF 		bl	ensure
 2882              	.LVL284:
1272:TOOL/cJSON.c  ****             {
 2883              		.loc 1 1272 13 is_stmt 1 view .LVU839
1272:TOOL/cJSON.c  ****             {
 2884              		.loc 1 1272 16 is_stmt 0 view .LVU840
 2885 0076 0346     		mov	r3, r0
 2886 0078 0028     		cmp	r0, #0
 2887 007a 36D0     		beq	.L250
1276:TOOL/cJSON.c  ****             return true;
 2888              		.loc 1 1276 13 is_stmt 1 view .LVU841
 2889 007c 1F4A     		ldr	r2, .L260
 2890 007e 1068     		ldr	r0, [r2]
 2891              	.LVL285:
1276:TOOL/cJSON.c  ****             return true;
 2892              		.loc 1 1276 13 is_stmt 0 view .LVU842
 2893 0080 1860     		str	r0, [r3]	@ unaligned
 2894 0082 1279     		ldrb	r2, [r2, #4]	@ zero_extendqisi2
 2895 0084 1A71     		strb	r2, [r3, #4]
1277:TOOL/cJSON.c  **** 
 2896              		.loc 1 1277 13 is_stmt 1 view .LVU843
1277:TOOL/cJSON.c  **** 
 2897              		.loc 1 1277 20 is_stmt 0 view .LVU844
 2898 0086 0124     		movs	r4, #1
 2899 0088 E5E7     		b	.L234
 2900              	.LVL286:
 2901              	.L240:
1280:TOOL/cJSON.c  ****             if (output == NULL)
 2902              		.loc 1 1280 13 is_stmt 1 view .LVU845
1280:TOOL/cJSON.c  ****             if (output == NULL)
ARM GAS  /var/folders/ww/n4ctlbrs3x70633t9y2ks63c0000gn/T//ccTX1xk7.s 			page 94


 2903              		.loc 1 1280 22 is_stmt 0 view .LVU846
 2904 008a 0621     		movs	r1, #6
 2905              	.LVL287:
1280:TOOL/cJSON.c  ****             if (output == NULL)
 2906              		.loc 1 1280 22 view .LVU847
 2907 008c 2846     		mov	r0, r5
 2908              	.LVL288:
1280:TOOL/cJSON.c  ****             if (output == NULL)
 2909              		.loc 1 1280 22 view .LVU848
 2910 008e FFF7FEFF 		bl	ensure
 2911              	.LVL289:
1281:TOOL/cJSON.c  ****             {
 2912              		.loc 1 1281 13 is_stmt 1 view .LVU849
1281:TOOL/cJSON.c  ****             {
 2913              		.loc 1 1281 16 is_stmt 0 view .LVU850
 2914 0092 0346     		mov	r3, r0
 2915 0094 58B3     		cbz	r0, .L251
1285:TOOL/cJSON.c  ****             return true;
 2916              		.loc 1 1285 13 is_stmt 1 view .LVU851
 2917 0096 1A4A     		ldr	r2, .L260+4
 2918 0098 1068     		ldr	r0, [r2]
 2919              	.LVL290:
1285:TOOL/cJSON.c  ****             return true;
 2920              		.loc 1 1285 13 is_stmt 0 view .LVU852
 2921 009a 1860     		str	r0, [r3]	@ unaligned
 2922 009c 9288     		ldrh	r2, [r2, #4]	@ unaligned
 2923 009e 9A80     		strh	r2, [r3, #4]	@ unaligned
1286:TOOL/cJSON.c  **** 
 2924              		.loc 1 1286 13 is_stmt 1 view .LVU853
1286:TOOL/cJSON.c  **** 
 2925              		.loc 1 1286 20 is_stmt 0 view .LVU854
 2926 00a0 D9E7     		b	.L234
 2927              	.LVL291:
 2928              	.L238:
1289:TOOL/cJSON.c  ****             if (output == NULL)
 2929              		.loc 1 1289 13 is_stmt 1 view .LVU855
1289:TOOL/cJSON.c  ****             if (output == NULL)
 2930              		.loc 1 1289 22 is_stmt 0 view .LVU856
 2931 00a2 0521     		movs	r1, #5
 2932              	.LVL292:
1289:TOOL/cJSON.c  ****             if (output == NULL)
 2933              		.loc 1 1289 22 view .LVU857
 2934 00a4 2846     		mov	r0, r5
 2935              	.LVL293:
1289:TOOL/cJSON.c  ****             if (output == NULL)
 2936              		.loc 1 1289 22 view .LVU858
 2937 00a6 FFF7FEFF 		bl	ensure
 2938              	.LVL294:
1290:TOOL/cJSON.c  ****             {
 2939              		.loc 1 1290 13 is_stmt 1 view .LVU859
1290:TOOL/cJSON.c  ****             {
 2940              		.loc 1 1290 16 is_stmt 0 view .LVU860
 2941 00aa 0346     		mov	r3, r0
 2942 00ac 08B3     		cbz	r0, .L252
1294:TOOL/cJSON.c  ****             return true;
 2943              		.loc 1 1294 13 is_stmt 1 view .LVU861
 2944 00ae 154A     		ldr	r2, .L260+8
ARM GAS  /var/folders/ww/n4ctlbrs3x70633t9y2ks63c0000gn/T//ccTX1xk7.s 			page 95


 2945 00b0 1068     		ldr	r0, [r2]
 2946              	.LVL295:
1294:TOOL/cJSON.c  ****             return true;
 2947              		.loc 1 1294 13 is_stmt 0 view .LVU862
 2948 00b2 1860     		str	r0, [r3]	@ unaligned
 2949 00b4 1279     		ldrb	r2, [r2, #4]	@ zero_extendqisi2
 2950 00b6 1A71     		strb	r2, [r3, #4]
1295:TOOL/cJSON.c  **** 
 2951              		.loc 1 1295 13 is_stmt 1 view .LVU863
1295:TOOL/cJSON.c  **** 
 2952              		.loc 1 1295 20 is_stmt 0 view .LVU864
 2953 00b8 0124     		movs	r4, #1
 2954 00ba CCE7     		b	.L234
 2955              	.LVL296:
 2956              	.L236:
1298:TOOL/cJSON.c  **** 
 2957              		.loc 1 1298 13 is_stmt 1 view .LVU865
1298:TOOL/cJSON.c  **** 
 2958              		.loc 1 1298 20 is_stmt 0 view .LVU866
 2959 00bc FFF7FEFF 		bl	print_number
 2960              	.LVL297:
1298:TOOL/cJSON.c  **** 
 2961              		.loc 1 1298 20 view .LVU867
 2962 00c0 0446     		mov	r4, r0
 2963 00c2 C8E7     		b	.L234
 2964              	.LVL298:
 2965              	.L258:
 2966              	.LBB9:
1305:TOOL/cJSON.c  ****                 {
 2967              		.loc 1 1305 17 is_stmt 1 view .LVU868
1305:TOOL/cJSON.c  ****                 {
 2968              		.loc 1 1305 35 is_stmt 0 view .LVU869
 2969 00c4 0B69     		ldr	r3, [r1, #16]
1305:TOOL/cJSON.c  ****                 {
 2970              		.loc 1 1305 20 view .LVU870
 2971 00c6 13B9     		cbnz	r3, .L247
1307:TOOL/cJSON.c  ****                 }
 2972              		.loc 1 1307 21 is_stmt 1 view .LVU871
1307:TOOL/cJSON.c  ****                 }
 2973              		.loc 1 1307 41 is_stmt 0 view .LVU872
 2974 00c8 CB69     		ldr	r3, [r1, #28]
1307:TOOL/cJSON.c  ****                 }
 2975              		.loc 1 1307 21 view .LVU873
 2976 00ca 0868     		ldr	r0, [r1]
 2977 00cc 9847     		blx	r3
 2978              	.LVL299:
 2979              	.L247:
1309:TOOL/cJSON.c  ****             }
 2980              		.loc 1 1309 17 is_stmt 1 view .LVU874
1309:TOOL/cJSON.c  ****             }
 2981              		.loc 1 1309 24 is_stmt 0 view .LVU875
 2982 00ce 0024     		movs	r4, #0
 2983 00d0 C1E7     		b	.L234
 2984              	.LVL300:
 2985              	.L241:
1309:TOOL/cJSON.c  ****             }
 2986              		.loc 1 1309 24 view .LVU876
ARM GAS  /var/folders/ww/n4ctlbrs3x70633t9y2ks63c0000gn/T//ccTX1xk7.s 			page 96


 2987              	.LBE9:
1326:TOOL/cJSON.c  **** 
 2988              		.loc 1 1326 13 is_stmt 1 view .LVU877
1326:TOOL/cJSON.c  **** 
 2989              		.loc 1 1326 20 is_stmt 0 view .LVU878
 2990 00d2 FFF7FEFF 		bl	print_array
 2991              	.LVL301:
1326:TOOL/cJSON.c  **** 
 2992              		.loc 1 1326 20 view .LVU879
 2993 00d6 0446     		mov	r4, r0
 2994 00d8 BDE7     		b	.L234
 2995              	.LVL302:
 2996              	.L244:
1329:TOOL/cJSON.c  **** 
 2997              		.loc 1 1329 13 is_stmt 1 view .LVU880
1329:TOOL/cJSON.c  **** 
 2998              		.loc 1 1329 20 is_stmt 0 view .LVU881
 2999 00da FFF7FEFF 		bl	print_object
 3000              	.LVL303:
1329:TOOL/cJSON.c  **** 
 3001              		.loc 1 1329 20 view .LVU882
 3002 00de 0446     		mov	r4, r0
 3003 00e0 B9E7     		b	.L234
 3004              	.LVL304:
 3005              	.L248:
1265:TOOL/cJSON.c  ****     }
 3006              		.loc 1 1265 16 view .LVU883
 3007 00e2 0024     		movs	r4, #0
 3008 00e4 B7E7     		b	.L234
 3009              	.L249:
1265:TOOL/cJSON.c  ****     }
 3010              		.loc 1 1265 16 view .LVU884
 3011 00e6 0024     		movs	r4, #0
 3012 00e8 B5E7     		b	.L234
 3013              	.LVL305:
 3014              	.L250:
1274:TOOL/cJSON.c  ****             }
 3015              		.loc 1 1274 24 view .LVU885
 3016 00ea 0024     		movs	r4, #0
 3017 00ec B3E7     		b	.L234
 3018              	.L251:
1283:TOOL/cJSON.c  ****             }
 3019              		.loc 1 1283 24 view .LVU886
 3020 00ee 0024     		movs	r4, #0
 3021 00f0 B1E7     		b	.L234
 3022              	.L252:
1292:TOOL/cJSON.c  ****             }
 3023              		.loc 1 1292 24 view .LVU887
 3024 00f2 0024     		movs	r4, #0
 3025 00f4 AFE7     		b	.L234
 3026              	.LVL306:
 3027              	.L253:
 3028              	.LBB10:
1316:TOOL/cJSON.c  ****             }
 3029              		.loc 1 1316 24 view .LVU888
 3030 00f6 0024     		movs	r4, #0
 3031              	.LVL307:
ARM GAS  /var/folders/ww/n4ctlbrs3x70633t9y2ks63c0000gn/T//ccTX1xk7.s 			page 97


1316:TOOL/cJSON.c  ****             }
 3032              		.loc 1 1316 24 view .LVU889
 3033 00f8 ADE7     		b	.L234
 3034              	.L261:
 3035 00fa 00BF     		.align	2
 3036              	.L260:
 3037 00fc 00000000 		.word	.LC3
 3038 0100 00000000 		.word	.LC7
 3039 0104 08000000 		.word	.LC8
 3040              	.LBE10:
 3041              		.cfi_endproc
 3042              	.LFE99:
 3044              		.section	.text.print,"ax",%progbits
 3045              		.align	1
 3046              		.syntax unified
 3047              		.thumb
 3048              		.thumb_func
 3049              		.fpu softvfp
 3051              	print:
 3052              	.LVL308:
 3053              	.LFB93:
1082:TOOL/cJSON.c  ****     printbuffer buffer[1];
 3054              		.loc 1 1082 1 is_stmt 1 view -0
 3055              		.cfi_startproc
 3056              		@ args = 0, pretend = 0, frame = 40
 3057              		@ frame_needed = 0, uses_anonymous_args = 0
1082:TOOL/cJSON.c  ****     printbuffer buffer[1];
 3058              		.loc 1 1082 1 is_stmt 0 view .LVU891
 3059 0000 F0B5     		push	{r4, r5, r6, r7, lr}
 3060              	.LCFI33:
 3061              		.cfi_def_cfa_offset 20
 3062              		.cfi_offset 4, -20
 3063              		.cfi_offset 5, -16
 3064              		.cfi_offset 6, -12
 3065              		.cfi_offset 7, -8
 3066              		.cfi_offset 14, -4
 3067 0002 8BB0     		sub	sp, sp, #44
 3068              	.LCFI34:
 3069              		.cfi_def_cfa_offset 64
 3070 0004 0746     		mov	r7, r0
 3071 0006 0E46     		mov	r6, r1
 3072 0008 1546     		mov	r5, r2
1083:TOOL/cJSON.c  ****     unsigned char *printed = NULL;
 3073              		.loc 1 1083 5 is_stmt 1 view .LVU892
1084:TOOL/cJSON.c  **** 
 3074              		.loc 1 1084 5 view .LVU893
 3075              	.LVL309:
1086:TOOL/cJSON.c  **** 
 3076              		.loc 1 1086 5 view .LVU894
 3077 000a 2422     		movs	r2, #36
 3078              	.LVL310:
1086:TOOL/cJSON.c  **** 
 3079              		.loc 1 1086 5 is_stmt 0 view .LVU895
 3080 000c 0021     		movs	r1, #0
 3081              	.LVL311:
1086:TOOL/cJSON.c  **** 
 3082              		.loc 1 1086 5 view .LVU896
ARM GAS  /var/folders/ww/n4ctlbrs3x70633t9y2ks63c0000gn/T//ccTX1xk7.s 			page 98


 3083 000e 01A8     		add	r0, sp, #4
 3084              	.LVL312:
1086:TOOL/cJSON.c  **** 
 3085              		.loc 1 1086 5 view .LVU897
 3086 0010 FFF7FEFF 		bl	memset
 3087              	.LVL313:
1089:TOOL/cJSON.c  ****     buffer->format = format;
 3088              		.loc 1 1089 5 is_stmt 1 view .LVU898
1089:TOOL/cJSON.c  ****     buffer->format = format;
 3089              		.loc 1 1089 44 is_stmt 0 view .LVU899
 3090 0014 2B68     		ldr	r3, [r5]
1089:TOOL/cJSON.c  ****     buffer->format = format;
 3091              		.loc 1 1089 39 view .LVU900
 3092 0016 4FF48070 		mov	r0, #256
 3093 001a 9847     		blx	r3
 3094              	.LVL314:
 3095 001c 0446     		mov	r4, r0
1089:TOOL/cJSON.c  ****     buffer->format = format;
 3096              		.loc 1 1089 20 view .LVU901
 3097 001e 0190     		str	r0, [sp, #4]
1090:TOOL/cJSON.c  ****     buffer->hooks = *hooks;
 3098              		.loc 1 1090 5 is_stmt 1 view .LVU902
1090:TOOL/cJSON.c  ****     buffer->hooks = *hooks;
 3099              		.loc 1 1090 20 is_stmt 0 view .LVU903
 3100 0020 0696     		str	r6, [sp, #24]
1091:TOOL/cJSON.c  ****     if (buffer->buffer == NULL)
 3101              		.loc 1 1091 5 is_stmt 1 view .LVU904
1091:TOOL/cJSON.c  ****     if (buffer->buffer == NULL)
 3102              		.loc 1 1091 19 is_stmt 0 view .LVU905
 3103 0022 95E80700 		ldm	r5, {r0, r1, r2}
 3104 0026 0AAB     		add	r3, sp, #40
 3105 0028 03E90700 		stmdb	r3, {r0, r1, r2}
1092:TOOL/cJSON.c  ****     {
 3106              		.loc 1 1092 5 is_stmt 1 view .LVU906
1092:TOOL/cJSON.c  ****     {
 3107              		.loc 1 1092 8 is_stmt 0 view .LVU907
 3108 002c 2CB1     		cbz	r4, .L263
1098:TOOL/cJSON.c  ****     {
 3109              		.loc 1 1098 5 is_stmt 1 view .LVU908
1098:TOOL/cJSON.c  ****     {
 3110              		.loc 1 1098 10 is_stmt 0 view .LVU909
 3111 002e 01A9     		add	r1, sp, #4
 3112 0030 3846     		mov	r0, r7
 3113 0032 FFF7FEFF 		bl	print_value
 3114              	.LVL315:
1098:TOOL/cJSON.c  ****     {
 3115              		.loc 1 1098 8 view .LVU910
 3116 0036 60B9     		cbnz	r0, .L269
1084:TOOL/cJSON.c  **** 
 3117              		.loc 1 1084 20 view .LVU911
 3118 0038 0024     		movs	r4, #0
 3119              	.LVL316:
 3120              	.L263:
1130:TOOL/cJSON.c  ****     {
 3121              		.loc 1 1130 5 is_stmt 1 view .LVU912
1130:TOOL/cJSON.c  ****     {
 3122              		.loc 1 1130 15 is_stmt 0 view .LVU913
ARM GAS  /var/folders/ww/n4ctlbrs3x70633t9y2ks63c0000gn/T//ccTX1xk7.s 			page 99


 3123 003a 0198     		ldr	r0, [sp, #4]
1130:TOOL/cJSON.c  ****     {
 3124              		.loc 1 1130 8 view .LVU914
 3125 003c 08B1     		cbz	r0, .L266
1132:TOOL/cJSON.c  ****     }
 3126              		.loc 1 1132 9 is_stmt 1 view .LVU915
1132:TOOL/cJSON.c  ****     }
 3127              		.loc 1 1132 14 is_stmt 0 view .LVU916
 3128 003e 6B68     		ldr	r3, [r5, #4]
1132:TOOL/cJSON.c  ****     }
 3129              		.loc 1 1132 9 view .LVU917
 3130 0040 9847     		blx	r3
 3131              	.LVL317:
 3132              	.L266:
1135:TOOL/cJSON.c  ****     {
 3133              		.loc 1 1135 5 is_stmt 1 view .LVU918
1135:TOOL/cJSON.c  ****     {
 3134              		.loc 1 1135 8 is_stmt 0 view .LVU919
 3135 0042 1CB1     		cbz	r4, .L262
1137:TOOL/cJSON.c  ****     }
 3136              		.loc 1 1137 9 is_stmt 1 view .LVU920
1137:TOOL/cJSON.c  ****     }
 3137              		.loc 1 1137 14 is_stmt 0 view .LVU921
 3138 0044 6B68     		ldr	r3, [r5, #4]
1137:TOOL/cJSON.c  ****     }
 3139              		.loc 1 1137 9 view .LVU922
 3140 0046 2046     		mov	r0, r4
 3141 0048 9847     		blx	r3
 3142              	.LVL318:
1140:TOOL/cJSON.c  **** }
 3143              		.loc 1 1140 12 view .LVU923
 3144 004a 0024     		movs	r4, #0
 3145              	.LVL319:
 3146              	.L262:
1141:TOOL/cJSON.c  **** 
 3147              		.loc 1 1141 1 view .LVU924
 3148 004c 2046     		mov	r0, r4
 3149 004e 0BB0     		add	sp, sp, #44
 3150              	.LCFI35:
 3151              		.cfi_remember_state
 3152              		.cfi_def_cfa_offset 20
 3153              		@ sp needed
 3154 0050 F0BD     		pop	{r4, r5, r6, r7, pc}
 3155              	.LVL320:
 3156              	.L269:
 3157              	.LCFI36:
 3158              		.cfi_restore_state
1102:TOOL/cJSON.c  **** 
 3159              		.loc 1 1102 5 is_stmt 1 view .LVU925
 3160 0052 01A8     		add	r0, sp, #4
 3161 0054 FFF7FEFF 		bl	update_offset
 3162              	.LVL321:
1105:TOOL/cJSON.c  ****     {
 3163              		.loc 1 1105 5 view .LVU926
1105:TOOL/cJSON.c  ****     {
 3164              		.loc 1 1105 14 is_stmt 0 view .LVU927
 3165 0058 AB68     		ldr	r3, [r5, #8]
ARM GAS  /var/folders/ww/n4ctlbrs3x70633t9y2ks63c0000gn/T//ccTX1xk7.s 			page 100


1105:TOOL/cJSON.c  ****     {
 3166              		.loc 1 1105 8 view .LVU928
 3167 005a 43B1     		cbz	r3, .L264
1107:TOOL/cJSON.c  ****         buffer->buffer = NULL;
 3168              		.loc 1 1107 9 is_stmt 1 view .LVU929
1107:TOOL/cJSON.c  ****         buffer->buffer = NULL;
 3169              		.loc 1 1107 36 is_stmt 0 view .LVU930
 3170 005c 0299     		ldr	r1, [sp, #8]
 3171 005e 0198     		ldr	r0, [sp, #4]
 3172 0060 9847     		blx	r3
 3173              	.LVL322:
1108:TOOL/cJSON.c  ****         if (printed == NULL) {
 3174              		.loc 1 1108 9 is_stmt 1 view .LVU931
1108:TOOL/cJSON.c  ****         if (printed == NULL) {
 3175              		.loc 1 1108 24 is_stmt 0 view .LVU932
 3176 0062 0023     		movs	r3, #0
 3177 0064 0193     		str	r3, [sp, #4]
1109:TOOL/cJSON.c  ****             goto fail;
 3178              		.loc 1 1109 9 is_stmt 1 view .LVU933
1109:TOOL/cJSON.c  ****             goto fail;
 3179              		.loc 1 1109 12 is_stmt 0 view .LVU934
 3180 0066 0446     		mov	r4, r0
 3181 0068 0028     		cmp	r0, #0
 3182 006a EFD1     		bne	.L262
 3183 006c E5E7     		b	.L263
 3184              	.LVL323:
 3185              	.L264:
1115:TOOL/cJSON.c  ****         if (printed == NULL)
 3186              		.loc 1 1115 9 is_stmt 1 view .LVU935
1115:TOOL/cJSON.c  ****         if (printed == NULL)
 3187              		.loc 1 1115 41 is_stmt 0 view .LVU936
 3188 006e 2B68     		ldr	r3, [r5]
1115:TOOL/cJSON.c  ****         if (printed == NULL)
 3189              		.loc 1 1115 36 view .LVU937
 3190 0070 0398     		ldr	r0, [sp, #12]
 3191 0072 0130     		adds	r0, r0, #1
 3192 0074 9847     		blx	r3
 3193              	.LVL324:
1116:TOOL/cJSON.c  ****         {
 3194              		.loc 1 1116 9 is_stmt 1 view .LVU938
1116:TOOL/cJSON.c  ****         {
 3195              		.loc 1 1116 12 is_stmt 0 view .LVU939
 3196 0076 0446     		mov	r4, r0
 3197 0078 0028     		cmp	r0, #0
 3198 007a DED0     		beq	.L263
1120:TOOL/cJSON.c  ****         printed[buffer->offset] = '\0'; /* just to be sure */
 3199              		.loc 1 1120 9 is_stmt 1 view .LVU940
1120:TOOL/cJSON.c  ****         printed[buffer->offset] = '\0'; /* just to be sure */
 3200              		.loc 1 1120 41 is_stmt 0 view .LVU941
 3201 007c 039A     		ldr	r2, [sp, #12]
 3202 007e 0132     		adds	r2, r2, #1
1120:TOOL/cJSON.c  ****         printed[buffer->offset] = '\0'; /* just to be sure */
 3203              		.loc 1 1120 9 view .LVU942
 3204 0080 029B     		ldr	r3, [sp, #8]
 3205 0082 9A42     		cmp	r2, r3
 3206 0084 28BF     		it	cs
 3207 0086 1A46     		movcs	r2, r3
ARM GAS  /var/folders/ww/n4ctlbrs3x70633t9y2ks63c0000gn/T//ccTX1xk7.s 			page 101


 3208 0088 0199     		ldr	r1, [sp, #4]
 3209 008a FFF7FEFF 		bl	memcpy
 3210              	.LVL325:
1121:TOOL/cJSON.c  **** 
 3211              		.loc 1 1121 9 is_stmt 1 view .LVU943
1121:TOOL/cJSON.c  **** 
 3212              		.loc 1 1121 33 is_stmt 0 view .LVU944
 3213 008e 039B     		ldr	r3, [sp, #12]
 3214 0090 0022     		movs	r2, #0
 3215 0092 E254     		strb	r2, [r4, r3]
1124:TOOL/cJSON.c  ****     }
 3216              		.loc 1 1124 9 is_stmt 1 view .LVU945
1124:TOOL/cJSON.c  ****     }
 3217              		.loc 1 1124 14 is_stmt 0 view .LVU946
 3218 0094 6B68     		ldr	r3, [r5, #4]
1124:TOOL/cJSON.c  ****     }
 3219              		.loc 1 1124 9 view .LVU947
 3220 0096 0198     		ldr	r0, [sp, #4]
 3221 0098 9847     		blx	r3
 3222              	.LVL326:
 3223 009a D7E7     		b	.L262
 3224              		.cfi_endproc
 3225              	.LFE93:
 3227              		.section	.text.print_array,"ax",%progbits
 3228              		.align	1
 3229              		.syntax unified
 3230              		.thumb
 3231              		.thumb_func
 3232              		.fpu softvfp
 3234              	print_array:
 3235              	.LVL327:
 3236              	.LFB101:
1432:TOOL/cJSON.c  ****     unsigned char *output_pointer = NULL;
 3237              		.loc 1 1432 1 is_stmt 1 view -0
 3238              		.cfi_startproc
 3239              		@ args = 0, pretend = 0, frame = 0
 3240              		@ frame_needed = 0, uses_anonymous_args = 0
1432:TOOL/cJSON.c  ****     unsigned char *output_pointer = NULL;
 3241              		.loc 1 1432 1 is_stmt 0 view .LVU949
 3242 0000 70B5     		push	{r4, r5, r6, lr}
 3243              	.LCFI37:
 3244              		.cfi_def_cfa_offset 16
 3245              		.cfi_offset 4, -16
 3246              		.cfi_offset 5, -12
 3247              		.cfi_offset 6, -8
 3248              		.cfi_offset 14, -4
1433:TOOL/cJSON.c  ****     size_t length = 0;
 3249              		.loc 1 1433 5 is_stmt 1 view .LVU950
 3250              	.LVL328:
1434:TOOL/cJSON.c  ****     cJSON *current_element = item->child;
 3251              		.loc 1 1434 5 view .LVU951
1435:TOOL/cJSON.c  **** 
 3252              		.loc 1 1435 5 view .LVU952
1435:TOOL/cJSON.c  **** 
 3253              		.loc 1 1435 12 is_stmt 0 view .LVU953
 3254 0002 8568     		ldr	r5, [r0, #8]
 3255              	.LVL329:
ARM GAS  /var/folders/ww/n4ctlbrs3x70633t9y2ks63c0000gn/T//ccTX1xk7.s 			page 102


1437:TOOL/cJSON.c  ****     {
 3256              		.loc 1 1437 5 is_stmt 1 view .LVU954
1437:TOOL/cJSON.c  ****     {
 3257              		.loc 1 1437 8 is_stmt 0 view .LVU955
 3258 0004 0029     		cmp	r1, #0
 3259 0006 46D0     		beq	.L277
 3260 0008 0C46     		mov	r4, r1
1444:TOOL/cJSON.c  ****     if (output_pointer == NULL)
 3261              		.loc 1 1444 5 is_stmt 1 view .LVU956
1444:TOOL/cJSON.c  ****     if (output_pointer == NULL)
 3262              		.loc 1 1444 22 is_stmt 0 view .LVU957
 3263 000a 0121     		movs	r1, #1
 3264              	.LVL330:
1444:TOOL/cJSON.c  ****     if (output_pointer == NULL)
 3265              		.loc 1 1444 22 view .LVU958
 3266 000c 2046     		mov	r0, r4
 3267              	.LVL331:
1444:TOOL/cJSON.c  ****     if (output_pointer == NULL)
 3268              		.loc 1 1444 22 view .LVU959
 3269 000e FFF7FEFF 		bl	ensure
 3270              	.LVL332:
1445:TOOL/cJSON.c  ****     {
 3271              		.loc 1 1445 5 is_stmt 1 view .LVU960
1445:TOOL/cJSON.c  ****     {
 3272              		.loc 1 1445 8 is_stmt 0 view .LVU961
 3273 0012 0028     		cmp	r0, #0
 3274 0014 42D0     		beq	.L278
1450:TOOL/cJSON.c  ****     output_buffer->offset++;
 3275              		.loc 1 1450 5 is_stmt 1 view .LVU962
1450:TOOL/cJSON.c  ****     output_buffer->offset++;
 3276              		.loc 1 1450 21 is_stmt 0 view .LVU963
 3277 0016 5B22     		movs	r2, #91
 3278 0018 0270     		strb	r2, [r0]
1451:TOOL/cJSON.c  ****     output_buffer->depth++;
 3279              		.loc 1 1451 5 is_stmt 1 view .LVU964
1451:TOOL/cJSON.c  ****     output_buffer->depth++;
 3280              		.loc 1 1451 18 is_stmt 0 view .LVU965
 3281 001a A368     		ldr	r3, [r4, #8]
1451:TOOL/cJSON.c  ****     output_buffer->depth++;
 3282              		.loc 1 1451 26 view .LVU966
 3283 001c 0133     		adds	r3, r3, #1
 3284 001e A360     		str	r3, [r4, #8]
1452:TOOL/cJSON.c  **** 
 3285              		.loc 1 1452 5 is_stmt 1 view .LVU967
1452:TOOL/cJSON.c  **** 
 3286              		.loc 1 1452 18 is_stmt 0 view .LVU968
 3287 0020 E368     		ldr	r3, [r4, #12]
1452:TOOL/cJSON.c  **** 
 3288              		.loc 1 1452 25 view .LVU969
 3289 0022 0133     		adds	r3, r3, #1
 3290 0024 E360     		str	r3, [r4, #12]
1454:TOOL/cJSON.c  ****     {
 3291              		.loc 1 1454 5 is_stmt 1 view .LVU970
1454:TOOL/cJSON.c  ****     {
 3292              		.loc 1 1454 11 is_stmt 0 view .LVU971
 3293 0026 07E0     		b	.L272
 3294              	.LVL333:
ARM GAS  /var/folders/ww/n4ctlbrs3x70633t9y2ks63c0000gn/T//ccTX1xk7.s 			page 103


 3295              	.L279:
1463:TOOL/cJSON.c  ****             output_pointer = ensure(output_buffer, length + 1);
 3296              		.loc 1 1463 22 view .LVU972
 3297 0028 0126     		movs	r6, #1
 3298 002a 16E0     		b	.L274
 3299              	.LVL334:
 3300              	.L275:
1474:TOOL/cJSON.c  ****             output_buffer->offset += length;
 3301              		.loc 1 1474 13 is_stmt 1 view .LVU973
1474:TOOL/cJSON.c  ****             output_buffer->offset += length;
 3302              		.loc 1 1474 29 is_stmt 0 view .LVU974
 3303 002c 0022     		movs	r2, #0
 3304 002e 1A70     		strb	r2, [r3]
1475:TOOL/cJSON.c  ****         }
 3305              		.loc 1 1475 13 is_stmt 1 view .LVU975
1475:TOOL/cJSON.c  ****         }
 3306              		.loc 1 1475 35 is_stmt 0 view .LVU976
 3307 0030 A368     		ldr	r3, [r4, #8]
 3308              	.LVL335:
1475:TOOL/cJSON.c  ****         }
 3309              		.loc 1 1475 35 view .LVU977
 3310 0032 3344     		add	r3, r3, r6
 3311 0034 A360     		str	r3, [r4, #8]
 3312              	.LVL336:
 3313              	.L273:
1477:TOOL/cJSON.c  ****     }
 3314              		.loc 1 1477 9 is_stmt 1 view .LVU978
1477:TOOL/cJSON.c  ****     }
 3315              		.loc 1 1477 25 is_stmt 0 view .LVU979
 3316 0036 2D68     		ldr	r5, [r5]
 3317              	.LVL337:
 3318              	.L272:
1454:TOOL/cJSON.c  ****     {
 3319              		.loc 1 1454 11 view .LVU980
 3320 0038 FDB1     		cbz	r5, .L283
1456:TOOL/cJSON.c  ****         {
 3321              		.loc 1 1456 9 is_stmt 1 view .LVU981
1456:TOOL/cJSON.c  ****         {
 3322              		.loc 1 1456 14 is_stmt 0 view .LVU982
 3323 003a 2146     		mov	r1, r4
 3324 003c 2846     		mov	r0, r5
 3325 003e FFF7FEFF 		bl	print_value
 3326              	.LVL338:
1456:TOOL/cJSON.c  ****         {
 3327              		.loc 1 1456 12 view .LVU983
 3328 0042 0346     		mov	r3, r0
 3329 0044 40B3     		cbz	r0, .L270
1460:TOOL/cJSON.c  ****         if (current_element->next)
 3330              		.loc 1 1460 9 is_stmt 1 view .LVU984
 3331 0046 2046     		mov	r0, r4
 3332 0048 FFF7FEFF 		bl	update_offset
 3333              	.LVL339:
1461:TOOL/cJSON.c  ****         {
 3334              		.loc 1 1461 9 view .LVU985
1461:TOOL/cJSON.c  ****         {
 3335              		.loc 1 1461 28 is_stmt 0 view .LVU986
 3336 004c 2B68     		ldr	r3, [r5]
ARM GAS  /var/folders/ww/n4ctlbrs3x70633t9y2ks63c0000gn/T//ccTX1xk7.s 			page 104


1461:TOOL/cJSON.c  ****         {
 3337              		.loc 1 1461 12 view .LVU987
 3338 004e 002B     		cmp	r3, #0
 3339 0050 F1D0     		beq	.L273
1463:TOOL/cJSON.c  ****             output_pointer = ensure(output_buffer, length + 1);
 3340              		.loc 1 1463 13 is_stmt 1 view .LVU988
1463:TOOL/cJSON.c  ****             output_pointer = ensure(output_buffer, length + 1);
 3341              		.loc 1 1463 45 is_stmt 0 view .LVU989
 3342 0052 6369     		ldr	r3, [r4, #20]
1463:TOOL/cJSON.c  ****             output_pointer = ensure(output_buffer, length + 1);
 3343              		.loc 1 1463 22 view .LVU990
 3344 0054 002B     		cmp	r3, #0
 3345 0056 E7D0     		beq	.L279
 3346 0058 0226     		movs	r6, #2
 3347              	.L274:
 3348              	.LVL340:
1464:TOOL/cJSON.c  ****             if (output_pointer == NULL)
 3349              		.loc 1 1464 13 is_stmt 1 discriminator 4 view .LVU991
1464:TOOL/cJSON.c  ****             if (output_pointer == NULL)
 3350              		.loc 1 1464 30 is_stmt 0 discriminator 4 view .LVU992
 3351 005a 711C     		adds	r1, r6, #1
 3352 005c 2046     		mov	r0, r4
 3353 005e FFF7FEFF 		bl	ensure
 3354              	.LVL341:
1465:TOOL/cJSON.c  ****             {
 3355              		.loc 1 1465 13 is_stmt 1 discriminator 4 view .LVU993
1465:TOOL/cJSON.c  ****             {
 3356              		.loc 1 1465 16 is_stmt 0 discriminator 4 view .LVU994
 3357 0062 E8B1     		cbz	r0, .L280
1469:TOOL/cJSON.c  ****             if(output_buffer->format)
 3358              		.loc 1 1469 13 is_stmt 1 view .LVU995
1469:TOOL/cJSON.c  ****             if(output_buffer->format)
 3359              		.loc 1 1469 28 is_stmt 0 view .LVU996
 3360 0064 0346     		mov	r3, r0
1469:TOOL/cJSON.c  ****             if(output_buffer->format)
 3361              		.loc 1 1469 31 view .LVU997
 3362 0066 2C21     		movs	r1, #44
 3363 0068 03F8011B 		strb	r1, [r3], #1
1470:TOOL/cJSON.c  ****             {
 3364              		.loc 1 1470 13 is_stmt 1 view .LVU998
1470:TOOL/cJSON.c  ****             {
 3365              		.loc 1 1470 29 is_stmt 0 view .LVU999
 3366 006c 6169     		ldr	r1, [r4, #20]
1470:TOOL/cJSON.c  ****             {
 3367              		.loc 1 1470 15 view .LVU1000
 3368 006e 0029     		cmp	r1, #0
 3369 0070 DCD0     		beq	.L275
1472:TOOL/cJSON.c  ****             }
 3370              		.loc 1 1472 17 is_stmt 1 view .LVU1001
1472:TOOL/cJSON.c  ****             }
 3371              		.loc 1 1472 32 is_stmt 0 view .LVU1002
 3372 0072 831C     		adds	r3, r0, #2
 3373              	.LVL342:
1472:TOOL/cJSON.c  ****             }
 3374              		.loc 1 1472 35 view .LVU1003
 3375 0074 2021     		movs	r1, #32
 3376 0076 4170     		strb	r1, [r0, #1]
ARM GAS  /var/folders/ww/n4ctlbrs3x70633t9y2ks63c0000gn/T//ccTX1xk7.s 			page 105


 3377 0078 D8E7     		b	.L275
 3378              	.LVL343:
 3379              	.L283:
1480:TOOL/cJSON.c  ****     if (output_pointer == NULL)
 3380              		.loc 1 1480 5 is_stmt 1 view .LVU1004
1480:TOOL/cJSON.c  ****     if (output_pointer == NULL)
 3381              		.loc 1 1480 22 is_stmt 0 view .LVU1005
 3382 007a 0221     		movs	r1, #2
 3383 007c 2046     		mov	r0, r4
 3384 007e FFF7FEFF 		bl	ensure
 3385              	.LVL344:
1481:TOOL/cJSON.c  ****     {
 3386              		.loc 1 1481 5 is_stmt 1 view .LVU1006
1481:TOOL/cJSON.c  ****     {
 3387              		.loc 1 1481 8 is_stmt 0 view .LVU1007
 3388 0082 78B1     		cbz	r0, .L281
1485:TOOL/cJSON.c  ****     *output_pointer = '\0';
 3389              		.loc 1 1485 5 is_stmt 1 view .LVU1008
 3390              	.LVL345:
1485:TOOL/cJSON.c  ****     *output_pointer = '\0';
 3391              		.loc 1 1485 23 is_stmt 0 view .LVU1009
 3392 0084 5D22     		movs	r2, #93
 3393 0086 0270     		strb	r2, [r0]
1486:TOOL/cJSON.c  ****     output_buffer->depth--;
 3394              		.loc 1 1486 5 is_stmt 1 view .LVU1010
1486:TOOL/cJSON.c  ****     output_buffer->depth--;
 3395              		.loc 1 1486 21 is_stmt 0 view .LVU1011
 3396 0088 0022     		movs	r2, #0
 3397 008a 4270     		strb	r2, [r0, #1]
1487:TOOL/cJSON.c  **** 
 3398              		.loc 1 1487 5 is_stmt 1 view .LVU1012
1487:TOOL/cJSON.c  **** 
 3399              		.loc 1 1487 18 is_stmt 0 view .LVU1013
 3400 008c E368     		ldr	r3, [r4, #12]
1487:TOOL/cJSON.c  **** 
 3401              		.loc 1 1487 25 view .LVU1014
 3402 008e 013B     		subs	r3, r3, #1
 3403 0090 E360     		str	r3, [r4, #12]
1489:TOOL/cJSON.c  **** }
 3404              		.loc 1 1489 5 is_stmt 1 view .LVU1015
1489:TOOL/cJSON.c  **** }
 3405              		.loc 1 1489 12 is_stmt 0 view .LVU1016
 3406 0092 0123     		movs	r3, #1
 3407 0094 00E0     		b	.L270
 3408              	.LVL346:
 3409              	.L277:
1439:TOOL/cJSON.c  ****     }
 3410              		.loc 1 1439 16 view .LVU1017
 3411 0096 0023     		movs	r3, #0
 3412              	.LVL347:
 3413              	.L270:
1490:TOOL/cJSON.c  **** 
 3414              		.loc 1 1490 1 view .LVU1018
 3415 0098 1846     		mov	r0, r3
 3416 009a 70BD     		pop	{r4, r5, r6, pc}
 3417              	.LVL348:
 3418              	.L278:
ARM GAS  /var/folders/ww/n4ctlbrs3x70633t9y2ks63c0000gn/T//ccTX1xk7.s 			page 106


1447:TOOL/cJSON.c  ****     }
 3419              		.loc 1 1447 16 view .LVU1019
 3420 009c 0023     		movs	r3, #0
 3421 009e FBE7     		b	.L270
 3422              	.LVL349:
 3423              	.L280:
1467:TOOL/cJSON.c  ****             }
 3424              		.loc 1 1467 24 view .LVU1020
 3425 00a0 0023     		movs	r3, #0
 3426 00a2 F9E7     		b	.L270
 3427              	.LVL350:
 3428              	.L281:
1483:TOOL/cJSON.c  ****     }
 3429              		.loc 1 1483 16 view .LVU1021
 3430 00a4 0023     		movs	r3, #0
 3431 00a6 F7E7     		b	.L270
 3432              		.cfi_endproc
 3433              	.LFE101:
 3435              		.section	.text.print_object,"ax",%progbits
 3436              		.align	1
 3437              		.syntax unified
 3438              		.thumb
 3439              		.thumb_func
 3440              		.fpu softvfp
 3442              	print_object:
 3443              	.LVL351:
 3444              	.LFB103:
1603:TOOL/cJSON.c  ****     unsigned char *output_pointer = NULL;
 3445              		.loc 1 1603 1 is_stmt 1 view -0
 3446              		.cfi_startproc
 3447              		@ args = 0, pretend = 0, frame = 0
 3448              		@ frame_needed = 0, uses_anonymous_args = 0
1603:TOOL/cJSON.c  ****     unsigned char *output_pointer = NULL;
 3449              		.loc 1 1603 1 is_stmt 0 view .LVU1023
 3450 0000 70B5     		push	{r4, r5, r6, lr}
 3451              	.LCFI38:
 3452              		.cfi_def_cfa_offset 16
 3453              		.cfi_offset 4, -16
 3454              		.cfi_offset 5, -12
 3455              		.cfi_offset 6, -8
 3456              		.cfi_offset 14, -4
1604:TOOL/cJSON.c  ****     size_t length = 0;
 3457              		.loc 1 1604 5 is_stmt 1 view .LVU1024
 3458              	.LVL352:
1605:TOOL/cJSON.c  ****     cJSON *current_item = item->child;
 3459              		.loc 1 1605 5 view .LVU1025
1606:TOOL/cJSON.c  **** 
 3460              		.loc 1 1606 5 view .LVU1026
1606:TOOL/cJSON.c  **** 
 3461              		.loc 1 1606 12 is_stmt 0 view .LVU1027
 3462 0002 8568     		ldr	r5, [r0, #8]
 3463              	.LVL353:
1608:TOOL/cJSON.c  ****     {
 3464              		.loc 1 1608 5 is_stmt 1 view .LVU1028
1608:TOOL/cJSON.c  ****     {
 3465              		.loc 1 1608 8 is_stmt 0 view .LVU1029
 3466 0004 0029     		cmp	r1, #0
ARM GAS  /var/folders/ww/n4ctlbrs3x70633t9y2ks63c0000gn/T//ccTX1xk7.s 			page 107


 3467 0006 00F0A280 		beq	.L301
 3468 000a 0C46     		mov	r4, r1
1614:TOOL/cJSON.c  ****     output_pointer = ensure(output_buffer, length + 1);
 3469              		.loc 1 1614 5 is_stmt 1 view .LVU1030
1614:TOOL/cJSON.c  ****     output_pointer = ensure(output_buffer, length + 1);
 3470              		.loc 1 1614 37 is_stmt 0 view .LVU1031
 3471 000c 4B69     		ldr	r3, [r1, #20]
1614:TOOL/cJSON.c  ****     output_pointer = ensure(output_buffer, length + 1);
 3472              		.loc 1 1614 14 view .LVU1032
 3473 000e A3B1     		cbz	r3, .L302
 3474 0010 0226     		movs	r6, #2
 3475              	.L286:
 3476              	.LVL354:
1615:TOOL/cJSON.c  ****     if (output_pointer == NULL)
 3477              		.loc 1 1615 5 is_stmt 1 discriminator 4 view .LVU1033
1615:TOOL/cJSON.c  ****     if (output_pointer == NULL)
 3478              		.loc 1 1615 22 is_stmt 0 discriminator 4 view .LVU1034
 3479 0012 711C     		adds	r1, r6, #1
 3480              	.LVL355:
1615:TOOL/cJSON.c  ****     if (output_pointer == NULL)
 3481              		.loc 1 1615 22 discriminator 4 view .LVU1035
 3482 0014 2046     		mov	r0, r4
 3483              	.LVL356:
1615:TOOL/cJSON.c  ****     if (output_pointer == NULL)
 3484              		.loc 1 1615 22 discriminator 4 view .LVU1036
 3485 0016 FFF7FEFF 		bl	ensure
 3486              	.LVL357:
1616:TOOL/cJSON.c  ****     {
 3487              		.loc 1 1616 5 is_stmt 1 discriminator 4 view .LVU1037
1616:TOOL/cJSON.c  ****     {
 3488              		.loc 1 1616 8 is_stmt 0 discriminator 4 view .LVU1038
 3489 001a 0028     		cmp	r0, #0
 3490 001c 00F09A80 		beq	.L303
1621:TOOL/cJSON.c  ****     output_buffer->depth++;
 3491              		.loc 1 1621 5 is_stmt 1 view .LVU1039
 3492              	.LVL358:
1621:TOOL/cJSON.c  ****     output_buffer->depth++;
 3493              		.loc 1 1621 23 is_stmt 0 view .LVU1040
 3494 0020 7B23     		movs	r3, #123
 3495 0022 0370     		strb	r3, [r0]
1622:TOOL/cJSON.c  ****     if (output_buffer->format)
 3496              		.loc 1 1622 5 is_stmt 1 view .LVU1041
1622:TOOL/cJSON.c  ****     if (output_buffer->format)
 3497              		.loc 1 1622 18 is_stmt 0 view .LVU1042
 3498 0024 E368     		ldr	r3, [r4, #12]
1622:TOOL/cJSON.c  ****     if (output_buffer->format)
 3499              		.loc 1 1622 25 view .LVU1043
 3500 0026 0133     		adds	r3, r3, #1
 3501 0028 E360     		str	r3, [r4, #12]
1623:TOOL/cJSON.c  ****     {
 3502              		.loc 1 1623 5 is_stmt 1 view .LVU1044
1623:TOOL/cJSON.c  ****     {
 3503              		.loc 1 1623 22 is_stmt 0 view .LVU1045
 3504 002a 6369     		ldr	r3, [r4, #20]
1623:TOOL/cJSON.c  ****     {
 3505              		.loc 1 1623 8 view .LVU1046
 3506 002c 0BB1     		cbz	r3, .L287
ARM GAS  /var/folders/ww/n4ctlbrs3x70633t9y2ks63c0000gn/T//ccTX1xk7.s 			page 108


1625:TOOL/cJSON.c  ****     }
 3507              		.loc 1 1625 9 is_stmt 1 view .LVU1047
 3508              	.LVL359:
1625:TOOL/cJSON.c  ****     }
 3509              		.loc 1 1625 27 is_stmt 0 view .LVU1048
 3510 002e 0A23     		movs	r3, #10
 3511 0030 4370     		strb	r3, [r0, #1]
 3512              	.LVL360:
 3513              	.L287:
1627:TOOL/cJSON.c  **** 
 3514              		.loc 1 1627 5 is_stmt 1 view .LVU1049
1627:TOOL/cJSON.c  **** 
 3515              		.loc 1 1627 27 is_stmt 0 view .LVU1050
 3516 0032 A368     		ldr	r3, [r4, #8]
 3517 0034 3344     		add	r3, r3, r6
 3518 0036 A360     		str	r3, [r4, #8]
1629:TOOL/cJSON.c  ****     {
 3519              		.loc 1 1629 5 is_stmt 1 view .LVU1051
1629:TOOL/cJSON.c  ****     {
 3520              		.loc 1 1629 11 is_stmt 0 view .LVU1052
 3521 0038 20E0     		b	.L288
 3522              	.LVL361:
 3523              	.L302:
1614:TOOL/cJSON.c  ****     output_pointer = ensure(output_buffer, length + 1);
 3524              		.loc 1 1614 14 view .LVU1053
 3525 003a 0126     		movs	r6, #1
 3526 003c E9E7     		b	.L286
 3527              	.LVL362:
 3528              	.L315:
 3529              	.LBB11:
1633:TOOL/cJSON.c  ****             output_pointer = ensure(output_buffer, output_buffer->depth);
 3530              		.loc 1 1633 13 is_stmt 1 view .LVU1054
1634:TOOL/cJSON.c  ****             if (output_pointer == NULL)
 3531              		.loc 1 1634 13 view .LVU1055
1634:TOOL/cJSON.c  ****             if (output_pointer == NULL)
 3532              		.loc 1 1634 30 is_stmt 0 view .LVU1056
 3533 003e E168     		ldr	r1, [r4, #12]
 3534 0040 2046     		mov	r0, r4
 3535 0042 FFF7FEFF 		bl	ensure
 3536              	.LVL363:
1635:TOOL/cJSON.c  ****             {
 3537              		.loc 1 1635 13 is_stmt 1 view .LVU1057
1635:TOOL/cJSON.c  ****             {
 3538              		.loc 1 1635 16 is_stmt 0 view .LVU1058
 3539 0046 0346     		mov	r3, r0
 3540 0048 0028     		cmp	r0, #0
 3541 004a 00F08580 		beq	.L304
1639:TOOL/cJSON.c  ****             {
 3542              		.loc 1 1639 20 view .LVU1059
 3543 004e 0022     		movs	r2, #0
 3544              	.LVL364:
 3545              	.L290:
1639:TOOL/cJSON.c  ****             {
 3546              		.loc 1 1639 42 discriminator 1 view .LVU1060
 3547 0050 E168     		ldr	r1, [r4, #12]
1639:TOOL/cJSON.c  ****             {
 3548              		.loc 1 1639 13 discriminator 1 view .LVU1061
ARM GAS  /var/folders/ww/n4ctlbrs3x70633t9y2ks63c0000gn/T//ccTX1xk7.s 			page 109


 3549 0052 9142     		cmp	r1, r2
 3550 0054 06D9     		bls	.L313
1641:TOOL/cJSON.c  ****             }
 3551              		.loc 1 1641 17 is_stmt 1 discriminator 3 view .LVU1062
1641:TOOL/cJSON.c  ****             }
 3552              		.loc 1 1641 32 is_stmt 0 discriminator 3 view .LVU1063
 3553 0056 1846     		mov	r0, r3
1641:TOOL/cJSON.c  ****             }
 3554              		.loc 1 1641 35 discriminator 3 view .LVU1064
 3555 0058 0923     		movs	r3, #9
 3556              	.LVL365:
1641:TOOL/cJSON.c  ****             }
 3557              		.loc 1 1641 35 discriminator 3 view .LVU1065
 3558 005a 00F8013B 		strb	r3, [r0], #1
 3559              	.LVL366:
1639:TOOL/cJSON.c  ****             {
 3560              		.loc 1 1639 52 discriminator 3 view .LVU1066
 3561 005e 0132     		adds	r2, r2, #1
 3562              	.LVL367:
1641:TOOL/cJSON.c  ****             }
 3563              		.loc 1 1641 32 discriminator 3 view .LVU1067
 3564 0060 0346     		mov	r3, r0
 3565 0062 F5E7     		b	.L290
 3566              	.LVL368:
 3567              	.L313:
1643:TOOL/cJSON.c  ****         }
 3568              		.loc 1 1643 13 is_stmt 1 view .LVU1068
1643:TOOL/cJSON.c  ****         }
 3569              		.loc 1 1643 35 is_stmt 0 view .LVU1069
 3570 0064 A368     		ldr	r3, [r4, #8]
 3571              	.LVL369:
1643:TOOL/cJSON.c  ****         }
 3572              		.loc 1 1643 35 view .LVU1070
 3573 0066 1944     		add	r1, r1, r3
 3574 0068 A160     		str	r1, [r4, #8]
 3575 006a 0CE0     		b	.L289
 3576              	.LVL370:
 3577              	.L305:
1643:TOOL/cJSON.c  ****         }
 3578              		.loc 1 1643 35 view .LVU1071
 3579              	.LBE11:
1653:TOOL/cJSON.c  ****         output_pointer = ensure(output_buffer, length);
 3580              		.loc 1 1653 18 view .LVU1072
 3581 006c 0126     		movs	r6, #1
 3582 006e 18E0     		b	.L292
 3583              	.LVL371:
 3584              	.L295:
1689:TOOL/cJSON.c  ****         output_buffer->offset += length;
 3585              		.loc 1 1689 9 is_stmt 1 view .LVU1073
1689:TOOL/cJSON.c  ****         output_buffer->offset += length;
 3586              		.loc 1 1689 25 is_stmt 0 view .LVU1074
 3587 0070 0023     		movs	r3, #0
 3588 0072 0370     		strb	r3, [r0]
1690:TOOL/cJSON.c  **** 
 3589              		.loc 1 1690 9 is_stmt 1 view .LVU1075
1690:TOOL/cJSON.c  **** 
 3590              		.loc 1 1690 31 is_stmt 0 view .LVU1076
ARM GAS  /var/folders/ww/n4ctlbrs3x70633t9y2ks63c0000gn/T//ccTX1xk7.s 			page 110


 3591 0074 A368     		ldr	r3, [r4, #8]
 3592 0076 1E44     		add	r6, r6, r3
 3593              	.LVL372:
1690:TOOL/cJSON.c  **** 
 3594              		.loc 1 1690 31 view .LVU1077
 3595 0078 A660     		str	r6, [r4, #8]
1692:TOOL/cJSON.c  ****     }
 3596              		.loc 1 1692 9 is_stmt 1 view .LVU1078
1692:TOOL/cJSON.c  ****     }
 3597              		.loc 1 1692 22 is_stmt 0 view .LVU1079
 3598 007a 2D68     		ldr	r5, [r5]
 3599              	.LVL373:
 3600              	.L288:
1629:TOOL/cJSON.c  ****     {
 3601              		.loc 1 1629 11 view .LVU1080
 3602 007c 002D     		cmp	r5, #0
 3603 007e 43D0     		beq	.L314
1631:TOOL/cJSON.c  ****         {
 3604              		.loc 1 1631 9 is_stmt 1 view .LVU1081
1631:TOOL/cJSON.c  ****         {
 3605              		.loc 1 1631 26 is_stmt 0 view .LVU1082
 3606 0080 6369     		ldr	r3, [r4, #20]
1631:TOOL/cJSON.c  ****         {
 3607              		.loc 1 1631 12 view .LVU1083
 3608 0082 002B     		cmp	r3, #0
 3609 0084 DBD1     		bne	.L315
 3610              	.L289:
1647:TOOL/cJSON.c  ****         {
 3611              		.loc 1 1647 9 is_stmt 1 view .LVU1084
1647:TOOL/cJSON.c  ****         {
 3612              		.loc 1 1647 14 is_stmt 0 view .LVU1085
 3613 0086 2146     		mov	r1, r4
 3614 0088 286A     		ldr	r0, [r5, #32]
 3615 008a FFF7FEFF 		bl	print_string_ptr
 3616              	.LVL374:
1647:TOOL/cJSON.c  ****         {
 3617              		.loc 1 1647 12 view .LVU1086
 3618 008e 0346     		mov	r3, r0
 3619 0090 0028     		cmp	r0, #0
 3620 0092 5DD0     		beq	.L284
1651:TOOL/cJSON.c  **** 
 3621              		.loc 1 1651 9 is_stmt 1 view .LVU1087
 3622 0094 2046     		mov	r0, r4
 3623 0096 FFF7FEFF 		bl	update_offset
 3624              	.LVL375:
1653:TOOL/cJSON.c  ****         output_pointer = ensure(output_buffer, length);
 3625              		.loc 1 1653 9 view .LVU1088
1653:TOOL/cJSON.c  ****         output_pointer = ensure(output_buffer, length);
 3626              		.loc 1 1653 41 is_stmt 0 view .LVU1089
 3627 009a 6369     		ldr	r3, [r4, #20]
1653:TOOL/cJSON.c  ****         output_pointer = ensure(output_buffer, length);
 3628              		.loc 1 1653 18 view .LVU1090
 3629 009c 002B     		cmp	r3, #0
 3630 009e E5D0     		beq	.L305
 3631 00a0 0226     		movs	r6, #2
 3632              	.L292:
 3633              	.LVL376:
ARM GAS  /var/folders/ww/n4ctlbrs3x70633t9y2ks63c0000gn/T//ccTX1xk7.s 			page 111


1654:TOOL/cJSON.c  ****         if (output_pointer == NULL)
 3634              		.loc 1 1654 9 is_stmt 1 discriminator 4 view .LVU1091
1654:TOOL/cJSON.c  ****         if (output_pointer == NULL)
 3635              		.loc 1 1654 26 is_stmt 0 discriminator 4 view .LVU1092
 3636 00a2 3146     		mov	r1, r6
 3637 00a4 2046     		mov	r0, r4
 3638 00a6 FFF7FEFF 		bl	ensure
 3639              	.LVL377:
1655:TOOL/cJSON.c  ****         {
 3640              		.loc 1 1655 9 is_stmt 1 discriminator 4 view .LVU1093
1655:TOOL/cJSON.c  ****         {
 3641              		.loc 1 1655 12 is_stmt 0 discriminator 4 view .LVU1094
 3642 00aa 0028     		cmp	r0, #0
 3643 00ac 56D0     		beq	.L306
1659:TOOL/cJSON.c  ****         if (output_buffer->format)
 3644              		.loc 1 1659 9 is_stmt 1 view .LVU1095
 3645              	.LVL378:
1659:TOOL/cJSON.c  ****         if (output_buffer->format)
 3646              		.loc 1 1659 27 is_stmt 0 view .LVU1096
 3647 00ae 3A22     		movs	r2, #58
 3648 00b0 0270     		strb	r2, [r0]
1660:TOOL/cJSON.c  ****         {
 3649              		.loc 1 1660 9 is_stmt 1 view .LVU1097
1660:TOOL/cJSON.c  ****         {
 3650              		.loc 1 1660 26 is_stmt 0 view .LVU1098
 3651 00b2 6269     		ldr	r2, [r4, #20]
1660:TOOL/cJSON.c  ****         {
 3652              		.loc 1 1660 12 view .LVU1099
 3653 00b4 0AB1     		cbz	r2, .L293
1662:TOOL/cJSON.c  ****         }
 3654              		.loc 1 1662 13 is_stmt 1 view .LVU1100
 3655              	.LVL379:
1662:TOOL/cJSON.c  ****         }
 3656              		.loc 1 1662 31 is_stmt 0 view .LVU1101
 3657 00b6 0922     		movs	r2, #9
 3658 00b8 4270     		strb	r2, [r0, #1]
 3659              	.LVL380:
 3660              	.L293:
1664:TOOL/cJSON.c  **** 
 3661              		.loc 1 1664 9 is_stmt 1 view .LVU1102
1664:TOOL/cJSON.c  **** 
 3662              		.loc 1 1664 31 is_stmt 0 view .LVU1103
 3663 00ba A168     		ldr	r1, [r4, #8]
 3664 00bc 3144     		add	r1, r1, r6
 3665 00be A160     		str	r1, [r4, #8]
1667:TOOL/cJSON.c  ****         {
 3666              		.loc 1 1667 9 is_stmt 1 view .LVU1104
1667:TOOL/cJSON.c  ****         {
 3667              		.loc 1 1667 14 is_stmt 0 view .LVU1105
 3668 00c0 2146     		mov	r1, r4
 3669 00c2 2846     		mov	r0, r5
 3670 00c4 FFF7FEFF 		bl	print_value
 3671              	.LVL381:
1667:TOOL/cJSON.c  ****         {
 3672              		.loc 1 1667 12 view .LVU1106
 3673 00c8 0346     		mov	r3, r0
 3674 00ca 0028     		cmp	r0, #0
ARM GAS  /var/folders/ww/n4ctlbrs3x70633t9y2ks63c0000gn/T//ccTX1xk7.s 			page 112


 3675 00cc 40D0     		beq	.L284
1671:TOOL/cJSON.c  **** 
 3676              		.loc 1 1671 9 is_stmt 1 view .LVU1107
 3677 00ce 2046     		mov	r0, r4
 3678 00d0 FFF7FEFF 		bl	update_offset
 3679              	.LVL382:
1674:TOOL/cJSON.c  ****         output_pointer = ensure(output_buffer, length + 1);
 3680              		.loc 1 1674 9 view .LVU1108
1674:TOOL/cJSON.c  ****         output_pointer = ensure(output_buffer, length + 1);
 3681              		.loc 1 1674 42 is_stmt 0 view .LVU1109
 3682 00d4 6369     		ldr	r3, [r4, #20]
1674:TOOL/cJSON.c  ****         output_pointer = ensure(output_buffer, length + 1);
 3683              		.loc 1 1674 75 view .LVU1110
 3684 00d6 2E68     		ldr	r6, [r5]
 3685              	.LVL383:
1674:TOOL/cJSON.c  ****         output_pointer = ensure(output_buffer, length + 1);
 3686              		.loc 1 1674 86 view .LVU1111
 3687 00d8 0036     		adds	r6, r6, #0
 3688 00da 18BF     		it	ne
 3689 00dc 0126     		movne	r6, #1
1674:TOOL/cJSON.c  ****         output_pointer = ensure(output_buffer, length + 1);
 3690              		.loc 1 1674 60 view .LVU1112
 3691 00de 002B     		cmp	r3, #0
 3692 00e0 18BF     		it	ne
 3693 00e2 0136     		addne	r6, r6, #1
 3694              	.LVL384:
1675:TOOL/cJSON.c  ****         if (output_pointer == NULL)
 3695              		.loc 1 1675 9 is_stmt 1 view .LVU1113
1675:TOOL/cJSON.c  ****         if (output_pointer == NULL)
 3696              		.loc 1 1675 26 is_stmt 0 view .LVU1114
 3697 00e4 711C     		adds	r1, r6, #1
 3698 00e6 2046     		mov	r0, r4
 3699 00e8 FFF7FEFF 		bl	ensure
 3700              	.LVL385:
1676:TOOL/cJSON.c  ****         {
 3701              		.loc 1 1676 9 is_stmt 1 view .LVU1115
1676:TOOL/cJSON.c  ****         {
 3702              		.loc 1 1676 12 is_stmt 0 view .LVU1116
 3703 00ec 0028     		cmp	r0, #0
 3704 00ee 37D0     		beq	.L307
1680:TOOL/cJSON.c  ****         {
 3705              		.loc 1 1680 9 is_stmt 1 view .LVU1117
1680:TOOL/cJSON.c  ****         {
 3706              		.loc 1 1680 25 is_stmt 0 view .LVU1118
 3707 00f0 2A68     		ldr	r2, [r5]
1680:TOOL/cJSON.c  ****         {
 3708              		.loc 1 1680 12 view .LVU1119
 3709 00f2 12B1     		cbz	r2, .L294
1682:TOOL/cJSON.c  ****         }
 3710              		.loc 1 1682 13 is_stmt 1 view .LVU1120
1682:TOOL/cJSON.c  ****         }
 3711              		.loc 1 1682 31 is_stmt 0 view .LVU1121
 3712 00f4 2C23     		movs	r3, #44
 3713 00f6 00F8013B 		strb	r3, [r0], #1
 3714              	.LVL386:
 3715              	.L294:
1685:TOOL/cJSON.c  ****         {
ARM GAS  /var/folders/ww/n4ctlbrs3x70633t9y2ks63c0000gn/T//ccTX1xk7.s 			page 113


 3716              		.loc 1 1685 9 is_stmt 1 view .LVU1122
1685:TOOL/cJSON.c  ****         {
 3717              		.loc 1 1685 26 is_stmt 0 view .LVU1123
 3718 00fa 6369     		ldr	r3, [r4, #20]
1685:TOOL/cJSON.c  ****         {
 3719              		.loc 1 1685 12 view .LVU1124
 3720 00fc 002B     		cmp	r3, #0
 3721 00fe B7D0     		beq	.L295
1687:TOOL/cJSON.c  ****         }
 3722              		.loc 1 1687 13 is_stmt 1 view .LVU1125
1687:TOOL/cJSON.c  ****         }
 3723              		.loc 1 1687 31 is_stmt 0 view .LVU1126
 3724 0100 0A23     		movs	r3, #10
 3725 0102 00F8013B 		strb	r3, [r0], #1
 3726              	.LVL387:
1687:TOOL/cJSON.c  ****         }
 3727              		.loc 1 1687 31 view .LVU1127
 3728 0106 B3E7     		b	.L295
 3729              	.LVL388:
 3730              	.L314:
1695:TOOL/cJSON.c  ****     if (output_pointer == NULL)
 3731              		.loc 1 1695 5 is_stmt 1 view .LVU1128
1695:TOOL/cJSON.c  ****     if (output_pointer == NULL)
 3732              		.loc 1 1695 57 is_stmt 0 view .LVU1129
 3733 0108 6369     		ldr	r3, [r4, #20]
1695:TOOL/cJSON.c  ****     if (output_pointer == NULL)
 3734              		.loc 1 1695 22 view .LVU1130
 3735 010a 8BB1     		cbz	r3, .L309
1695:TOOL/cJSON.c  ****     if (output_pointer == NULL)
 3736              		.loc 1 1695 82 discriminator 1 view .LVU1131
 3737 010c E168     		ldr	r1, [r4, #12]
1695:TOOL/cJSON.c  ****     if (output_pointer == NULL)
 3738              		.loc 1 1695 22 discriminator 1 view .LVU1132
 3739 010e 0131     		adds	r1, r1, #1
 3740              	.L297:
1695:TOOL/cJSON.c  ****     if (output_pointer == NULL)
 3741              		.loc 1 1695 22 discriminator 4 view .LVU1133
 3742 0110 2046     		mov	r0, r4
 3743 0112 FFF7FEFF 		bl	ensure
 3744              	.LVL389:
1696:TOOL/cJSON.c  ****     {
 3745              		.loc 1 1696 5 is_stmt 1 discriminator 4 view .LVU1134
1696:TOOL/cJSON.c  ****     {
 3746              		.loc 1 1696 8 is_stmt 0 discriminator 4 view .LVU1135
 3747 0116 0346     		mov	r3, r0
 3748 0118 20B3     		cbz	r0, .L310
1700:TOOL/cJSON.c  ****     {
 3749              		.loc 1 1700 5 is_stmt 1 view .LVU1136
1700:TOOL/cJSON.c  ****     {
 3750              		.loc 1 1700 22 is_stmt 0 view .LVU1137
 3751 011a 6269     		ldr	r2, [r4, #20]
1700:TOOL/cJSON.c  ****     {
 3752              		.loc 1 1700 8 view .LVU1138
 3753 011c AAB9     		cbnz	r2, .L311
 3754              	.LVL390:
 3755              	.L299:
1708:TOOL/cJSON.c  ****     *output_pointer = '\0';
ARM GAS  /var/folders/ww/n4ctlbrs3x70633t9y2ks63c0000gn/T//ccTX1xk7.s 			page 114


 3756              		.loc 1 1708 5 is_stmt 1 view .LVU1139
1708:TOOL/cJSON.c  ****     *output_pointer = '\0';
 3757              		.loc 1 1708 23 is_stmt 0 view .LVU1140
 3758 011e 7D22     		movs	r2, #125
 3759 0120 1A70     		strb	r2, [r3]
1709:TOOL/cJSON.c  ****     output_buffer->depth--;
 3760              		.loc 1 1709 5 is_stmt 1 view .LVU1141
1709:TOOL/cJSON.c  ****     output_buffer->depth--;
 3761              		.loc 1 1709 21 is_stmt 0 view .LVU1142
 3762 0122 0022     		movs	r2, #0
 3763 0124 5A70     		strb	r2, [r3, #1]
1710:TOOL/cJSON.c  **** 
 3764              		.loc 1 1710 5 is_stmt 1 view .LVU1143
1710:TOOL/cJSON.c  **** 
 3765              		.loc 1 1710 18 is_stmt 0 view .LVU1144
 3766 0126 E368     		ldr	r3, [r4, #12]
 3767              	.LVL391:
1710:TOOL/cJSON.c  **** 
 3768              		.loc 1 1710 25 view .LVU1145
 3769 0128 013B     		subs	r3, r3, #1
 3770 012a E360     		str	r3, [r4, #12]
1712:TOOL/cJSON.c  **** }
 3771              		.loc 1 1712 5 is_stmt 1 view .LVU1146
1712:TOOL/cJSON.c  **** }
 3772              		.loc 1 1712 12 is_stmt 0 view .LVU1147
 3773 012c 0123     		movs	r3, #1
 3774 012e 0FE0     		b	.L284
 3775              	.L309:
1695:TOOL/cJSON.c  ****     if (output_pointer == NULL)
 3776              		.loc 1 1695 22 view .LVU1148
 3777 0130 0221     		movs	r1, #2
 3778 0132 EDE7     		b	.L297
 3779              	.LVL392:
 3780              	.L300:
 3781              	.LBB12:
1705:TOOL/cJSON.c  ****         }
 3782              		.loc 1 1705 13 is_stmt 1 discriminator 3 view .LVU1149
1705:TOOL/cJSON.c  ****         }
 3783              		.loc 1 1705 28 is_stmt 0 discriminator 3 view .LVU1150
 3784 0134 1846     		mov	r0, r3
 3785              	.LVL393:
1705:TOOL/cJSON.c  ****         }
 3786              		.loc 1 1705 31 discriminator 3 view .LVU1151
 3787 0136 0923     		movs	r3, #9
 3788 0138 00F8013B 		strb	r3, [r0], #1
 3789              	.LVL394:
1703:TOOL/cJSON.c  ****         {
 3790              		.loc 1 1703 54 discriminator 3 view .LVU1152
 3791 013c 0131     		adds	r1, r1, #1
 3792              	.LVL395:
1705:TOOL/cJSON.c  ****         }
 3793              		.loc 1 1705 28 discriminator 3 view .LVU1153
 3794 013e 0346     		mov	r3, r0
 3795              	.LVL396:
 3796              	.L298:
1703:TOOL/cJSON.c  ****         {
 3797              		.loc 1 1703 39 discriminator 1 view .LVU1154
ARM GAS  /var/folders/ww/n4ctlbrs3x70633t9y2ks63c0000gn/T//ccTX1xk7.s 			page 115


 3798 0140 E268     		ldr	r2, [r4, #12]
1703:TOOL/cJSON.c  ****         {
 3799              		.loc 1 1703 47 discriminator 1 view .LVU1155
 3800 0142 013A     		subs	r2, r2, #1
1703:TOOL/cJSON.c  ****         {
 3801              		.loc 1 1703 9 discriminator 1 view .LVU1156
 3802 0144 8A42     		cmp	r2, r1
 3803 0146 F5D8     		bhi	.L300
 3804 0148 E9E7     		b	.L299
 3805              	.LVL397:
 3806              	.L311:
1703:TOOL/cJSON.c  ****         {
 3807              		.loc 1 1703 16 view .LVU1157
 3808 014a 0021     		movs	r1, #0
 3809 014c F8E7     		b	.L298
 3810              	.LVL398:
 3811              	.L301:
1703:TOOL/cJSON.c  ****         {
 3812              		.loc 1 1703 16 view .LVU1158
 3813              	.LBE12:
1610:TOOL/cJSON.c  ****     }
 3814              		.loc 1 1610 16 view .LVU1159
 3815 014e 0023     		movs	r3, #0
 3816              	.LVL399:
 3817              	.L284:
1713:TOOL/cJSON.c  **** 
 3818              		.loc 1 1713 1 view .LVU1160
 3819 0150 1846     		mov	r0, r3
 3820 0152 70BD     		pop	{r4, r5, r6, pc}
 3821              	.LVL400:
 3822              	.L303:
1618:TOOL/cJSON.c  ****     }
 3823              		.loc 1 1618 16 view .LVU1161
 3824 0154 0023     		movs	r3, #0
 3825 0156 FBE7     		b	.L284
 3826              	.LVL401:
 3827              	.L304:
 3828              	.LBB13:
1637:TOOL/cJSON.c  ****             }
 3829              		.loc 1 1637 24 view .LVU1162
 3830 0158 0023     		movs	r3, #0
 3831 015a F9E7     		b	.L284
 3832              	.LVL402:
 3833              	.L306:
1637:TOOL/cJSON.c  ****             }
 3834              		.loc 1 1637 24 view .LVU1163
 3835              	.LBE13:
1657:TOOL/cJSON.c  ****         }
 3836              		.loc 1 1657 20 view .LVU1164
 3837 015c 0023     		movs	r3, #0
 3838 015e F7E7     		b	.L284
 3839              	.L307:
1678:TOOL/cJSON.c  ****         }
 3840              		.loc 1 1678 20 view .LVU1165
 3841 0160 0023     		movs	r3, #0
 3842 0162 F5E7     		b	.L284
 3843              	.LVL403:
ARM GAS  /var/folders/ww/n4ctlbrs3x70633t9y2ks63c0000gn/T//ccTX1xk7.s 			page 116


 3844              	.L310:
1698:TOOL/cJSON.c  ****     }
 3845              		.loc 1 1698 16 view .LVU1166
 3846 0164 0023     		movs	r3, #0
 3847 0166 F3E7     		b	.L284
 3848              		.cfi_endproc
 3849              	.LFE103:
 3851              		.section	.text.get_object_item,"ax",%progbits
 3852              		.align	1
 3853              		.syntax unified
 3854              		.thumb
 3855              		.thumb_func
 3856              		.fpu softvfp
 3858              	get_object_item:
 3859              	.LVL404:
 3860              	.LFB107:
1769:TOOL/cJSON.c  ****     cJSON *current_element = NULL;
 3861              		.loc 1 1769 1 is_stmt 1 view -0
 3862              		.cfi_startproc
 3863              		@ args = 0, pretend = 0, frame = 0
 3864              		@ frame_needed = 0, uses_anonymous_args = 0
1769:TOOL/cJSON.c  ****     cJSON *current_element = NULL;
 3865              		.loc 1 1769 1 is_stmt 0 view .LVU1168
 3866 0000 38B5     		push	{r3, r4, r5, lr}
 3867              	.LCFI39:
 3868              		.cfi_def_cfa_offset 16
 3869              		.cfi_offset 3, -16
 3870              		.cfi_offset 4, -12
 3871              		.cfi_offset 5, -8
 3872              		.cfi_offset 14, -4
1770:TOOL/cJSON.c  **** 
 3873              		.loc 1 1770 5 is_stmt 1 view .LVU1169
 3874              	.LVL405:
1772:TOOL/cJSON.c  ****     {
 3875              		.loc 1 1772 5 view .LVU1170
1772:TOOL/cJSON.c  ****     {
 3876              		.loc 1 1772 8 is_stmt 0 view .LVU1171
 3877 0002 0446     		mov	r4, r0
 3878 0004 60B1     		cbz	r0, .L316
1772:TOOL/cJSON.c  ****     {
 3879              		.loc 1 1772 26 discriminator 1 view .LVU1172
 3880 0006 B9B1     		cbz	r1, .L323
 3881 0008 0D46     		mov	r5, r1
1777:TOOL/cJSON.c  ****     if (case_sensitive)
 3882              		.loc 1 1777 5 is_stmt 1 view .LVU1173
1777:TOOL/cJSON.c  ****     if (case_sensitive)
 3883              		.loc 1 1777 21 is_stmt 0 view .LVU1174
 3884 000a 8468     		ldr	r4, [r0, #8]
 3885              	.LVL406:
1778:TOOL/cJSON.c  ****     {
 3886              		.loc 1 1778 5 is_stmt 1 view .LVU1175
1778:TOOL/cJSON.c  ****     {
 3887              		.loc 1 1778 8 is_stmt 0 view .LVU1176
 3888 000c 0AB9     		cbnz	r2, .L318
 3889 000e 0AE0     		b	.L319
 3890              	.LVL407:
 3891              	.L320:
ARM GAS  /var/folders/ww/n4ctlbrs3x70633t9y2ks63c0000gn/T//ccTX1xk7.s 			page 117


1782:TOOL/cJSON.c  ****         }
 3892              		.loc 1 1782 13 is_stmt 1 view .LVU1177
1782:TOOL/cJSON.c  ****         }
 3893              		.loc 1 1782 29 is_stmt 0 view .LVU1178
 3894 0010 2468     		ldr	r4, [r4]
 3895              	.LVL408:
 3896              	.L318:
1780:TOOL/cJSON.c  ****         {
 3897              		.loc 1 1780 15 view .LVU1179
 3898 0012 2CB1     		cbz	r4, .L316
1780:TOOL/cJSON.c  ****         {
 3899              		.loc 1 1780 46 discriminator 1 view .LVU1180
 3900 0014 216A     		ldr	r1, [r4, #32]
 3901 0016 2846     		mov	r0, r5
 3902 0018 FFF7FEFF 		bl	strcmp
 3903              	.LVL409:
1780:TOOL/cJSON.c  ****         {
 3904              		.loc 1 1780 42 discriminator 1 view .LVU1181
 3905 001c 0028     		cmp	r0, #0
 3906 001e F7D1     		bne	.L320
 3907              	.LVL410:
 3908              	.L316:
1794:TOOL/cJSON.c  **** 
 3909              		.loc 1 1794 1 view .LVU1182
 3910 0020 2046     		mov	r0, r4
 3911 0022 38BD     		pop	{r3, r4, r5, pc}
 3912              	.LVL411:
 3913              	.L321:
1789:TOOL/cJSON.c  ****         }
 3914              		.loc 1 1789 13 is_stmt 1 view .LVU1183
1789:TOOL/cJSON.c  ****         }
 3915              		.loc 1 1789 29 is_stmt 0 view .LVU1184
 3916 0024 2468     		ldr	r4, [r4]
 3917              	.LVL412:
 3918              	.L319:
1787:TOOL/cJSON.c  ****         {
 3919              		.loc 1 1787 15 view .LVU1185
 3920 0026 002C     		cmp	r4, #0
 3921 0028 FAD0     		beq	.L316
1787:TOOL/cJSON.c  ****         {
 3922              		.loc 1 1787 46 discriminator 1 view .LVU1186
 3923 002a 216A     		ldr	r1, [r4, #32]
 3924 002c 2846     		mov	r0, r5
 3925 002e FFF7FEFF 		bl	case_insensitive_strcmp
 3926              	.LVL413:
1787:TOOL/cJSON.c  ****         {
 3927              		.loc 1 1787 42 discriminator 1 view .LVU1187
 3928 0032 0028     		cmp	r0, #0
 3929 0034 F6D1     		bne	.L321
 3930 0036 F3E7     		b	.L316
 3931              	.LVL414:
 3932              	.L323:
1774:TOOL/cJSON.c  ****     }
 3933              		.loc 1 1774 16 view .LVU1188
 3934 0038 0C46     		mov	r4, r1
 3935 003a F1E7     		b	.L316
 3936              		.cfi_endproc
ARM GAS  /var/folders/ww/n4ctlbrs3x70633t9y2ks63c0000gn/T//ccTX1xk7.s 			page 118


 3937              	.LFE107:
 3939              		.section	.text.cJSON_GetErrorPtr,"ax",%progbits
 3940              		.align	1
 3941              		.global	cJSON_GetErrorPtr
 3942              		.syntax unified
 3943              		.thumb
 3944              		.thumb_func
 3945              		.fpu softvfp
 3947              	cJSON_GetErrorPtr:
 3948              	.LFB68:
  73:TOOL/cJSON.c  ****     return (const char*) (global_error.json + global_error.position);
 3949              		.loc 1 73 1 is_stmt 1 view -0
 3950              		.cfi_startproc
 3951              		@ args = 0, pretend = 0, frame = 0
 3952              		@ frame_needed = 0, uses_anonymous_args = 0
 3953              		@ link register save eliminated.
  74:TOOL/cJSON.c  **** }
 3954              		.loc 1 74 5 view .LVU1190
  74:TOOL/cJSON.c  **** }
 3955              		.loc 1 74 39 is_stmt 0 view .LVU1191
 3956 0000 024B     		ldr	r3, .L326
 3957 0002 1868     		ldr	r0, [r3]
  74:TOOL/cJSON.c  **** }
 3958              		.loc 1 74 59 view .LVU1192
 3959 0004 5B68     		ldr	r3, [r3, #4]
  75:TOOL/cJSON.c  **** 
 3960              		.loc 1 75 1 view .LVU1193
 3961 0006 1844     		add	r0, r0, r3
 3962 0008 7047     		bx	lr
 3963              	.L327:
 3964 000a 00BF     		.align	2
 3965              	.L326:
 3966 000c 00000000 		.word	.LANCHOR0
 3967              		.cfi_endproc
 3968              	.LFE68:
 3970              		.section	.text.cJSON_Version,"ax",%progbits
 3971              		.align	1
 3972              		.global	cJSON_Version
 3973              		.syntax unified
 3974              		.thumb
 3975              		.thumb_func
 3976              		.fpu softvfp
 3978              	cJSON_Version:
 3979              	.LFB69:
  83:TOOL/cJSON.c  ****     static char version[15];
 3980              		.loc 1 83 1 is_stmt 1 view -0
 3981              		.cfi_startproc
 3982              		@ args = 0, pretend = 0, frame = 0
 3983              		@ frame_needed = 0, uses_anonymous_args = 0
 3984 0000 10B5     		push	{r4, lr}
 3985              	.LCFI40:
 3986              		.cfi_def_cfa_offset 8
 3987              		.cfi_offset 4, -8
 3988              		.cfi_offset 14, -4
 3989 0002 82B0     		sub	sp, sp, #8
 3990              	.LCFI41:
 3991              		.cfi_def_cfa_offset 16
ARM GAS  /var/folders/ww/n4ctlbrs3x70633t9y2ks63c0000gn/T//ccTX1xk7.s 			page 119


  84:TOOL/cJSON.c  ****     sprintf(version, "%i.%i.%i", CJSON_VERSION_MAJOR, CJSON_VERSION_MINOR, CJSON_VERSION_PATCH);
 3992              		.loc 1 84 5 view .LVU1195
  85:TOOL/cJSON.c  **** 
 3993              		.loc 1 85 5 view .LVU1196
 3994 0004 054C     		ldr	r4, .L330
 3995 0006 0023     		movs	r3, #0
 3996 0008 0093     		str	r3, [sp]
 3997 000a 0623     		movs	r3, #6
 3998 000c 0122     		movs	r2, #1
 3999 000e 0449     		ldr	r1, .L330+4
 4000 0010 2046     		mov	r0, r4
 4001 0012 FFF7FEFF 		bl	sprintf
 4002              	.LVL415:
  87:TOOL/cJSON.c  **** }
 4003              		.loc 1 87 5 view .LVU1197
  88:TOOL/cJSON.c  **** 
 4004              		.loc 1 88 1 is_stmt 0 view .LVU1198
 4005 0016 2046     		mov	r0, r4
 4006 0018 02B0     		add	sp, sp, #8
 4007              	.LCFI42:
 4008              		.cfi_def_cfa_offset 8
 4009              		@ sp needed
 4010 001a 10BD     		pop	{r4, pc}
 4011              	.L331:
 4012              		.align	2
 4013              	.L330:
 4014 001c 00000000 		.word	.LANCHOR1
 4015 0020 00000000 		.word	.LC9
 4016              		.cfi_endproc
 4017              	.LFE69:
 4019              		.section	.text.cJSON_InitHooks,"ax",%progbits
 4020              		.align	1
 4021              		.global	cJSON_InitHooks
 4022              		.syntax unified
 4023              		.thumb
 4024              		.thumb_func
 4025              		.fpu softvfp
 4027              	cJSON_InitHooks:
 4028              	.LVL416:
 4029              	.LFB75:
 165:TOOL/cJSON.c  ****     if (hooks == NULL)
 4030              		.loc 1 165 1 is_stmt 1 view -0
 4031              		.cfi_startproc
 4032              		@ args = 0, pretend = 0, frame = 0
 4033              		@ frame_needed = 0, uses_anonymous_args = 0
 4034              		@ link register save eliminated.
 166:TOOL/cJSON.c  ****     {
 4035              		.loc 1 166 5 view .LVU1200
 166:TOOL/cJSON.c  ****     {
 4036              		.loc 1 166 8 is_stmt 0 view .LVU1201
 4037 0000 0346     		mov	r3, r0
 4038 0002 A0B1     		cbz	r0, .L337
 175:TOOL/cJSON.c  ****     if (hooks->malloc_fn != NULL)
 4039              		.loc 1 175 5 is_stmt 1 view .LVU1202
 175:TOOL/cJSON.c  ****     if (hooks->malloc_fn != NULL)
 4040              		.loc 1 175 27 is_stmt 0 view .LVU1203
 4041 0004 124A     		ldr	r2, .L339
ARM GAS  /var/folders/ww/n4ctlbrs3x70633t9y2ks63c0000gn/T//ccTX1xk7.s 			page 120


 4042 0006 1349     		ldr	r1, .L339+4
 4043 0008 1160     		str	r1, [r2]
 176:TOOL/cJSON.c  ****     {
 4044              		.loc 1 176 5 is_stmt 1 view .LVU1204
 176:TOOL/cJSON.c  ****     {
 4045              		.loc 1 176 14 is_stmt 0 view .LVU1205
 4046 000a 0268     		ldr	r2, [r0]
 176:TOOL/cJSON.c  ****     {
 4047              		.loc 1 176 8 view .LVU1206
 4048 000c 0AB1     		cbz	r2, .L335
 178:TOOL/cJSON.c  ****     }
 4049              		.loc 1 178 9 is_stmt 1 view .LVU1207
 178:TOOL/cJSON.c  ****     }
 4050              		.loc 1 178 31 is_stmt 0 view .LVU1208
 4051 000e 1049     		ldr	r1, .L339
 4052 0010 0A60     		str	r2, [r1]
 4053              	.L335:
 181:TOOL/cJSON.c  ****     if (hooks->free_fn != NULL)
 4054              		.loc 1 181 5 is_stmt 1 view .LVU1209
 181:TOOL/cJSON.c  ****     if (hooks->free_fn != NULL)
 4055              		.loc 1 181 29 is_stmt 0 view .LVU1210
 4056 0012 0F4A     		ldr	r2, .L339
 4057 0014 1049     		ldr	r1, .L339+8
 4058 0016 5160     		str	r1, [r2, #4]
 182:TOOL/cJSON.c  ****     {
 4059              		.loc 1 182 5 is_stmt 1 view .LVU1211
 182:TOOL/cJSON.c  ****     {
 4060              		.loc 1 182 14 is_stmt 0 view .LVU1212
 4061 0018 5B68     		ldr	r3, [r3, #4]
 182:TOOL/cJSON.c  ****     {
 4062              		.loc 1 182 8 view .LVU1213
 4063 001a 03B1     		cbz	r3, .L336
 184:TOOL/cJSON.c  ****     }
 4064              		.loc 1 184 9 is_stmt 1 view .LVU1214
 184:TOOL/cJSON.c  ****     }
 4065              		.loc 1 184 33 is_stmt 0 view .LVU1215
 4066 001c 5360     		str	r3, [r2, #4]
 4067              	.L336:
 188:TOOL/cJSON.c  ****     if ((global_hooks.allocate == malloc) && (global_hooks.deallocate == free))
 4068              		.loc 1 188 5 is_stmt 1 view .LVU1216
 188:TOOL/cJSON.c  ****     if ((global_hooks.allocate == malloc) && (global_hooks.deallocate == free))
 4069              		.loc 1 188 29 is_stmt 0 view .LVU1217
 4070 001e 0C4B     		ldr	r3, .L339
 4071 0020 0022     		movs	r2, #0
 4072 0022 9A60     		str	r2, [r3, #8]
 189:TOOL/cJSON.c  ****     {
 4073              		.loc 1 189 5 is_stmt 1 view .LVU1218
 189:TOOL/cJSON.c  ****     {
 4074              		.loc 1 189 22 is_stmt 0 view .LVU1219
 4075 0024 1A68     		ldr	r2, [r3]
 189:TOOL/cJSON.c  ****     {
 4076              		.loc 1 189 8 view .LVU1220
 4077 0026 0B4B     		ldr	r3, .L339+4
 4078 0028 9A42     		cmp	r2, r3
 4079 002a 08D0     		beq	.L338
 4080              	.L332:
 193:TOOL/cJSON.c  **** 
ARM GAS  /var/folders/ww/n4ctlbrs3x70633t9y2ks63c0000gn/T//ccTX1xk7.s 			page 121


 4081              		.loc 1 193 1 view .LVU1221
 4082 002c 7047     		bx	lr
 4083              	.L337:
 169:TOOL/cJSON.c  ****         global_hooks.deallocate = free;
 4084              		.loc 1 169 9 is_stmt 1 view .LVU1222
 169:TOOL/cJSON.c  ****         global_hooks.deallocate = free;
 4085              		.loc 1 169 31 is_stmt 0 view .LVU1223
 4086 002e 084B     		ldr	r3, .L339
 4087 0030 084A     		ldr	r2, .L339+4
 4088 0032 1A60     		str	r2, [r3]
 170:TOOL/cJSON.c  ****         global_hooks.reallocate = realloc;
 4089              		.loc 1 170 9 is_stmt 1 view .LVU1224
 170:TOOL/cJSON.c  ****         global_hooks.reallocate = realloc;
 4090              		.loc 1 170 33 is_stmt 0 view .LVU1225
 4091 0034 084A     		ldr	r2, .L339+8
 4092 0036 5A60     		str	r2, [r3, #4]
 171:TOOL/cJSON.c  ****         return;
 4093              		.loc 1 171 9 is_stmt 1 view .LVU1226
 171:TOOL/cJSON.c  ****         return;
 4094              		.loc 1 171 33 is_stmt 0 view .LVU1227
 4095 0038 084A     		ldr	r2, .L339+12
 4096 003a 9A60     		str	r2, [r3, #8]
 172:TOOL/cJSON.c  ****     }
 4097              		.loc 1 172 9 is_stmt 1 view .LVU1228
 4098 003c 7047     		bx	lr
 4099              	.L338:
 189:TOOL/cJSON.c  ****     {
 4100              		.loc 1 189 59 is_stmt 0 discriminator 1 view .LVU1229
 4101 003e 044B     		ldr	r3, .L339
 4102 0040 5A68     		ldr	r2, [r3, #4]
 189:TOOL/cJSON.c  ****     {
 4103              		.loc 1 189 43 discriminator 1 view .LVU1230
 4104 0042 054B     		ldr	r3, .L339+8
 4105 0044 9A42     		cmp	r2, r3
 4106 0046 F1D1     		bne	.L332
 191:TOOL/cJSON.c  ****     }
 4107              		.loc 1 191 9 is_stmt 1 view .LVU1231
 191:TOOL/cJSON.c  ****     }
 4108              		.loc 1 191 33 is_stmt 0 view .LVU1232
 4109 0048 014B     		ldr	r3, .L339
 4110 004a 044A     		ldr	r2, .L339+12
 4111 004c 9A60     		str	r2, [r3, #8]
 4112 004e EDE7     		b	.L332
 4113              	.L340:
 4114              		.align	2
 4115              	.L339:
 4116 0050 00000000 		.word	.LANCHOR2
 4117 0054 00000000 		.word	malloc
 4118 0058 00000000 		.word	free
 4119 005c 00000000 		.word	realloc
 4120              		.cfi_endproc
 4121              	.LFE75:
 4123              		.section	.text.cJSON_Delete,"ax",%progbits
 4124              		.align	1
 4125              		.global	cJSON_Delete
 4126              		.syntax unified
 4127              		.thumb
ARM GAS  /var/folders/ww/n4ctlbrs3x70633t9y2ks63c0000gn/T//ccTX1xk7.s 			page 122


 4128              		.thumb_func
 4129              		.fpu softvfp
 4131              	cJSON_Delete:
 4132              	.LVL417:
 4133              	.LFB77:
 209:TOOL/cJSON.c  ****     cJSON *next = NULL;
 4134              		.loc 1 209 1 is_stmt 1 view -0
 4135              		.cfi_startproc
 4136              		@ args = 0, pretend = 0, frame = 0
 4137              		@ frame_needed = 0, uses_anonymous_args = 0
 209:TOOL/cJSON.c  ****     cJSON *next = NULL;
 4138              		.loc 1 209 1 is_stmt 0 view .LVU1234
 4139 0000 38B5     		push	{r3, r4, r5, lr}
 4140              	.LCFI43:
 4141              		.cfi_def_cfa_offset 16
 4142              		.cfi_offset 3, -16
 4143              		.cfi_offset 4, -12
 4144              		.cfi_offset 5, -8
 4145              		.cfi_offset 14, -4
 4146 0002 0446     		mov	r4, r0
 210:TOOL/cJSON.c  ****     while (item != NULL)
 4147              		.loc 1 210 5 is_stmt 1 view .LVU1235
 4148              	.LVL418:
 211:TOOL/cJSON.c  ****     {
 4149              		.loc 1 211 5 view .LVU1236
 211:TOOL/cJSON.c  ****     {
 4150              		.loc 1 211 11 is_stmt 0 view .LVU1237
 4151 0004 16E0     		b	.L342
 4152              	.LVL419:
 4153              	.L343:
 218:TOOL/cJSON.c  ****         {
 4154              		.loc 1 218 9 is_stmt 1 view .LVU1238
 218:TOOL/cJSON.c  ****         {
 4155              		.loc 1 218 19 is_stmt 0 view .LVU1239
 4156 0006 E368     		ldr	r3, [r4, #12]
 218:TOOL/cJSON.c  ****         {
 4157              		.loc 1 218 12 view .LVU1240
 4158 0008 13F4807F 		tst	r3, #256
 4159 000c 04D1     		bne	.L344
 218:TOOL/cJSON.c  ****         {
 4160              		.loc 1 218 55 discriminator 1 view .LVU1241
 4161 000e 2069     		ldr	r0, [r4, #16]
 218:TOOL/cJSON.c  ****         {
 4162              		.loc 1 218 47 discriminator 1 view .LVU1242
 4163 0010 10B1     		cbz	r0, .L344
 220:TOOL/cJSON.c  ****         }
 4164              		.loc 1 220 13 is_stmt 1 view .LVU1243
 220:TOOL/cJSON.c  ****         }
 4165              		.loc 1 220 25 is_stmt 0 view .LVU1244
 4166 0012 0F4B     		ldr	r3, .L349
 4167 0014 5B68     		ldr	r3, [r3, #4]
 220:TOOL/cJSON.c  ****         }
 4168              		.loc 1 220 13 view .LVU1245
 4169 0016 9847     		blx	r3
 4170              	.LVL420:
 4171              	.L344:
 222:TOOL/cJSON.c  ****         {
ARM GAS  /var/folders/ww/n4ctlbrs3x70633t9y2ks63c0000gn/T//ccTX1xk7.s 			page 123


 4172              		.loc 1 222 9 is_stmt 1 view .LVU1246
 222:TOOL/cJSON.c  ****         {
 4173              		.loc 1 222 19 is_stmt 0 view .LVU1247
 4174 0018 E368     		ldr	r3, [r4, #12]
 222:TOOL/cJSON.c  ****         {
 4175              		.loc 1 222 12 view .LVU1248
 4176 001a 13F4007F 		tst	r3, #512
 4177 001e 04D1     		bne	.L345
 222:TOOL/cJSON.c  ****         {
 4178              		.loc 1 222 57 discriminator 1 view .LVU1249
 4179 0020 206A     		ldr	r0, [r4, #32]
 222:TOOL/cJSON.c  ****         {
 4180              		.loc 1 222 49 discriminator 1 view .LVU1250
 4181 0022 10B1     		cbz	r0, .L345
 224:TOOL/cJSON.c  ****         }
 4182              		.loc 1 224 13 is_stmt 1 view .LVU1251
 224:TOOL/cJSON.c  ****         }
 4183              		.loc 1 224 25 is_stmt 0 view .LVU1252
 4184 0024 0A4B     		ldr	r3, .L349
 4185 0026 5B68     		ldr	r3, [r3, #4]
 224:TOOL/cJSON.c  ****         }
 4186              		.loc 1 224 13 view .LVU1253
 4187 0028 9847     		blx	r3
 4188              	.LVL421:
 4189              	.L345:
 226:TOOL/cJSON.c  ****         item = next;
 4190              		.loc 1 226 9 is_stmt 1 view .LVU1254
 226:TOOL/cJSON.c  ****         item = next;
 4191              		.loc 1 226 21 is_stmt 0 view .LVU1255
 4192 002a 094B     		ldr	r3, .L349
 4193 002c 5B68     		ldr	r3, [r3, #4]
 226:TOOL/cJSON.c  ****         item = next;
 4194              		.loc 1 226 9 view .LVU1256
 4195 002e 2046     		mov	r0, r4
 4196 0030 9847     		blx	r3
 4197              	.LVL422:
 227:TOOL/cJSON.c  ****     }
 4198              		.loc 1 227 9 is_stmt 1 view .LVU1257
 227:TOOL/cJSON.c  ****     }
 4199              		.loc 1 227 14 is_stmt 0 view .LVU1258
 4200 0032 2C46     		mov	r4, r5
 4201              	.LVL423:
 4202              	.L342:
 211:TOOL/cJSON.c  ****     {
 4203              		.loc 1 211 11 view .LVU1259
 4204 0034 54B1     		cbz	r4, .L348
 213:TOOL/cJSON.c  ****         if (!(item->type & cJSON_IsReference) && (item->child != NULL))
 4205              		.loc 1 213 9 is_stmt 1 view .LVU1260
 213:TOOL/cJSON.c  ****         if (!(item->type & cJSON_IsReference) && (item->child != NULL))
 4206              		.loc 1 213 14 is_stmt 0 view .LVU1261
 4207 0036 2568     		ldr	r5, [r4]
 4208              	.LVL424:
 214:TOOL/cJSON.c  ****         {
 4209              		.loc 1 214 9 is_stmt 1 view .LVU1262
 214:TOOL/cJSON.c  ****         {
 4210              		.loc 1 214 19 is_stmt 0 view .LVU1263
 4211 0038 E368     		ldr	r3, [r4, #12]
ARM GAS  /var/folders/ww/n4ctlbrs3x70633t9y2ks63c0000gn/T//ccTX1xk7.s 			page 124


 214:TOOL/cJSON.c  ****         {
 4212              		.loc 1 214 12 view .LVU1264
 4213 003a 13F4807F 		tst	r3, #256
 4214 003e E2D1     		bne	.L343
 214:TOOL/cJSON.c  ****         {
 4215              		.loc 1 214 55 discriminator 1 view .LVU1265
 4216 0040 A068     		ldr	r0, [r4, #8]
 214:TOOL/cJSON.c  ****         {
 4217              		.loc 1 214 47 discriminator 1 view .LVU1266
 4218 0042 0028     		cmp	r0, #0
 4219 0044 DFD0     		beq	.L343
 216:TOOL/cJSON.c  ****         }
 4220              		.loc 1 216 13 is_stmt 1 view .LVU1267
 4221 0046 FFF7FEFF 		bl	cJSON_Delete
 4222              	.LVL425:
 4223 004a DCE7     		b	.L343
 4224              	.LVL426:
 4225              	.L348:
 229:TOOL/cJSON.c  **** 
 4226              		.loc 1 229 1 is_stmt 0 view .LVU1268
 4227 004c 38BD     		pop	{r3, r4, r5, pc}
 4228              	.LVL427:
 4229              	.L350:
 229:TOOL/cJSON.c  **** 
 4230              		.loc 1 229 1 view .LVU1269
 4231 004e 00BF     		.align	2
 4232              	.L349:
 4233 0050 00000000 		.word	.LANCHOR2
 4234              		.cfi_endproc
 4235              	.LFE77:
 4237              		.section	.text.parse_object,"ax",%progbits
 4238              		.align	1
 4239              		.syntax unified
 4240              		.thumb
 4241              		.thumb_func
 4242              		.fpu softvfp
 4244              	parse_object:
 4245              	.LVL428:
 4246              	.LFB102:
1494:TOOL/cJSON.c  ****     cJSON *head = NULL; /* linked list head */
 4247              		.loc 1 1494 1 is_stmt 1 view -0
 4248              		.cfi_startproc
 4249              		@ args = 0, pretend = 0, frame = 0
 4250              		@ frame_needed = 0, uses_anonymous_args = 0
1495:TOOL/cJSON.c  ****     cJSON *current_item = NULL;
 4251              		.loc 1 1495 5 view .LVU1271
1496:TOOL/cJSON.c  **** 
 4252              		.loc 1 1496 5 view .LVU1272
1498:TOOL/cJSON.c  ****     {
 4253              		.loc 1 1498 5 view .LVU1273
1498:TOOL/cJSON.c  ****     {
 4254              		.loc 1 1498 21 is_stmt 0 view .LVU1274
 4255 0000 CB68     		ldr	r3, [r1, #12]
1498:TOOL/cJSON.c  ****     {
 4256              		.loc 1 1498 8 view .LVU1275
 4257 0002 B3F57A7F 		cmp	r3, #1000
 4258 0006 80F08880 		bcs	.L360
ARM GAS  /var/folders/ww/n4ctlbrs3x70633t9y2ks63c0000gn/T//ccTX1xk7.s 			page 125


1502:TOOL/cJSON.c  **** 
 4259              		.loc 1 1502 5 is_stmt 1 view .LVU1276
1502:TOOL/cJSON.c  **** 
 4260              		.loc 1 1502 24 is_stmt 0 view .LVU1277
 4261 000a 0133     		adds	r3, r3, #1
 4262 000c CB60     		str	r3, [r1, #12]
1504:TOOL/cJSON.c  ****     {
 4263              		.loc 1 1504 5 is_stmt 1 view .LVU1278
1504:TOOL/cJSON.c  ****     {
 4264              		.loc 1 1504 8 is_stmt 0 view .LVU1279
 4265 000e 0029     		cmp	r1, #0
 4266 0010 00F08580 		beq	.L361
1504:TOOL/cJSON.c  ****     {
 4267              		.loc 1 1504 9 discriminator 1 view .LVU1280
 4268 0014 8B68     		ldr	r3, [r1, #8]
 4269 0016 4A68     		ldr	r2, [r1, #4]
 4270 0018 9342     		cmp	r3, r2
 4271 001a 80F08280 		bcs	.L362
1504:TOOL/cJSON.c  ****     {
 4272              		.loc 1 1504 53 discriminator 2 view .LVU1281
 4273 001e 0A68     		ldr	r2, [r1]
1504:TOOL/cJSON.c  ****     {
 4274              		.loc 1 1504 83 discriminator 2 view .LVU1282
 4275 0020 D25C     		ldrb	r2, [r2, r3]	@ zero_extendqisi2
1504:TOOL/cJSON.c  ****     {
 4276              		.loc 1 1504 49 discriminator 2 view .LVU1283
 4277 0022 7B2A     		cmp	r2, #123
 4278 0024 01D0     		beq	.L371
1598:TOOL/cJSON.c  **** }
 4279              		.loc 1 1598 12 view .LVU1284
 4280 0026 0020     		movs	r0, #0
 4281              	.LVL429:
1599:TOOL/cJSON.c  **** 
 4282              		.loc 1 1599 1 view .LVU1285
 4283 0028 7047     		bx	lr
 4284              	.LVL430:
 4285              	.L371:
1494:TOOL/cJSON.c  ****     cJSON *head = NULL; /* linked list head */
 4286              		.loc 1 1494 1 view .LVU1286
 4287 002a 2DE9F041 		push	{r4, r5, r6, r7, r8, lr}
 4288              	.LCFI44:
 4289              		.cfi_def_cfa_offset 24
 4290              		.cfi_offset 4, -24
 4291              		.cfi_offset 5, -20
 4292              		.cfi_offset 6, -16
 4293              		.cfi_offset 7, -12
 4294              		.cfi_offset 8, -8
 4295              		.cfi_offset 14, -4
 4296 002e 0C46     		mov	r4, r1
 4297 0030 8046     		mov	r8, r0
1509:TOOL/cJSON.c  ****     buffer_skip_whitespace(input_buffer);
 4298              		.loc 1 1509 5 is_stmt 1 view .LVU1287
1509:TOOL/cJSON.c  ****     buffer_skip_whitespace(input_buffer);
 4299              		.loc 1 1509 25 is_stmt 0 view .LVU1288
 4300 0032 0133     		adds	r3, r3, #1
 4301 0034 8B60     		str	r3, [r1, #8]
1510:TOOL/cJSON.c  ****     if (can_access_at_index(input_buffer, 0) && (buffer_at_offset(input_buffer)[0] == '}'))
ARM GAS  /var/folders/ww/n4ctlbrs3x70633t9y2ks63c0000gn/T//ccTX1xk7.s 			page 126


 4302              		.loc 1 1510 5 is_stmt 1 view .LVU1289
 4303 0036 0846     		mov	r0, r1
 4304              	.LVL431:
1510:TOOL/cJSON.c  ****     if (can_access_at_index(input_buffer, 0) && (buffer_at_offset(input_buffer)[0] == '}'))
 4305              		.loc 1 1510 5 is_stmt 0 view .LVU1290
 4306 0038 FFF7FEFF 		bl	buffer_skip_whitespace
 4307              	.LVL432:
1511:TOOL/cJSON.c  ****     {
 4308              		.loc 1 1511 5 is_stmt 1 view .LVU1291
1511:TOOL/cJSON.c  ****     {
 4309              		.loc 1 1511 9 is_stmt 0 view .LVU1292
 4310 003c A368     		ldr	r3, [r4, #8]
 4311 003e 6268     		ldr	r2, [r4, #4]
 4312 0040 9342     		cmp	r3, r2
 4313 0042 03D2     		bcs	.L353
1511:TOOL/cJSON.c  ****     {
 4314              		.loc 1 1511 50 discriminator 2 view .LVU1293
 4315 0044 2268     		ldr	r2, [r4]
1511:TOOL/cJSON.c  ****     {
 4316              		.loc 1 1511 80 discriminator 2 view .LVU1294
 4317 0046 D35C     		ldrb	r3, [r2, r3]	@ zero_extendqisi2
1511:TOOL/cJSON.c  ****     {
 4318              		.loc 1 1511 46 discriminator 2 view .LVU1295
 4319 0048 7D2B     		cmp	r3, #125
 4320 004a 58D0     		beq	.L364
 4321              	.L353:
1517:TOOL/cJSON.c  ****     {
 4322              		.loc 1 1517 5 is_stmt 1 discriminator 1 view .LVU1296
1517:TOOL/cJSON.c  ****     {
 4323              		.loc 1 1517 9 is_stmt 0 discriminator 1 view .LVU1297
 4324 004c A368     		ldr	r3, [r4, #8]
 4325 004e 6268     		ldr	r2, [r4, #4]
 4326 0050 9342     		cmp	r3, r2
 4327 0052 04D2     		bcs	.L372
1524:TOOL/cJSON.c  ****     /* loop through the comma separated array elements */
 4328              		.loc 1 1524 5 is_stmt 1 view .LVU1298
1524:TOOL/cJSON.c  ****     /* loop through the comma separated array elements */
 4329              		.loc 1 1524 25 is_stmt 0 view .LVU1299
 4330 0054 013B     		subs	r3, r3, #1
 4331 0056 A360     		str	r3, [r4, #8]
1496:TOOL/cJSON.c  **** 
 4332              		.loc 1 1496 12 view .LVU1300
 4333 0058 0026     		movs	r6, #0
1495:TOOL/cJSON.c  ****     cJSON *current_item = NULL;
 4334              		.loc 1 1495 12 view .LVU1301
 4335 005a 3746     		mov	r7, r6
 4336 005c 36E0     		b	.L359
 4337              	.L372:
1519:TOOL/cJSON.c  ****         goto fail;
 4338              		.loc 1 1519 9 is_stmt 1 view .LVU1302
1519:TOOL/cJSON.c  ****         goto fail;
 4339              		.loc 1 1519 29 is_stmt 0 view .LVU1303
 4340 005e 013B     		subs	r3, r3, #1
 4341 0060 A360     		str	r3, [r4, #8]
1520:TOOL/cJSON.c  ****     }
 4342              		.loc 1 1520 9 is_stmt 1 view .LVU1304
1593:TOOL/cJSON.c  ****     {
ARM GAS  /var/folders/ww/n4ctlbrs3x70633t9y2ks63c0000gn/T//ccTX1xk7.s 			page 127


 4343              		.loc 1 1593 5 view .LVU1305
1598:TOOL/cJSON.c  **** }
 4344              		.loc 1 1598 12 is_stmt 0 view .LVU1306
 4345 0062 0020     		movs	r0, #0
 4346              	.LVL433:
 4347              	.L351:
1599:TOOL/cJSON.c  **** 
 4348              		.loc 1 1599 1 view .LVU1307
 4349 0064 BDE8F081 		pop	{r4, r5, r6, r7, r8, pc}
 4350              	.LVL434:
 4351              	.L365:
 4352              	.LBB14:
1539:TOOL/cJSON.c  ****         }
 4353              		.loc 1 1539 33 view .LVU1308
 4354 0068 0746     		mov	r7, r0
 4355              	.LVL435:
 4356              	.L357:
1550:TOOL/cJSON.c  ****         buffer_skip_whitespace(input_buffer);
 4357              		.loc 1 1550 9 is_stmt 1 view .LVU1309
1550:TOOL/cJSON.c  ****         buffer_skip_whitespace(input_buffer);
 4358              		.loc 1 1550 21 is_stmt 0 view .LVU1310
 4359 006a A368     		ldr	r3, [r4, #8]
1550:TOOL/cJSON.c  ****         buffer_skip_whitespace(input_buffer);
 4360              		.loc 1 1550 29 view .LVU1311
 4361 006c 0133     		adds	r3, r3, #1
 4362 006e A360     		str	r3, [r4, #8]
1551:TOOL/cJSON.c  ****         if (!parse_string(current_item, input_buffer))
 4363              		.loc 1 1551 9 is_stmt 1 view .LVU1312
 4364 0070 2046     		mov	r0, r4
 4365              	.LVL436:
1551:TOOL/cJSON.c  ****         if (!parse_string(current_item, input_buffer))
 4366              		.loc 1 1551 9 is_stmt 0 view .LVU1313
 4367 0072 FFF7FEFF 		bl	buffer_skip_whitespace
 4368              	.LVL437:
1552:TOOL/cJSON.c  ****         {
 4369              		.loc 1 1552 9 is_stmt 1 view .LVU1314
1552:TOOL/cJSON.c  ****         {
 4370              		.loc 1 1552 14 is_stmt 0 view .LVU1315
 4371 0076 2146     		mov	r1, r4
 4372 0078 2846     		mov	r0, r5
 4373 007a FFF7FEFF 		bl	parse_string
 4374              	.LVL438:
1552:TOOL/cJSON.c  ****         {
 4375              		.loc 1 1552 12 view .LVU1316
 4376 007e 0028     		cmp	r0, #0
 4377 0080 37D0     		beq	.L356
1556:TOOL/cJSON.c  **** 
 4378              		.loc 1 1556 9 is_stmt 1 view .LVU1317
 4379 0082 2046     		mov	r0, r4
 4380 0084 FFF7FEFF 		bl	buffer_skip_whitespace
 4381              	.LVL439:
1559:TOOL/cJSON.c  ****         current_item->valuestring = NULL;
 4382              		.loc 1 1559 9 view .LVU1318
1559:TOOL/cJSON.c  ****         current_item->valuestring = NULL;
 4383              		.loc 1 1559 44 is_stmt 0 view .LVU1319
 4384 0088 2B69     		ldr	r3, [r5, #16]
1559:TOOL/cJSON.c  ****         current_item->valuestring = NULL;
ARM GAS  /var/folders/ww/n4ctlbrs3x70633t9y2ks63c0000gn/T//ccTX1xk7.s 			page 128


 4385              		.loc 1 1559 30 view .LVU1320
 4386 008a 2B62     		str	r3, [r5, #32]
1560:TOOL/cJSON.c  **** 
 4387              		.loc 1 1560 9 is_stmt 1 view .LVU1321
1560:TOOL/cJSON.c  **** 
 4388              		.loc 1 1560 35 is_stmt 0 view .LVU1322
 4389 008c 0023     		movs	r3, #0
 4390 008e 2B61     		str	r3, [r5, #16]
1562:TOOL/cJSON.c  ****         {
 4391              		.loc 1 1562 9 is_stmt 1 view .LVU1323
1562:TOOL/cJSON.c  ****         {
 4392              		.loc 1 1562 13 is_stmt 0 view .LVU1324
 4393 0090 A368     		ldr	r3, [r4, #8]
 4394 0092 6268     		ldr	r2, [r4, #4]
 4395 0094 9342     		cmp	r3, r2
 4396 0096 2CD2     		bcs	.L356
1562:TOOL/cJSON.c  ****         {
 4397              		.loc 1 1562 57 discriminator 2 view .LVU1325
 4398 0098 2268     		ldr	r2, [r4]
1562:TOOL/cJSON.c  ****         {
 4399              		.loc 1 1562 87 discriminator 2 view .LVU1326
 4400 009a D25C     		ldrb	r2, [r2, r3]	@ zero_extendqisi2
1562:TOOL/cJSON.c  ****         {
 4401              		.loc 1 1562 53 discriminator 2 view .LVU1327
 4402 009c 3A2A     		cmp	r2, #58
 4403 009e 28D1     		bne	.L356
1568:TOOL/cJSON.c  ****         buffer_skip_whitespace(input_buffer);
 4404              		.loc 1 1568 9 is_stmt 1 view .LVU1328
1568:TOOL/cJSON.c  ****         buffer_skip_whitespace(input_buffer);
 4405              		.loc 1 1568 29 is_stmt 0 view .LVU1329
 4406 00a0 0133     		adds	r3, r3, #1
 4407 00a2 A360     		str	r3, [r4, #8]
1569:TOOL/cJSON.c  ****         if (!parse_value(current_item, input_buffer))
 4408              		.loc 1 1569 9 is_stmt 1 view .LVU1330
 4409 00a4 2046     		mov	r0, r4
 4410 00a6 FFF7FEFF 		bl	buffer_skip_whitespace
 4411              	.LVL440:
1570:TOOL/cJSON.c  ****         {
 4412              		.loc 1 1570 9 view .LVU1331
1570:TOOL/cJSON.c  ****         {
 4413              		.loc 1 1570 14 is_stmt 0 view .LVU1332
 4414 00aa 2146     		mov	r1, r4
 4415 00ac 2846     		mov	r0, r5
 4416 00ae FFF7FEFF 		bl	parse_value
 4417              	.LVL441:
1570:TOOL/cJSON.c  ****         {
 4418              		.loc 1 1570 12 view .LVU1333
 4419 00b2 F0B1     		cbz	r0, .L356
1574:TOOL/cJSON.c  ****     }
 4420              		.loc 1 1574 9 is_stmt 1 view .LVU1334
 4421 00b4 2046     		mov	r0, r4
 4422 00b6 FFF7FEFF 		bl	buffer_skip_whitespace
 4423              	.LVL442:
 4424              	.LBE14:
1576:TOOL/cJSON.c  **** 
 4425              		.loc 1 1576 12 is_stmt 0 view .LVU1335
 4426 00ba A368     		ldr	r3, [r4, #8]
ARM GAS  /var/folders/ww/n4ctlbrs3x70633t9y2ks63c0000gn/T//ccTX1xk7.s 			page 129


 4427 00bc 6268     		ldr	r2, [r4, #4]
 4428 00be 9342     		cmp	r3, r2
 4429 00c0 0FD2     		bcs	.L358
1576:TOOL/cJSON.c  **** 
 4430              		.loc 1 1576 53 discriminator 2 view .LVU1336
 4431 00c2 2268     		ldr	r2, [r4]
1576:TOOL/cJSON.c  **** 
 4432              		.loc 1 1576 83 discriminator 2 view .LVU1337
 4433 00c4 D35C     		ldrb	r3, [r2, r3]	@ zero_extendqisi2
 4434 00c6 2E46     		mov	r6, r5
1576:TOOL/cJSON.c  **** 
 4435              		.loc 1 1576 49 discriminator 2 view .LVU1338
 4436 00c8 2C2B     		cmp	r3, #44
 4437 00ca 0AD1     		bne	.L358
 4438              	.LVL443:
 4439              	.L359:
1526:TOOL/cJSON.c  ****     {
 4440              		.loc 1 1526 5 is_stmt 1 view .LVU1339
 4441              	.LBB15:
1529:TOOL/cJSON.c  ****         if (new_item == NULL)
 4442              		.loc 1 1529 9 view .LVU1340
1529:TOOL/cJSON.c  ****         if (new_item == NULL)
 4443              		.loc 1 1529 27 is_stmt 0 view .LVU1341
 4444 00cc 04F11000 		add	r0, r4, #16
 4445 00d0 FFF7FEFF 		bl	cJSON_New_Item
 4446              	.LVL444:
1530:TOOL/cJSON.c  ****         {
 4447              		.loc 1 1530 9 is_stmt 1 view .LVU1342
1530:TOOL/cJSON.c  ****         {
 4448              		.loc 1 1530 12 is_stmt 0 view .LVU1343
 4449 00d4 0546     		mov	r5, r0
 4450 00d6 60B1     		cbz	r0, .L356
1536:TOOL/cJSON.c  ****         {
 4451              		.loc 1 1536 9 is_stmt 1 view .LVU1344
1536:TOOL/cJSON.c  ****         {
 4452              		.loc 1 1536 12 is_stmt 0 view .LVU1345
 4453 00d8 002F     		cmp	r7, #0
 4454 00da C5D0     		beq	.L365
1544:TOOL/cJSON.c  ****             new_item->prev = current_item;
 4455              		.loc 1 1544 13 is_stmt 1 view .LVU1346
1544:TOOL/cJSON.c  ****             new_item->prev = current_item;
 4456              		.loc 1 1544 32 is_stmt 0 view .LVU1347
 4457 00dc 3060     		str	r0, [r6]
1545:TOOL/cJSON.c  ****             current_item = new_item;
 4458              		.loc 1 1545 13 is_stmt 1 view .LVU1348
1545:TOOL/cJSON.c  ****             current_item = new_item;
 4459              		.loc 1 1545 28 is_stmt 0 view .LVU1349
 4460 00de 4660     		str	r6, [r0, #4]
1546:TOOL/cJSON.c  ****         }
 4461              		.loc 1 1546 13 is_stmt 1 view .LVU1350
 4462              	.LVL445:
1546:TOOL/cJSON.c  ****         }
 4463              		.loc 1 1546 13 is_stmt 0 view .LVU1351
 4464 00e0 C3E7     		b	.L357
 4465              	.LVL446:
 4466              	.L358:
1546:TOOL/cJSON.c  ****         }
ARM GAS  /var/folders/ww/n4ctlbrs3x70633t9y2ks63c0000gn/T//ccTX1xk7.s 			page 130


 4467              		.loc 1 1546 13 view .LVU1352
 4468              	.LBE15:
1578:TOOL/cJSON.c  ****     {
 4469              		.loc 1 1578 5 is_stmt 1 discriminator 1 view .LVU1353
1578:TOOL/cJSON.c  ****     {
 4470              		.loc 1 1578 9 is_stmt 0 discriminator 1 view .LVU1354
 4471 00e2 A368     		ldr	r3, [r4, #8]
 4472 00e4 6268     		ldr	r2, [r4, #4]
 4473 00e6 9342     		cmp	r3, r2
 4474 00e8 03D2     		bcs	.L356
1578:TOOL/cJSON.c  ****     {
 4475              		.loc 1 1578 53 discriminator 2 view .LVU1355
 4476 00ea 2268     		ldr	r2, [r4]
1578:TOOL/cJSON.c  ****     {
 4477              		.loc 1 1578 83 discriminator 2 view .LVU1356
 4478 00ec D35C     		ldrb	r3, [r2, r3]	@ zero_extendqisi2
1578:TOOL/cJSON.c  ****     {
 4479              		.loc 1 1578 49 discriminator 2 view .LVU1357
 4480 00ee 7D2B     		cmp	r3, #125
 4481 00f0 06D0     		beq	.L354
 4482              	.LVL447:
 4483              	.L356:
1593:TOOL/cJSON.c  ****     {
 4484              		.loc 1 1593 5 is_stmt 1 view .LVU1358
1593:TOOL/cJSON.c  ****     {
 4485              		.loc 1 1593 8 is_stmt 0 view .LVU1359
 4486 00f2 C7B1     		cbz	r7, .L366
1595:TOOL/cJSON.c  ****     }
 4487              		.loc 1 1595 9 is_stmt 1 view .LVU1360
 4488 00f4 3846     		mov	r0, r7
 4489 00f6 FFF7FEFF 		bl	cJSON_Delete
 4490              	.LVL448:
1598:TOOL/cJSON.c  **** }
 4491              		.loc 1 1598 12 is_stmt 0 view .LVU1361
 4492 00fa 0020     		movs	r0, #0
 4493 00fc B2E7     		b	.L351
 4494              	.LVL449:
 4495              	.L364:
1495:TOOL/cJSON.c  ****     cJSON *current_item = NULL;
 4496              		.loc 1 1495 12 view .LVU1362
 4497 00fe 0027     		movs	r7, #0
 4498              	.LVL450:
 4499              	.L354:
1584:TOOL/cJSON.c  **** 
 4500              		.loc 1 1584 5 is_stmt 1 view .LVU1363
1584:TOOL/cJSON.c  **** 
 4501              		.loc 1 1584 17 is_stmt 0 view .LVU1364
 4502 0100 E368     		ldr	r3, [r4, #12]
1584:TOOL/cJSON.c  **** 
 4503              		.loc 1 1584 24 view .LVU1365
 4504 0102 013B     		subs	r3, r3, #1
 4505 0104 E360     		str	r3, [r4, #12]
1586:TOOL/cJSON.c  ****     item->child = head;
 4506              		.loc 1 1586 5 is_stmt 1 view .LVU1366
1586:TOOL/cJSON.c  ****     item->child = head;
 4507              		.loc 1 1586 16 is_stmt 0 view .LVU1367
 4508 0106 4023     		movs	r3, #64
ARM GAS  /var/folders/ww/n4ctlbrs3x70633t9y2ks63c0000gn/T//ccTX1xk7.s 			page 131


 4509 0108 C8F80C30 		str	r3, [r8, #12]
1587:TOOL/cJSON.c  **** 
 4510              		.loc 1 1587 5 is_stmt 1 view .LVU1368
1587:TOOL/cJSON.c  **** 
 4511              		.loc 1 1587 17 is_stmt 0 view .LVU1369
 4512 010c C8F80870 		str	r7, [r8, #8]
1589:TOOL/cJSON.c  ****     return true;
 4513              		.loc 1 1589 5 is_stmt 1 view .LVU1370
1589:TOOL/cJSON.c  ****     return true;
 4514              		.loc 1 1589 17 is_stmt 0 view .LVU1371
 4515 0110 A368     		ldr	r3, [r4, #8]
1589:TOOL/cJSON.c  ****     return true;
 4516              		.loc 1 1589 25 view .LVU1372
 4517 0112 0133     		adds	r3, r3, #1
 4518 0114 A360     		str	r3, [r4, #8]
1590:TOOL/cJSON.c  **** 
 4519              		.loc 1 1590 5 is_stmt 1 view .LVU1373
1590:TOOL/cJSON.c  **** 
 4520              		.loc 1 1590 12 is_stmt 0 view .LVU1374
 4521 0116 0120     		movs	r0, #1
 4522 0118 A4E7     		b	.L351
 4523              	.LVL451:
 4524              	.L360:
 4525              	.LCFI45:
 4526              		.cfi_def_cfa_offset 0
 4527              		.cfi_restore 4
 4528              		.cfi_restore 5
 4529              		.cfi_restore 6
 4530              		.cfi_restore 7
 4531              		.cfi_restore 8
 4532              		.cfi_restore 14
1500:TOOL/cJSON.c  ****     }
 4533              		.loc 1 1500 16 view .LVU1375
 4534 011a 0020     		movs	r0, #0
 4535              	.LVL452:
1500:TOOL/cJSON.c  ****     }
 4536              		.loc 1 1500 16 view .LVU1376
 4537 011c 7047     		bx	lr
 4538              	.LVL453:
 4539              	.L361:
1598:TOOL/cJSON.c  **** }
 4540              		.loc 1 1598 12 view .LVU1377
 4541 011e 0020     		movs	r0, #0
 4542              	.LVL454:
1598:TOOL/cJSON.c  **** }
 4543              		.loc 1 1598 12 view .LVU1378
 4544 0120 7047     		bx	lr
 4545              	.LVL455:
 4546              	.L362:
1598:TOOL/cJSON.c  **** }
 4547              		.loc 1 1598 12 view .LVU1379
 4548 0122 0020     		movs	r0, #0
 4549              	.LVL456:
1598:TOOL/cJSON.c  **** }
 4550              		.loc 1 1598 12 view .LVU1380
 4551 0124 7047     		bx	lr
 4552              	.LVL457:
ARM GAS  /var/folders/ww/n4ctlbrs3x70633t9y2ks63c0000gn/T//ccTX1xk7.s 			page 132


 4553              	.L366:
 4554              	.LCFI46:
 4555              		.cfi_def_cfa_offset 24
 4556              		.cfi_offset 4, -24
 4557              		.cfi_offset 5, -20
 4558              		.cfi_offset 6, -16
 4559              		.cfi_offset 7, -12
 4560              		.cfi_offset 8, -8
 4561              		.cfi_offset 14, -4
1598:TOOL/cJSON.c  **** }
 4562              		.loc 1 1598 12 view .LVU1381
 4563 0126 0020     		movs	r0, #0
 4564 0128 9CE7     		b	.L351
 4565              		.cfi_endproc
 4566              	.LFE102:
 4568              		.section	.text.parse_value,"ax",%progbits
 4569              		.align	1
 4570              		.syntax unified
 4571              		.thumb
 4572              		.thumb_func
 4573              		.fpu softvfp
 4575              	parse_value:
 4576              	.LVL458:
 4577              	.LFB98:
1205:TOOL/cJSON.c  ****     if ((input_buffer == NULL) || (input_buffer->content == NULL))
 4578              		.loc 1 1205 1 is_stmt 1 view -0
 4579              		.cfi_startproc
 4580              		@ args = 0, pretend = 0, frame = 0
 4581              		@ frame_needed = 0, uses_anonymous_args = 0
1206:TOOL/cJSON.c  ****     {
 4582              		.loc 1 1206 5 view .LVU1383
1206:TOOL/cJSON.c  ****     {
 4583              		.loc 1 1206 8 is_stmt 0 view .LVU1384
 4584 0000 0029     		cmp	r1, #0
 4585 0002 74D0     		beq	.L382
1205:TOOL/cJSON.c  ****     if ((input_buffer == NULL) || (input_buffer->content == NULL))
 4586              		.loc 1 1205 1 discriminator 1 view .LVU1385
 4587 0004 70B5     		push	{r4, r5, r6, lr}
 4588              	.LCFI47:
 4589              		.cfi_def_cfa_offset 16
 4590              		.cfi_offset 4, -16
 4591              		.cfi_offset 5, -12
 4592              		.cfi_offset 6, -8
 4593              		.cfi_offset 14, -4
 4594 0006 0C46     		mov	r4, r1
1206:TOOL/cJSON.c  ****     {
 4595              		.loc 1 1206 48 discriminator 1 view .LVU1386
 4596 0008 0D68     		ldr	r5, [r1]
1206:TOOL/cJSON.c  ****     {
 4597              		.loc 1 1206 32 discriminator 1 view .LVU1387
 4598 000a 002D     		cmp	r5, #0
 4599 000c 71D0     		beq	.L383
 4600 000e 0646     		mov	r6, r0
1213:TOOL/cJSON.c  ****     {
 4601              		.loc 1 1213 5 is_stmt 1 discriminator 1 view .LVU1388
1213:TOOL/cJSON.c  ****     {
 4602              		.loc 1 1213 9 is_stmt 0 discriminator 1 view .LVU1389
ARM GAS  /var/folders/ww/n4ctlbrs3x70633t9y2ks63c0000gn/T//ccTX1xk7.s 			page 133


 4603 0010 8868     		ldr	r0, [r1, #8]
 4604              	.LVL459:
1213:TOOL/cJSON.c  ****     {
 4605              		.loc 1 1213 9 discriminator 1 view .LVU1390
 4606 0012 011D     		adds	r1, r0, #4
 4607              	.LVL460:
1213:TOOL/cJSON.c  ****     {
 4608              		.loc 1 1213 9 discriminator 1 view .LVU1391
 4609 0014 6268     		ldr	r2, [r4, #4]
 4610 0016 9142     		cmp	r1, r2
 4611 0018 06D8     		bhi	.L375
1213:TOOL/cJSON.c  ****     {
 4612              		.loc 1 1213 39 discriminator 2 view .LVU1392
 4613 001a 0422     		movs	r2, #4
 4614 001c 3749     		ldr	r1, .L396
 4615 001e 2844     		add	r0, r0, r5
 4616 0020 FFF7FEFF 		bl	strncmp
 4617              	.LVL461:
1213:TOOL/cJSON.c  ****     {
 4618              		.loc 1 1213 35 discriminator 2 view .LVU1393
 4619 0024 0028     		cmp	r0, #0
 4620 0026 39D0     		beq	.L390
 4621              	.L375:
1220:TOOL/cJSON.c  ****     {
 4622              		.loc 1 1220 5 is_stmt 1 discriminator 1 view .LVU1394
1220:TOOL/cJSON.c  ****     {
 4623              		.loc 1 1220 9 is_stmt 0 discriminator 1 view .LVU1395
 4624 0028 A068     		ldr	r0, [r4, #8]
 4625 002a 421D     		adds	r2, r0, #5
 4626 002c 6368     		ldr	r3, [r4, #4]
 4627 002e 9A42     		cmp	r2, r3
 4628 0030 06D8     		bhi	.L376
1220:TOOL/cJSON.c  ****     {
 4629              		.loc 1 1220 39 discriminator 2 view .LVU1396
 4630 0032 0522     		movs	r2, #5
 4631 0034 3249     		ldr	r1, .L396+4
 4632 0036 2844     		add	r0, r0, r5
 4633 0038 FFF7FEFF 		bl	strncmp
 4634              	.LVL462:
1220:TOOL/cJSON.c  ****     {
 4635              		.loc 1 1220 35 discriminator 2 view .LVU1397
 4636 003c 0028     		cmp	r0, #0
 4637 003e 34D0     		beq	.L391
 4638              	.L376:
1227:TOOL/cJSON.c  ****     {
 4639              		.loc 1 1227 5 is_stmt 1 discriminator 1 view .LVU1398
1227:TOOL/cJSON.c  ****     {
 4640              		.loc 1 1227 9 is_stmt 0 discriminator 1 view .LVU1399
 4641 0040 A068     		ldr	r0, [r4, #8]
 4642 0042 021D     		adds	r2, r0, #4
 4643 0044 6368     		ldr	r3, [r4, #4]
 4644 0046 9A42     		cmp	r2, r3
 4645 0048 06D8     		bhi	.L377
1227:TOOL/cJSON.c  ****     {
 4646              		.loc 1 1227 39 discriminator 2 view .LVU1400
 4647 004a 0422     		movs	r2, #4
 4648 004c 2D49     		ldr	r1, .L396+8
ARM GAS  /var/folders/ww/n4ctlbrs3x70633t9y2ks63c0000gn/T//ccTX1xk7.s 			page 134


 4649 004e 2844     		add	r0, r0, r5
 4650 0050 FFF7FEFF 		bl	strncmp
 4651              	.LVL463:
1227:TOOL/cJSON.c  ****     {
 4652              		.loc 1 1227 35 discriminator 2 view .LVU1401
 4653 0054 0028     		cmp	r0, #0
 4654 0056 2ED0     		beq	.L392
 4655              	.L377:
1235:TOOL/cJSON.c  ****     {
 4656              		.loc 1 1235 5 is_stmt 1 discriminator 1 view .LVU1402
1235:TOOL/cJSON.c  ****     {
 4657              		.loc 1 1235 9 is_stmt 0 discriminator 1 view .LVU1403
 4658 0058 A368     		ldr	r3, [r4, #8]
 4659 005a 6268     		ldr	r2, [r4, #4]
 4660 005c 9342     		cmp	r3, r2
 4661 005e 02D2     		bcs	.L378
1235:TOOL/cJSON.c  ****     {
 4662              		.loc 1 1235 80 discriminator 2 view .LVU1404
 4663 0060 EB5C     		ldrb	r3, [r5, r3]	@ zero_extendqisi2
1235:TOOL/cJSON.c  ****     {
 4664              		.loc 1 1235 46 discriminator 2 view .LVU1405
 4665 0062 222B     		cmp	r3, #34
 4666 0064 2FD0     		beq	.L393
 4667              	.L378:
1240:TOOL/cJSON.c  ****     {
 4668              		.loc 1 1240 5 is_stmt 1 discriminator 1 view .LVU1406
1240:TOOL/cJSON.c  ****     {
 4669              		.loc 1 1240 9 is_stmt 0 discriminator 1 view .LVU1407
 4670 0066 A368     		ldr	r3, [r4, #8]
 4671 0068 6268     		ldr	r2, [r4, #4]
 4672 006a 9342     		cmp	r3, r2
 4673 006c 06D2     		bcs	.L379
1240:TOOL/cJSON.c  ****     {
 4674              		.loc 1 1240 81 discriminator 2 view .LVU1408
 4675 006e EB5C     		ldrb	r3, [r5, r3]	@ zero_extendqisi2
1240:TOOL/cJSON.c  ****     {
 4676              		.loc 1 1240 46 discriminator 2 view .LVU1409
 4677 0070 2D2B     		cmp	r3, #45
 4678 0072 2DD0     		beq	.L380
1240:TOOL/cJSON.c  ****     {
 4679              		.loc 1 1240 140 discriminator 3 view .LVU1410
 4680 0074 303B     		subs	r3, r3, #48
 4681 0076 DBB2     		uxtb	r3, r3
1240:TOOL/cJSON.c  ****     {
 4682              		.loc 1 1240 93 discriminator 3 view .LVU1411
 4683 0078 092B     		cmp	r3, #9
 4684 007a 29D9     		bls	.L380
 4685              	.L379:
1245:TOOL/cJSON.c  ****     {
 4686              		.loc 1 1245 5 is_stmt 1 discriminator 1 view .LVU1412
1245:TOOL/cJSON.c  ****     {
 4687              		.loc 1 1245 9 is_stmt 0 discriminator 1 view .LVU1413
 4688 007c A368     		ldr	r3, [r4, #8]
 4689 007e 6268     		ldr	r2, [r4, #4]
 4690 0080 9342     		cmp	r3, r2
 4691 0082 02D2     		bcs	.L381
1245:TOOL/cJSON.c  ****     {
ARM GAS  /var/folders/ww/n4ctlbrs3x70633t9y2ks63c0000gn/T//ccTX1xk7.s 			page 135


 4692              		.loc 1 1245 80 discriminator 2 view .LVU1414
 4693 0084 EB5C     		ldrb	r3, [r5, r3]	@ zero_extendqisi2
1245:TOOL/cJSON.c  ****     {
 4694              		.loc 1 1245 46 discriminator 2 view .LVU1415
 4695 0086 5B2B     		cmp	r3, #91
 4696 0088 27D0     		beq	.L394
 4697              	.L381:
1250:TOOL/cJSON.c  ****     {
 4698              		.loc 1 1250 5 is_stmt 1 discriminator 1 view .LVU1416
1250:TOOL/cJSON.c  ****     {
 4699              		.loc 1 1250 9 is_stmt 0 discriminator 1 view .LVU1417
 4700 008a A368     		ldr	r3, [r4, #8]
 4701 008c 6268     		ldr	r2, [r4, #4]
 4702 008e 9342     		cmp	r3, r2
 4703 0090 31D2     		bcs	.L384
1250:TOOL/cJSON.c  ****     {
 4704              		.loc 1 1250 80 discriminator 2 view .LVU1418
 4705 0092 EB5C     		ldrb	r3, [r5, r3]	@ zero_extendqisi2
1250:TOOL/cJSON.c  ****     {
 4706              		.loc 1 1250 46 discriminator 2 view .LVU1419
 4707 0094 7B2B     		cmp	r3, #123
 4708 0096 25D0     		beq	.L395
1255:TOOL/cJSON.c  **** }
 4709              		.loc 1 1255 12 view .LVU1420
 4710 0098 0020     		movs	r0, #0
 4711 009a 2BE0     		b	.L373
 4712              	.L390:
1215:TOOL/cJSON.c  ****         input_buffer->offset += 4;
 4713              		.loc 1 1215 9 is_stmt 1 view .LVU1421
1215:TOOL/cJSON.c  ****         input_buffer->offset += 4;
 4714              		.loc 1 1215 20 is_stmt 0 view .LVU1422
 4715 009c 0423     		movs	r3, #4
 4716 009e F360     		str	r3, [r6, #12]
1216:TOOL/cJSON.c  ****         return true;
 4717              		.loc 1 1216 9 is_stmt 1 view .LVU1423
1216:TOOL/cJSON.c  ****         return true;
 4718              		.loc 1 1216 30 is_stmt 0 view .LVU1424
 4719 00a0 A368     		ldr	r3, [r4, #8]
 4720 00a2 0433     		adds	r3, r3, #4
 4721 00a4 A360     		str	r3, [r4, #8]
1217:TOOL/cJSON.c  ****     }
 4722              		.loc 1 1217 9 is_stmt 1 view .LVU1425
1217:TOOL/cJSON.c  ****     }
 4723              		.loc 1 1217 16 is_stmt 0 view .LVU1426
 4724 00a6 0120     		movs	r0, #1
 4725 00a8 24E0     		b	.L373
 4726              	.L391:
1222:TOOL/cJSON.c  ****         input_buffer->offset += 5;
 4727              		.loc 1 1222 9 is_stmt 1 view .LVU1427
1222:TOOL/cJSON.c  ****         input_buffer->offset += 5;
 4728              		.loc 1 1222 20 is_stmt 0 view .LVU1428
 4729 00aa 0120     		movs	r0, #1
 4730 00ac F060     		str	r0, [r6, #12]
1223:TOOL/cJSON.c  ****         return true;
 4731              		.loc 1 1223 9 is_stmt 1 view .LVU1429
1223:TOOL/cJSON.c  ****         return true;
 4732              		.loc 1 1223 30 is_stmt 0 view .LVU1430
ARM GAS  /var/folders/ww/n4ctlbrs3x70633t9y2ks63c0000gn/T//ccTX1xk7.s 			page 136


 4733 00ae A268     		ldr	r2, [r4, #8]
 4734 00b0 0532     		adds	r2, r2, #5
 4735 00b2 A260     		str	r2, [r4, #8]
1224:TOOL/cJSON.c  ****     }
 4736              		.loc 1 1224 9 is_stmt 1 view .LVU1431
1224:TOOL/cJSON.c  ****     }
 4737              		.loc 1 1224 16 is_stmt 0 view .LVU1432
 4738 00b4 1EE0     		b	.L373
 4739              	.L392:
1229:TOOL/cJSON.c  ****         item->valueint = 1;
 4740              		.loc 1 1229 9 is_stmt 1 view .LVU1433
1229:TOOL/cJSON.c  ****         item->valueint = 1;
 4741              		.loc 1 1229 20 is_stmt 0 view .LVU1434
 4742 00b6 0223     		movs	r3, #2
 4743 00b8 F360     		str	r3, [r6, #12]
1230:TOOL/cJSON.c  ****         input_buffer->offset += 4;
 4744              		.loc 1 1230 9 is_stmt 1 view .LVU1435
1230:TOOL/cJSON.c  ****         input_buffer->offset += 4;
 4745              		.loc 1 1230 24 is_stmt 0 view .LVU1436
 4746 00ba 0120     		movs	r0, #1
 4747 00bc 7061     		str	r0, [r6, #20]
1231:TOOL/cJSON.c  ****         return true;
 4748              		.loc 1 1231 9 is_stmt 1 view .LVU1437
1231:TOOL/cJSON.c  ****         return true;
 4749              		.loc 1 1231 30 is_stmt 0 view .LVU1438
 4750 00be A268     		ldr	r2, [r4, #8]
 4751 00c0 0432     		adds	r2, r2, #4
 4752 00c2 A260     		str	r2, [r4, #8]
1232:TOOL/cJSON.c  ****     }
 4753              		.loc 1 1232 9 is_stmt 1 view .LVU1439
1232:TOOL/cJSON.c  ****     }
 4754              		.loc 1 1232 16 is_stmt 0 view .LVU1440
 4755 00c4 16E0     		b	.L373
 4756              	.L393:
1237:TOOL/cJSON.c  ****     }
 4757              		.loc 1 1237 9 is_stmt 1 view .LVU1441
1237:TOOL/cJSON.c  ****     }
 4758              		.loc 1 1237 16 is_stmt 0 view .LVU1442
 4759 00c6 2146     		mov	r1, r4
 4760 00c8 3046     		mov	r0, r6
 4761 00ca FFF7FEFF 		bl	parse_string
 4762              	.LVL464:
 4763 00ce 11E0     		b	.L373
 4764              	.L380:
1242:TOOL/cJSON.c  ****     }
 4765              		.loc 1 1242 9 is_stmt 1 view .LVU1443
1242:TOOL/cJSON.c  ****     }
 4766              		.loc 1 1242 16 is_stmt 0 view .LVU1444
 4767 00d0 2146     		mov	r1, r4
 4768 00d2 3046     		mov	r0, r6
 4769 00d4 FFF7FEFF 		bl	parse_number
 4770              	.LVL465:
 4771 00d8 0CE0     		b	.L373
 4772              	.L394:
1247:TOOL/cJSON.c  ****     }
 4773              		.loc 1 1247 9 is_stmt 1 view .LVU1445
1247:TOOL/cJSON.c  ****     }
ARM GAS  /var/folders/ww/n4ctlbrs3x70633t9y2ks63c0000gn/T//ccTX1xk7.s 			page 137


 4774              		.loc 1 1247 16 is_stmt 0 view .LVU1446
 4775 00da 2146     		mov	r1, r4
 4776 00dc 3046     		mov	r0, r6
 4777 00de FFF7FEFF 		bl	parse_array
 4778              	.LVL466:
 4779 00e2 07E0     		b	.L373
 4780              	.L395:
1252:TOOL/cJSON.c  ****     }
 4781              		.loc 1 1252 9 is_stmt 1 view .LVU1447
1252:TOOL/cJSON.c  ****     }
 4782              		.loc 1 1252 16 is_stmt 0 view .LVU1448
 4783 00e4 2146     		mov	r1, r4
 4784 00e6 3046     		mov	r0, r6
 4785 00e8 FFF7FEFF 		bl	parse_object
 4786              	.LVL467:
 4787 00ec 02E0     		b	.L373
 4788              	.LVL468:
 4789              	.L382:
 4790              	.LCFI48:
 4791              		.cfi_def_cfa_offset 0
 4792              		.cfi_restore 4
 4793              		.cfi_restore 5
 4794              		.cfi_restore 6
 4795              		.cfi_restore 14
1208:TOOL/cJSON.c  ****     }
 4796              		.loc 1 1208 16 view .LVU1449
 4797 00ee 0020     		movs	r0, #0
 4798              	.LVL469:
1256:TOOL/cJSON.c  **** 
 4799              		.loc 1 1256 1 view .LVU1450
 4800 00f0 7047     		bx	lr
 4801              	.LVL470:
 4802              	.L383:
 4803              	.LCFI49:
 4804              		.cfi_def_cfa_offset 16
 4805              		.cfi_offset 4, -16
 4806              		.cfi_offset 5, -12
 4807              		.cfi_offset 6, -8
 4808              		.cfi_offset 14, -4
1208:TOOL/cJSON.c  ****     }
 4809              		.loc 1 1208 16 view .LVU1451
 4810 00f2 0020     		movs	r0, #0
 4811              	.LVL471:
 4812              	.L373:
1256:TOOL/cJSON.c  **** 
 4813              		.loc 1 1256 1 view .LVU1452
 4814 00f4 70BD     		pop	{r4, r5, r6, pc}
 4815              	.LVL472:
 4816              	.L384:
1255:TOOL/cJSON.c  **** }
 4817              		.loc 1 1255 12 view .LVU1453
 4818 00f6 0020     		movs	r0, #0
 4819 00f8 FCE7     		b	.L373
 4820              	.L397:
 4821 00fa 00BF     		.align	2
 4822              	.L396:
 4823 00fc 00000000 		.word	.LC3
ARM GAS  /var/folders/ww/n4ctlbrs3x70633t9y2ks63c0000gn/T//ccTX1xk7.s 			page 138


 4824 0100 00000000 		.word	.LC7
 4825 0104 08000000 		.word	.LC8
 4826              		.cfi_endproc
 4827              	.LFE98:
 4829              		.section	.text.parse_array,"ax",%progbits
 4830              		.align	1
 4831              		.syntax unified
 4832              		.thumb
 4833              		.thumb_func
 4834              		.fpu softvfp
 4836              	parse_array:
 4837              	.LVL473:
 4838              	.LFB100:
1338:TOOL/cJSON.c  ****     cJSON *head = NULL; /* head of the linked list */
 4839              		.loc 1 1338 1 is_stmt 1 view -0
 4840              		.cfi_startproc
 4841              		@ args = 0, pretend = 0, frame = 0
 4842              		@ frame_needed = 0, uses_anonymous_args = 0
1339:TOOL/cJSON.c  ****     cJSON *current_item = NULL;
 4843              		.loc 1 1339 5 view .LVU1455
1340:TOOL/cJSON.c  **** 
 4844              		.loc 1 1340 5 view .LVU1456
1342:TOOL/cJSON.c  ****     {
 4845              		.loc 1 1342 5 view .LVU1457
1342:TOOL/cJSON.c  ****     {
 4846              		.loc 1 1342 21 is_stmt 0 view .LVU1458
 4847 0000 CB68     		ldr	r3, [r1, #12]
1342:TOOL/cJSON.c  ****     {
 4848              		.loc 1 1342 8 view .LVU1459
 4849 0002 B3F57A7F 		cmp	r3, #1000
 4850 0006 6AD2     		bcs	.L408
1346:TOOL/cJSON.c  **** 
 4851              		.loc 1 1346 5 is_stmt 1 view .LVU1460
1346:TOOL/cJSON.c  **** 
 4852              		.loc 1 1346 24 is_stmt 0 view .LVU1461
 4853 0008 0133     		adds	r3, r3, #1
 4854 000a CB60     		str	r3, [r1, #12]
1348:TOOL/cJSON.c  ****     {
 4855              		.loc 1 1348 5 is_stmt 1 view .LVU1462
1348:TOOL/cJSON.c  ****     {
 4856              		.loc 1 1348 9 is_stmt 0 view .LVU1463
 4857 000c 0A68     		ldr	r2, [r1]
 4858 000e 8B68     		ldr	r3, [r1, #8]
1348:TOOL/cJSON.c  ****     {
 4859              		.loc 1 1348 39 view .LVU1464
 4860 0010 D25C     		ldrb	r2, [r2, r3]	@ zero_extendqisi2
1348:TOOL/cJSON.c  ****     {
 4861              		.loc 1 1348 8 view .LVU1465
 4862 0012 5B2A     		cmp	r2, #91
 4863 0014 01D0     		beq	.L417
1427:TOOL/cJSON.c  **** }
 4864              		.loc 1 1427 12 view .LVU1466
 4865 0016 0020     		movs	r0, #0
 4866              	.LVL474:
1428:TOOL/cJSON.c  **** 
 4867              		.loc 1 1428 1 view .LVU1467
 4868 0018 7047     		bx	lr
ARM GAS  /var/folders/ww/n4ctlbrs3x70633t9y2ks63c0000gn/T//ccTX1xk7.s 			page 139


 4869              	.LVL475:
 4870              	.L417:
1338:TOOL/cJSON.c  ****     cJSON *head = NULL; /* head of the linked list */
 4871              		.loc 1 1338 1 view .LVU1468
 4872 001a 2DE9F041 		push	{r4, r5, r6, r7, r8, lr}
 4873              	.LCFI50:
 4874              		.cfi_def_cfa_offset 24
 4875              		.cfi_offset 4, -24
 4876              		.cfi_offset 5, -20
 4877              		.cfi_offset 6, -16
 4878              		.cfi_offset 7, -12
 4879              		.cfi_offset 8, -8
 4880              		.cfi_offset 14, -4
 4881 001e 0C46     		mov	r4, r1
 4882 0020 8046     		mov	r8, r0
1354:TOOL/cJSON.c  ****     buffer_skip_whitespace(input_buffer);
 4883              		.loc 1 1354 5 is_stmt 1 view .LVU1469
1354:TOOL/cJSON.c  ****     buffer_skip_whitespace(input_buffer);
 4884              		.loc 1 1354 25 is_stmt 0 view .LVU1470
 4885 0022 0133     		adds	r3, r3, #1
 4886 0024 8B60     		str	r3, [r1, #8]
1355:TOOL/cJSON.c  ****     if (can_access_at_index(input_buffer, 0) && (buffer_at_offset(input_buffer)[0] == ']'))
 4887              		.loc 1 1355 5 is_stmt 1 view .LVU1471
 4888 0026 0846     		mov	r0, r1
 4889              	.LVL476:
1355:TOOL/cJSON.c  ****     if (can_access_at_index(input_buffer, 0) && (buffer_at_offset(input_buffer)[0] == ']'))
 4890              		.loc 1 1355 5 is_stmt 0 view .LVU1472
 4891 0028 FFF7FEFF 		bl	buffer_skip_whitespace
 4892              	.LVL477:
1356:TOOL/cJSON.c  ****     {
 4893              		.loc 1 1356 5 is_stmt 1 view .LVU1473
1356:TOOL/cJSON.c  ****     {
 4894              		.loc 1 1356 8 is_stmt 0 view .LVU1474
 4895 002c 3CB1     		cbz	r4, .L400
1356:TOOL/cJSON.c  ****     {
 4896              		.loc 1 1356 9 discriminator 1 view .LVU1475
 4897 002e A368     		ldr	r3, [r4, #8]
 4898 0030 6268     		ldr	r2, [r4, #4]
 4899 0032 9342     		cmp	r3, r2
 4900 0034 03D2     		bcs	.L400
1356:TOOL/cJSON.c  ****     {
 4901              		.loc 1 1356 50 discriminator 2 view .LVU1476
 4902 0036 2268     		ldr	r2, [r4]
1356:TOOL/cJSON.c  ****     {
 4903              		.loc 1 1356 80 discriminator 2 view .LVU1477
 4904 0038 D35C     		ldrb	r3, [r2, r3]	@ zero_extendqisi2
1356:TOOL/cJSON.c  ****     {
 4905              		.loc 1 1356 46 discriminator 2 view .LVU1478
 4906 003a 5D2B     		cmp	r3, #93
 4907 003c 47D0     		beq	.L410
 4908              	.L400:
1363:TOOL/cJSON.c  ****     {
 4909              		.loc 1 1363 5 is_stmt 1 view .LVU1479
1363:TOOL/cJSON.c  ****     {
 4910              		.loc 1 1363 8 is_stmt 0 view .LVU1480
 4911 003e 44B1     		cbz	r4, .L402
1363:TOOL/cJSON.c  ****     {
ARM GAS  /var/folders/ww/n4ctlbrs3x70633t9y2ks63c0000gn/T//ccTX1xk7.s 			page 140


 4912              		.loc 1 1363 9 discriminator 1 view .LVU1481
 4913 0040 A368     		ldr	r3, [r4, #8]
 4914 0042 6268     		ldr	r2, [r4, #4]
 4915 0044 9342     		cmp	r3, r2
 4916 0046 04D2     		bcs	.L402
1370:TOOL/cJSON.c  ****     /* loop through the comma separated array elements */
 4917              		.loc 1 1370 5 is_stmt 1 view .LVU1482
1370:TOOL/cJSON.c  ****     /* loop through the comma separated array elements */
 4918              		.loc 1 1370 25 is_stmt 0 view .LVU1483
 4919 0048 013B     		subs	r3, r3, #1
 4920 004a A360     		str	r3, [r4, #8]
1340:TOOL/cJSON.c  **** 
 4921              		.loc 1 1340 12 view .LVU1484
 4922 004c 0026     		movs	r6, #0
1339:TOOL/cJSON.c  ****     cJSON *current_item = NULL;
 4923              		.loc 1 1339 12 view .LVU1485
 4924 004e 3746     		mov	r7, r6
 4925 0050 1DE0     		b	.L407
 4926              	.L402:
1365:TOOL/cJSON.c  ****         goto fail;
 4927              		.loc 1 1365 9 is_stmt 1 view .LVU1486
1365:TOOL/cJSON.c  ****         goto fail;
 4928              		.loc 1 1365 21 is_stmt 0 view .LVU1487
 4929 0052 A368     		ldr	r3, [r4, #8]
1365:TOOL/cJSON.c  ****         goto fail;
 4930              		.loc 1 1365 29 view .LVU1488
 4931 0054 013B     		subs	r3, r3, #1
 4932 0056 A360     		str	r3, [r4, #8]
1366:TOOL/cJSON.c  ****     }
 4933              		.loc 1 1366 9 is_stmt 1 view .LVU1489
1422:TOOL/cJSON.c  ****     {
 4934              		.loc 1 1422 5 view .LVU1490
1427:TOOL/cJSON.c  **** }
 4935              		.loc 1 1427 12 is_stmt 0 view .LVU1491
 4936 0058 0020     		movs	r0, #0
 4937              	.LVL478:
 4938              	.L398:
1428:TOOL/cJSON.c  **** 
 4939              		.loc 1 1428 1 view .LVU1492
 4940 005a BDE8F081 		pop	{r4, r5, r6, r7, r8, pc}
 4941              	.LVL479:
 4942              	.L411:
 4943              	.LBB16:
1385:TOOL/cJSON.c  ****         }
 4944              		.loc 1 1385 33 view .LVU1493
 4945 005e 0746     		mov	r7, r0
 4946              	.LVL480:
 4947              	.L405:
1396:TOOL/cJSON.c  ****         buffer_skip_whitespace(input_buffer);
 4948              		.loc 1 1396 9 is_stmt 1 view .LVU1494
1396:TOOL/cJSON.c  ****         buffer_skip_whitespace(input_buffer);
 4949              		.loc 1 1396 21 is_stmt 0 view .LVU1495
 4950 0060 A368     		ldr	r3, [r4, #8]
1396:TOOL/cJSON.c  ****         buffer_skip_whitespace(input_buffer);
 4951              		.loc 1 1396 29 view .LVU1496
 4952 0062 0133     		adds	r3, r3, #1
 4953 0064 A360     		str	r3, [r4, #8]
ARM GAS  /var/folders/ww/n4ctlbrs3x70633t9y2ks63c0000gn/T//ccTX1xk7.s 			page 141


1397:TOOL/cJSON.c  ****         if (!parse_value(current_item, input_buffer))
 4954              		.loc 1 1397 9 is_stmt 1 view .LVU1497
 4955 0066 2046     		mov	r0, r4
 4956              	.LVL481:
1397:TOOL/cJSON.c  ****         if (!parse_value(current_item, input_buffer))
 4957              		.loc 1 1397 9 is_stmt 0 view .LVU1498
 4958 0068 FFF7FEFF 		bl	buffer_skip_whitespace
 4959              	.LVL482:
1398:TOOL/cJSON.c  ****         {
 4960              		.loc 1 1398 9 is_stmt 1 view .LVU1499
1398:TOOL/cJSON.c  ****         {
 4961              		.loc 1 1398 14 is_stmt 0 view .LVU1500
 4962 006c 2146     		mov	r1, r4
 4963 006e 2846     		mov	r0, r5
 4964 0070 FFF7FEFF 		bl	parse_value
 4965              	.LVL483:
1398:TOOL/cJSON.c  ****         {
 4966              		.loc 1 1398 12 view .LVU1501
 4967 0074 68B3     		cbz	r0, .L404
1402:TOOL/cJSON.c  ****     }
 4968              		.loc 1 1402 9 is_stmt 1 view .LVU1502
 4969 0076 2046     		mov	r0, r4
 4970 0078 FFF7FEFF 		bl	buffer_skip_whitespace
 4971              	.LVL484:
 4972              	.LBE16:
1404:TOOL/cJSON.c  **** 
 4973              		.loc 1 1404 12 is_stmt 0 view .LVU1503
 4974 007c A368     		ldr	r3, [r4, #8]
 4975 007e 6268     		ldr	r2, [r4, #4]
 4976 0080 9342     		cmp	r3, r2
 4977 0082 0FD2     		bcs	.L406
1404:TOOL/cJSON.c  **** 
 4978              		.loc 1 1404 53 discriminator 2 view .LVU1504
 4979 0084 2268     		ldr	r2, [r4]
1404:TOOL/cJSON.c  **** 
 4980              		.loc 1 1404 83 discriminator 2 view .LVU1505
 4981 0086 D35C     		ldrb	r3, [r2, r3]	@ zero_extendqisi2
 4982 0088 2E46     		mov	r6, r5
1404:TOOL/cJSON.c  **** 
 4983              		.loc 1 1404 49 discriminator 2 view .LVU1506
 4984 008a 2C2B     		cmp	r3, #44
 4985 008c 0AD1     		bne	.L406
 4986              	.LVL485:
 4987              	.L407:
1372:TOOL/cJSON.c  ****     {
 4988              		.loc 1 1372 5 is_stmt 1 view .LVU1507
 4989              	.LBB17:
1375:TOOL/cJSON.c  ****         if (new_item == NULL)
 4990              		.loc 1 1375 9 view .LVU1508
1375:TOOL/cJSON.c  ****         if (new_item == NULL)
 4991              		.loc 1 1375 27 is_stmt 0 view .LVU1509
 4992 008e 04F11000 		add	r0, r4, #16
 4993 0092 FFF7FEFF 		bl	cJSON_New_Item
 4994              	.LVL486:
1376:TOOL/cJSON.c  ****         {
 4995              		.loc 1 1376 9 is_stmt 1 view .LVU1510
1376:TOOL/cJSON.c  ****         {
ARM GAS  /var/folders/ww/n4ctlbrs3x70633t9y2ks63c0000gn/T//ccTX1xk7.s 			page 142


 4996              		.loc 1 1376 12 is_stmt 0 view .LVU1511
 4997 0096 0546     		mov	r5, r0
 4998 0098 D8B1     		cbz	r0, .L404
1382:TOOL/cJSON.c  ****         {
 4999              		.loc 1 1382 9 is_stmt 1 view .LVU1512
1382:TOOL/cJSON.c  ****         {
 5000              		.loc 1 1382 12 is_stmt 0 view .LVU1513
 5001 009a 002F     		cmp	r7, #0
 5002 009c DFD0     		beq	.L411
1390:TOOL/cJSON.c  ****             new_item->prev = current_item;
 5003              		.loc 1 1390 13 is_stmt 1 view .LVU1514
1390:TOOL/cJSON.c  ****             new_item->prev = current_item;
 5004              		.loc 1 1390 32 is_stmt 0 view .LVU1515
 5005 009e 3060     		str	r0, [r6]
1391:TOOL/cJSON.c  ****             current_item = new_item;
 5006              		.loc 1 1391 13 is_stmt 1 view .LVU1516
1391:TOOL/cJSON.c  ****             current_item = new_item;
 5007              		.loc 1 1391 28 is_stmt 0 view .LVU1517
 5008 00a0 4660     		str	r6, [r0, #4]
1392:TOOL/cJSON.c  ****         }
 5009              		.loc 1 1392 13 is_stmt 1 view .LVU1518
 5010              	.LVL487:
1392:TOOL/cJSON.c  ****         }
 5011              		.loc 1 1392 13 is_stmt 0 view .LVU1519
 5012 00a2 DDE7     		b	.L405
 5013              	.LVL488:
 5014              	.L406:
1392:TOOL/cJSON.c  ****         }
 5015              		.loc 1 1392 13 view .LVU1520
 5016              	.LBE17:
1406:TOOL/cJSON.c  ****     {
 5017              		.loc 1 1406 5 is_stmt 1 discriminator 1 view .LVU1521
1406:TOOL/cJSON.c  ****     {
 5018              		.loc 1 1406 9 is_stmt 0 discriminator 1 view .LVU1522
 5019 00a4 A368     		ldr	r3, [r4, #8]
 5020 00a6 6268     		ldr	r2, [r4, #4]
 5021 00a8 9342     		cmp	r3, r2
 5022 00aa 12D2     		bcs	.L404
1406:TOOL/cJSON.c  ****     {
 5023              		.loc 1 1406 52 discriminator 2 view .LVU1523
 5024 00ac 2268     		ldr	r2, [r4]
1406:TOOL/cJSON.c  ****     {
 5025              		.loc 1 1406 82 discriminator 2 view .LVU1524
 5026 00ae D35C     		ldrb	r3, [r2, r3]	@ zero_extendqisi2
1406:TOOL/cJSON.c  ****     {
 5027              		.loc 1 1406 49 discriminator 2 view .LVU1525
 5028 00b0 5D2B     		cmp	r3, #93
 5029 00b2 0ED1     		bne	.L404
 5030              	.LVL489:
 5031              	.L401:
1412:TOOL/cJSON.c  **** 
 5032              		.loc 1 1412 5 is_stmt 1 view .LVU1526
1412:TOOL/cJSON.c  **** 
 5033              		.loc 1 1412 17 is_stmt 0 view .LVU1527
 5034 00b4 E368     		ldr	r3, [r4, #12]
1412:TOOL/cJSON.c  **** 
 5035              		.loc 1 1412 24 view .LVU1528
ARM GAS  /var/folders/ww/n4ctlbrs3x70633t9y2ks63c0000gn/T//ccTX1xk7.s 			page 143


 5036 00b6 013B     		subs	r3, r3, #1
 5037 00b8 E360     		str	r3, [r4, #12]
1414:TOOL/cJSON.c  ****     item->child = head;
 5038              		.loc 1 1414 5 is_stmt 1 view .LVU1529
1414:TOOL/cJSON.c  ****     item->child = head;
 5039              		.loc 1 1414 16 is_stmt 0 view .LVU1530
 5040 00ba 2023     		movs	r3, #32
 5041 00bc C8F80C30 		str	r3, [r8, #12]
1415:TOOL/cJSON.c  **** 
 5042              		.loc 1 1415 5 is_stmt 1 view .LVU1531
1415:TOOL/cJSON.c  **** 
 5043              		.loc 1 1415 17 is_stmt 0 view .LVU1532
 5044 00c0 C8F80870 		str	r7, [r8, #8]
1417:TOOL/cJSON.c  **** 
 5045              		.loc 1 1417 5 is_stmt 1 view .LVU1533
1417:TOOL/cJSON.c  **** 
 5046              		.loc 1 1417 17 is_stmt 0 view .LVU1534
 5047 00c4 A368     		ldr	r3, [r4, #8]
1417:TOOL/cJSON.c  **** 
 5048              		.loc 1 1417 25 view .LVU1535
 5049 00c6 0133     		adds	r3, r3, #1
 5050 00c8 A360     		str	r3, [r4, #8]
1419:TOOL/cJSON.c  **** 
 5051              		.loc 1 1419 5 is_stmt 1 view .LVU1536
1419:TOOL/cJSON.c  **** 
 5052              		.loc 1 1419 12 is_stmt 0 view .LVU1537
 5053 00ca 0120     		movs	r0, #1
 5054 00cc C5E7     		b	.L398
 5055              	.LVL490:
 5056              	.L410:
1339:TOOL/cJSON.c  ****     cJSON *current_item = NULL;
 5057              		.loc 1 1339 12 view .LVU1538
 5058 00ce 0027     		movs	r7, #0
 5059 00d0 F0E7     		b	.L401
 5060              	.LVL491:
 5061              	.L404:
1422:TOOL/cJSON.c  ****     {
 5062              		.loc 1 1422 5 is_stmt 1 view .LVU1539
1422:TOOL/cJSON.c  ****     {
 5063              		.loc 1 1422 8 is_stmt 0 view .LVU1540
 5064 00d2 37B1     		cbz	r7, .L412
1424:TOOL/cJSON.c  ****     }
 5065              		.loc 1 1424 9 is_stmt 1 view .LVU1541
 5066 00d4 3846     		mov	r0, r7
 5067 00d6 FFF7FEFF 		bl	cJSON_Delete
 5068              	.LVL492:
1427:TOOL/cJSON.c  **** }
 5069              		.loc 1 1427 12 is_stmt 0 view .LVU1542
 5070 00da 0020     		movs	r0, #0
 5071 00dc BDE7     		b	.L398
 5072              	.LVL493:
 5073              	.L408:
 5074              	.LCFI51:
 5075              		.cfi_def_cfa_offset 0
 5076              		.cfi_restore 4
 5077              		.cfi_restore 5
 5078              		.cfi_restore 6
ARM GAS  /var/folders/ww/n4ctlbrs3x70633t9y2ks63c0000gn/T//ccTX1xk7.s 			page 144


 5079              		.cfi_restore 7
 5080              		.cfi_restore 8
 5081              		.cfi_restore 14
1344:TOOL/cJSON.c  ****     }
 5082              		.loc 1 1344 16 view .LVU1543
 5083 00de 0020     		movs	r0, #0
 5084              	.LVL494:
1344:TOOL/cJSON.c  ****     }
 5085              		.loc 1 1344 16 view .LVU1544
 5086 00e0 7047     		bx	lr
 5087              	.LVL495:
 5088              	.L412:
 5089              	.LCFI52:
 5090              		.cfi_def_cfa_offset 24
 5091              		.cfi_offset 4, -24
 5092              		.cfi_offset 5, -20
 5093              		.cfi_offset 6, -16
 5094              		.cfi_offset 7, -12
 5095              		.cfi_offset 8, -8
 5096              		.cfi_offset 14, -4
1427:TOOL/cJSON.c  **** }
 5097              		.loc 1 1427 12 view .LVU1545
 5098 00e2 0020     		movs	r0, #0
 5099 00e4 B9E7     		b	.L398
 5100              		.cfi_endproc
 5101              	.LFE100:
 5103              		.section	.text.cJSON_SetNumberHelper,"ax",%progbits
 5104              		.align	1
 5105              		.global	cJSON_SetNumberHelper
 5106              		.syntax unified
 5107              		.thumb
 5108              		.thumb_func
 5109              		.fpu softvfp
 5111              	cJSON_SetNumberHelper:
 5112              	.LVL496:
 5113              	.LFB80:
 338:TOOL/cJSON.c  ****     if (number >= INT_MAX)
 5114              		.loc 1 338 1 is_stmt 1 view -0
 5115              		.cfi_startproc
 5116              		@ args = 0, pretend = 0, frame = 0
 5117              		@ frame_needed = 0, uses_anonymous_args = 0
 338:TOOL/cJSON.c  ****     if (number >= INT_MAX)
 5118              		.loc 1 338 1 is_stmt 0 view .LVU1547
 5119 0000 70B5     		push	{r4, r5, r6, lr}
 5120              	.LCFI53:
 5121              		.cfi_def_cfa_offset 16
 5122              		.cfi_offset 4, -16
 5123              		.cfi_offset 5, -12
 5124              		.cfi_offset 6, -8
 5125              		.cfi_offset 14, -4
 5126 0002 0646     		mov	r6, r0
 5127 0004 1446     		mov	r4, r2
 5128 0006 1D46     		mov	r5, r3
 339:TOOL/cJSON.c  ****     {
 5129              		.loc 1 339 5 is_stmt 1 view .LVU1548
 339:TOOL/cJSON.c  ****     {
 5130              		.loc 1 339 8 is_stmt 0 view .LVU1549
ARM GAS  /var/folders/ww/n4ctlbrs3x70633t9y2ks63c0000gn/T//ccTX1xk7.s 			page 145


 5131 0008 11A3     		adr	r3, .L429
 5132 000a D3E90023 		ldrd	r2, [r3]
 5133              	.LVL497:
 339:TOOL/cJSON.c  ****     {
 5134              		.loc 1 339 8 view .LVU1550
 5135 000e 2046     		mov	r0, r4
 5136              	.LVL498:
 339:TOOL/cJSON.c  ****     {
 5137              		.loc 1 339 8 view .LVU1551
 5138 0010 2946     		mov	r1, r5
 5139 0012 FFF7FEFF 		bl	__aeabi_dcmpge
 5140              	.LVL499:
 5141 0016 38B1     		cbz	r0, .L426
 341:TOOL/cJSON.c  ****     }
 5142              		.loc 1 341 9 is_stmt 1 view .LVU1552
 341:TOOL/cJSON.c  ****     }
 5143              		.loc 1 341 26 is_stmt 0 view .LVU1553
 5144 0018 6FF00043 		mvn	r3, #-2147483648
 5145 001c 7361     		str	r3, [r6, #20]
 5146              	.L421:
 352:TOOL/cJSON.c  **** }
 5147              		.loc 1 352 5 is_stmt 1 view .LVU1554
 352:TOOL/cJSON.c  **** }
 5148              		.loc 1 352 32 is_stmt 0 view .LVU1555
 5149 001e C6E90645 		strd	r4, [r6, #24]
 353:TOOL/cJSON.c  **** 
 5150              		.loc 1 353 1 view .LVU1556
 5151 0022 2046     		mov	r0, r4
 5152 0024 2946     		mov	r1, r5
 5153 0026 70BD     		pop	{r4, r5, r6, pc}
 5154              	.LVL500:
 5155              	.L426:
 343:TOOL/cJSON.c  ****     {
 5156              		.loc 1 343 10 is_stmt 1 view .LVU1557
 343:TOOL/cJSON.c  ****     {
 5157              		.loc 1 343 13 is_stmt 0 view .LVU1558
 5158 0028 0022     		movs	r2, #0
 5159 002a 0B4B     		ldr	r3, .L429+8
 5160 002c 2046     		mov	r0, r4
 5161 002e 2946     		mov	r1, r5
 5162 0030 FFF7FEFF 		bl	__aeabi_dcmple
 5163              	.LVL501:
 5164 0034 18B1     		cbz	r0, .L427
 345:TOOL/cJSON.c  ****     }
 5165              		.loc 1 345 9 is_stmt 1 view .LVU1559
 345:TOOL/cJSON.c  ****     }
 5166              		.loc 1 345 26 is_stmt 0 view .LVU1560
 5167 0036 4FF00043 		mov	r3, #-2147483648
 5168 003a 7361     		str	r3, [r6, #20]
 5169 003c EFE7     		b	.L421
 5170              	.L427:
 349:TOOL/cJSON.c  ****     }
 5171              		.loc 1 349 9 is_stmt 1 view .LVU1561
 349:TOOL/cJSON.c  ****     }
 5172              		.loc 1 349 28 is_stmt 0 view .LVU1562
 5173 003e 2046     		mov	r0, r4
 5174 0040 2946     		mov	r1, r5
ARM GAS  /var/folders/ww/n4ctlbrs3x70633t9y2ks63c0000gn/T//ccTX1xk7.s 			page 146


 5175 0042 FFF7FEFF 		bl	__aeabi_d2iz
 5176              	.LVL502:
 349:TOOL/cJSON.c  ****     }
 5177              		.loc 1 349 26 view .LVU1563
 5178 0046 7061     		str	r0, [r6, #20]
 5179 0048 E9E7     		b	.L421
 5180              	.L430:
 5181 004a 00BFAFF3 		.align	3
 5181      0080
 5182              	.L429:
 5183 0050 0000C0FF 		.word	4290772992
 5184 0054 FFFFDF41 		.word	1105199103
 5185 0058 0000E0C1 		.word	-1042284544
 5186              		.cfi_endproc
 5187              	.LFE80:
 5189              		.section	.text.cJSON_ParseWithOpts,"ax",%progbits
 5190              		.align	1
 5191              		.global	cJSON_ParseWithOpts
 5192              		.syntax unified
 5193              		.thumb
 5194              		.thumb_func
 5195              		.fpu softvfp
 5197              	cJSON_ParseWithOpts:
 5198              	.LVL503:
 5199              	.LFB91:
 995:TOOL/cJSON.c  ****     parse_buffer buffer = { 0, 0, 0, 0, { 0, 0, 0 } };
 5200              		.loc 1 995 1 is_stmt 1 view -0
 5201              		.cfi_startproc
 5202              		@ args = 0, pretend = 0, frame = 40
 5203              		@ frame_needed = 0, uses_anonymous_args = 0
 995:TOOL/cJSON.c  ****     parse_buffer buffer = { 0, 0, 0, 0, { 0, 0, 0 } };
 5204              		.loc 1 995 1 is_stmt 0 view .LVU1565
 5205 0000 F0B5     		push	{r4, r5, r6, r7, lr}
 5206              	.LCFI54:
 5207              		.cfi_def_cfa_offset 20
 5208              		.cfi_offset 4, -20
 5209              		.cfi_offset 5, -16
 5210              		.cfi_offset 6, -12
 5211              		.cfi_offset 7, -8
 5212              		.cfi_offset 14, -4
 5213 0002 8BB0     		sub	sp, sp, #44
 5214              	.LCFI55:
 5215              		.cfi_def_cfa_offset 64
 5216 0004 0E46     		mov	r6, r1
 5217 0006 1746     		mov	r7, r2
 996:TOOL/cJSON.c  ****     cJSON *item = NULL;
 5218              		.loc 1 996 5 is_stmt 1 view .LVU1566
 996:TOOL/cJSON.c  ****     cJSON *item = NULL;
 5219              		.loc 1 996 18 is_stmt 0 view .LVU1567
 5220 0008 0023     		movs	r3, #0
 5221 000a 0493     		str	r3, [sp, #16]
 5222 000c 0593     		str	r3, [sp, #20]
 5223 000e 0693     		str	r3, [sp, #24]
 5224 0010 0793     		str	r3, [sp, #28]
 5225 0012 0893     		str	r3, [sp, #32]
 5226 0014 0993     		str	r3, [sp, #36]
 997:TOOL/cJSON.c  **** 
ARM GAS  /var/folders/ww/n4ctlbrs3x70633t9y2ks63c0000gn/T//ccTX1xk7.s 			page 147


 5227              		.loc 1 997 5 is_stmt 1 view .LVU1568
 5228              	.LVL504:
1000:TOOL/cJSON.c  ****     global_error.position = 0;
 5229              		.loc 1 1000 5 view .LVU1569
1000:TOOL/cJSON.c  ****     global_error.position = 0;
 5230              		.loc 1 1000 23 is_stmt 0 view .LVU1570
 5231 0016 294A     		ldr	r2, .L442
 5232              	.LVL505:
1000:TOOL/cJSON.c  ****     global_error.position = 0;
 5233              		.loc 1 1000 23 view .LVU1571
 5234 0018 1360     		str	r3, [r2]
1001:TOOL/cJSON.c  **** 
 5235              		.loc 1 1001 5 is_stmt 1 view .LVU1572
1001:TOOL/cJSON.c  **** 
 5236              		.loc 1 1001 27 is_stmt 0 view .LVU1573
 5237 001a 5360     		str	r3, [r2, #4]
1003:TOOL/cJSON.c  ****     {
 5238              		.loc 1 1003 5 is_stmt 1 view .LVU1574
1003:TOOL/cJSON.c  ****     {
 5239              		.loc 1 1003 8 is_stmt 0 view .LVU1575
 5240 001c 0446     		mov	r4, r0
 5241 001e 78B3     		cbz	r0, .L432
1008:TOOL/cJSON.c  ****     buffer.length = strlen((const char*)value) + sizeof("");
 5242              		.loc 1 1008 5 is_stmt 1 view .LVU1576
1008:TOOL/cJSON.c  ****     buffer.length = strlen((const char*)value) + sizeof("");
 5243              		.loc 1 1008 20 is_stmt 0 view .LVU1577
 5244 0020 0390     		str	r0, [sp, #12]
1009:TOOL/cJSON.c  ****     buffer.offset = 0;
 5245              		.loc 1 1009 5 is_stmt 1 view .LVU1578
1009:TOOL/cJSON.c  ****     buffer.offset = 0;
 5246              		.loc 1 1009 21 is_stmt 0 view .LVU1579
 5247 0022 FFF7FEFF 		bl	strlen
 5248              	.LVL506:
1009:TOOL/cJSON.c  ****     buffer.offset = 0;
 5249              		.loc 1 1009 48 view .LVU1580
 5250 0026 0130     		adds	r0, r0, #1
1009:TOOL/cJSON.c  ****     buffer.offset = 0;
 5251              		.loc 1 1009 19 view .LVU1581
 5252 0028 0490     		str	r0, [sp, #16]
1010:TOOL/cJSON.c  ****     buffer.hooks = global_hooks;
 5253              		.loc 1 1010 5 is_stmt 1 view .LVU1582
1011:TOOL/cJSON.c  **** 
 5254              		.loc 1 1011 5 view .LVU1583
1011:TOOL/cJSON.c  **** 
 5255              		.loc 1 1011 18 is_stmt 0 view .LVU1584
 5256 002a 254B     		ldr	r3, .L442+4
 5257 002c 93E80700 		ldm	r3, {r0, r1, r2}
 5258 0030 0AAD     		add	r5, sp, #40
 5259 0032 05E90700 		stmdb	r5, {r0, r1, r2}
1013:TOOL/cJSON.c  ****     if (item == NULL) /* memory fail */
 5260              		.loc 1 1013 5 is_stmt 1 view .LVU1585
1013:TOOL/cJSON.c  ****     if (item == NULL) /* memory fail */
 5261              		.loc 1 1013 12 is_stmt 0 view .LVU1586
 5262 0036 1846     		mov	r0, r3
 5263 0038 FFF7FEFF 		bl	cJSON_New_Item
 5264              	.LVL507:
1014:TOOL/cJSON.c  ****     {
ARM GAS  /var/folders/ww/n4ctlbrs3x70633t9y2ks63c0000gn/T//ccTX1xk7.s 			page 148


 5265              		.loc 1 1014 5 is_stmt 1 view .LVU1587
1014:TOOL/cJSON.c  ****     {
 5266              		.loc 1 1014 8 is_stmt 0 view .LVU1588
 5267 003c 0546     		mov	r5, r0
 5268 003e D8B1     		cbz	r0, .L433
1019:TOOL/cJSON.c  ****     {
 5269              		.loc 1 1019 5 is_stmt 1 view .LVU1589
1019:TOOL/cJSON.c  ****     {
 5270              		.loc 1 1019 10 is_stmt 0 view .LVU1590
 5271 0040 03A8     		add	r0, sp, #12
 5272              	.LVL508:
1019:TOOL/cJSON.c  ****     {
 5273              		.loc 1 1019 10 view .LVU1591
 5274 0042 FFF7FEFF 		bl	skip_utf8_bom
 5275              	.LVL509:
 5276 0046 FFF7FEFF 		bl	buffer_skip_whitespace
 5277              	.LVL510:
 5278 004a 0146     		mov	r1, r0
 5279 004c 2846     		mov	r0, r5
 5280 004e FFF7FEFF 		bl	parse_value
 5281              	.LVL511:
1019:TOOL/cJSON.c  ****     {
 5282              		.loc 1 1019 8 view .LVU1592
 5283 0052 88B1     		cbz	r0, .L433
1026:TOOL/cJSON.c  ****     {
 5284              		.loc 1 1026 5 is_stmt 1 view .LVU1593
1026:TOOL/cJSON.c  ****     {
 5285              		.loc 1 1026 8 is_stmt 0 view .LVU1594
 5286 0054 2FB9     		cbnz	r7, .L441
 5287              	.L434:
1034:TOOL/cJSON.c  ****     {
 5288              		.loc 1 1034 5 is_stmt 1 view .LVU1595
1034:TOOL/cJSON.c  ****     {
 5289              		.loc 1 1034 8 is_stmt 0 view .LVU1596
 5290 0056 3EB3     		cbz	r6, .L431
1036:TOOL/cJSON.c  ****     }
 5291              		.loc 1 1036 9 is_stmt 1 view .LVU1597
1036:TOOL/cJSON.c  ****     }
 5292              		.loc 1 1036 42 is_stmt 0 view .LVU1598
 5293 0058 039B     		ldr	r3, [sp, #12]
 5294 005a 059A     		ldr	r2, [sp, #20]
 5295 005c 1344     		add	r3, r3, r2
1036:TOOL/cJSON.c  ****     }
 5296              		.loc 1 1036 27 view .LVU1599
 5297 005e 3360     		str	r3, [r6]
 5298 0060 22E0     		b	.L431
 5299              	.L441:
1028:TOOL/cJSON.c  ****         if ((buffer.offset >= buffer.length) || buffer_at_offset(&buffer)[0] != '\0')
 5300              		.loc 1 1028 9 is_stmt 1 view .LVU1600
 5301 0062 03A8     		add	r0, sp, #12
 5302 0064 FFF7FEFF 		bl	buffer_skip_whitespace
 5303              	.LVL512:
1029:TOOL/cJSON.c  ****         {
 5304              		.loc 1 1029 9 view .LVU1601
1029:TOOL/cJSON.c  ****         {
 5305              		.loc 1 1029 20 is_stmt 0 view .LVU1602
 5306 0068 059B     		ldr	r3, [sp, #20]
ARM GAS  /var/folders/ww/n4ctlbrs3x70633t9y2ks63c0000gn/T//ccTX1xk7.s 			page 149


1029:TOOL/cJSON.c  ****         {
 5307              		.loc 1 1029 37 view .LVU1603
 5308 006a 049A     		ldr	r2, [sp, #16]
1029:TOOL/cJSON.c  ****         {
 5309              		.loc 1 1029 12 view .LVU1604
 5310 006c 9342     		cmp	r3, r2
 5311 006e 03D2     		bcs	.L433
1029:TOOL/cJSON.c  ****         {
 5312              		.loc 1 1029 49 discriminator 1 view .LVU1605
 5313 0070 039A     		ldr	r2, [sp, #12]
1029:TOOL/cJSON.c  ****         {
 5314              		.loc 1 1029 74 discriminator 1 view .LVU1606
 5315 0072 D35C     		ldrb	r3, [r2, r3]	@ zero_extendqisi2
1029:TOOL/cJSON.c  ****         {
 5316              		.loc 1 1029 46 discriminator 1 view .LVU1607
 5317 0074 002B     		cmp	r3, #0
 5318 0076 EED0     		beq	.L434
 5319              	.L433:
1042:TOOL/cJSON.c  ****     {
 5320              		.loc 1 1042 5 is_stmt 1 view .LVU1608
1042:TOOL/cJSON.c  ****     {
 5321              		.loc 1 1042 8 is_stmt 0 view .LVU1609
 5322 0078 15B1     		cbz	r5, .L432
1044:TOOL/cJSON.c  ****     }
 5323              		.loc 1 1044 9 is_stmt 1 view .LVU1610
 5324 007a 2846     		mov	r0, r5
 5325 007c FFF7FEFF 		bl	cJSON_Delete
 5326              	.LVL513:
 5327              	.L432:
1047:TOOL/cJSON.c  ****     {
 5328              		.loc 1 1047 5 view .LVU1611
1047:TOOL/cJSON.c  ****     {
 5329              		.loc 1 1047 8 is_stmt 0 view .LVU1612
 5330 0080 D4B1     		cbz	r4, .L439
 5331              	.LBB18:
1049:TOOL/cJSON.c  ****         local_error.json = (const unsigned char*)value;
 5332              		.loc 1 1049 9 is_stmt 1 view .LVU1613
1050:TOOL/cJSON.c  ****         local_error.position = 0;
 5333              		.loc 1 1050 9 view .LVU1614
1050:TOOL/cJSON.c  ****         local_error.position = 0;
 5334              		.loc 1 1050 26 is_stmt 0 view .LVU1615
 5335 0082 0194     		str	r4, [sp, #4]
1051:TOOL/cJSON.c  **** 
 5336              		.loc 1 1051 9 is_stmt 1 view .LVU1616
1051:TOOL/cJSON.c  **** 
 5337              		.loc 1 1051 30 is_stmt 0 view .LVU1617
 5338 0084 0023     		movs	r3, #0
 5339 0086 0293     		str	r3, [sp, #8]
1053:TOOL/cJSON.c  ****         {
 5340              		.loc 1 1053 9 is_stmt 1 view .LVU1618
1053:TOOL/cJSON.c  ****         {
 5341              		.loc 1 1053 19 is_stmt 0 view .LVU1619
 5342 0088 059A     		ldr	r2, [sp, #20]
1053:TOOL/cJSON.c  ****         {
 5343              		.loc 1 1053 35 view .LVU1620
 5344 008a 049B     		ldr	r3, [sp, #16]
1053:TOOL/cJSON.c  ****         {
ARM GAS  /var/folders/ww/n4ctlbrs3x70633t9y2ks63c0000gn/T//ccTX1xk7.s 			page 150


 5345              		.loc 1 1053 12 view .LVU1621
 5346 008c 9A42     		cmp	r2, r3
 5347 008e 0ED2     		bcs	.L436
1055:TOOL/cJSON.c  ****         }
 5348              		.loc 1 1055 13 is_stmt 1 view .LVU1622
1055:TOOL/cJSON.c  ****         }
 5349              		.loc 1 1055 34 is_stmt 0 view .LVU1623
 5350 0090 0292     		str	r2, [sp, #8]
 5351              	.L437:
1062:TOOL/cJSON.c  ****         {
 5352              		.loc 1 1062 9 is_stmt 1 view .LVU1624
1062:TOOL/cJSON.c  ****         {
 5353              		.loc 1 1062 12 is_stmt 0 view .LVU1625
 5354 0092 16B1     		cbz	r6, .L438
1064:TOOL/cJSON.c  ****         }
 5355              		.loc 1 1064 13 is_stmt 1 view .LVU1626
1064:TOOL/cJSON.c  ****         }
 5356              		.loc 1 1064 76 is_stmt 0 view .LVU1627
 5357 0094 029B     		ldr	r3, [sp, #8]
1064:TOOL/cJSON.c  ****         }
 5358              		.loc 1 1064 63 view .LVU1628
 5359 0096 1C44     		add	r4, r4, r3
 5360              	.LVL514:
1064:TOOL/cJSON.c  ****         }
 5361              		.loc 1 1064 31 view .LVU1629
 5362 0098 3460     		str	r4, [r6]
 5363              	.L438:
1067:TOOL/cJSON.c  ****     }
 5364              		.loc 1 1067 9 is_stmt 1 view .LVU1630
1067:TOOL/cJSON.c  ****     }
 5365              		.loc 1 1067 22 is_stmt 0 view .LVU1631
 5366 009a 084B     		ldr	r3, .L442
 5367 009c 01AA     		add	r2, sp, #4
 5368              	.LVL515:
1067:TOOL/cJSON.c  ****     }
 5369              		.loc 1 1067 22 view .LVU1632
 5370 009e 92E80300 		ldm	r2, {r0, r1}
 5371 00a2 83E80300 		stm	r3, {r0, r1}
 5372              	.LBE18:
1070:TOOL/cJSON.c  **** }
 5373              		.loc 1 1070 12 view .LVU1633
 5374 00a6 0025     		movs	r5, #0
 5375              	.LVL516:
 5376              	.L431:
1071:TOOL/cJSON.c  **** 
 5377              		.loc 1 1071 1 view .LVU1634
 5378 00a8 2846     		mov	r0, r5
 5379 00aa 0BB0     		add	sp, sp, #44
 5380              	.LCFI56:
 5381              		.cfi_remember_state
 5382              		.cfi_def_cfa_offset 20
 5383              		@ sp needed
 5384 00ac F0BD     		pop	{r4, r5, r6, r7, pc}
 5385              	.LVL517:
 5386              	.L436:
 5387              	.LCFI57:
 5388              		.cfi_restore_state
ARM GAS  /var/folders/ww/n4ctlbrs3x70633t9y2ks63c0000gn/T//ccTX1xk7.s 			page 151


 5389              	.LBB19:
1057:TOOL/cJSON.c  ****         {
 5390              		.loc 1 1057 14 is_stmt 1 view .LVU1635
1057:TOOL/cJSON.c  ****         {
 5391              		.loc 1 1057 17 is_stmt 0 view .LVU1636
 5392 00ae 002B     		cmp	r3, #0
 5393 00b0 EFD0     		beq	.L437
1059:TOOL/cJSON.c  ****         }
 5394              		.loc 1 1059 13 is_stmt 1 view .LVU1637
1059:TOOL/cJSON.c  ****         }
 5395              		.loc 1 1059 50 is_stmt 0 view .LVU1638
 5396 00b2 013B     		subs	r3, r3, #1
1059:TOOL/cJSON.c  ****         }
 5397              		.loc 1 1059 34 view .LVU1639
 5398 00b4 0293     		str	r3, [sp, #8]
 5399 00b6 ECE7     		b	.L437
 5400              	.L439:
1059:TOOL/cJSON.c  ****         }
 5401              		.loc 1 1059 34 view .LVU1640
 5402              	.LBE19:
1070:TOOL/cJSON.c  **** }
 5403              		.loc 1 1070 12 view .LVU1641
 5404 00b8 2546     		mov	r5, r4
 5405 00ba F5E7     		b	.L431
 5406              	.L443:
 5407              		.align	2
 5408              	.L442:
 5409 00bc 00000000 		.word	.LANCHOR0
 5410 00c0 00000000 		.word	.LANCHOR2
 5411              		.cfi_endproc
 5412              	.LFE91:
 5414              		.section	.text.cJSON_Parse,"ax",%progbits
 5415              		.align	1
 5416              		.global	cJSON_Parse
 5417              		.syntax unified
 5418              		.thumb
 5419              		.thumb_func
 5420              		.fpu softvfp
 5422              	cJSON_Parse:
 5423              	.LVL518:
 5424              	.LFB92:
1075:TOOL/cJSON.c  ****     return cJSON_ParseWithOpts(value, 0, 0);
 5425              		.loc 1 1075 1 is_stmt 1 view -0
 5426              		.cfi_startproc
 5427              		@ args = 0, pretend = 0, frame = 0
 5428              		@ frame_needed = 0, uses_anonymous_args = 0
1075:TOOL/cJSON.c  ****     return cJSON_ParseWithOpts(value, 0, 0);
 5429              		.loc 1 1075 1 is_stmt 0 view .LVU1643
 5430 0000 08B5     		push	{r3, lr}
 5431              	.LCFI58:
 5432              		.cfi_def_cfa_offset 8
 5433              		.cfi_offset 3, -8
 5434              		.cfi_offset 14, -4
1076:TOOL/cJSON.c  **** }
 5435              		.loc 1 1076 5 is_stmt 1 view .LVU1644
1076:TOOL/cJSON.c  **** }
 5436              		.loc 1 1076 12 is_stmt 0 view .LVU1645
ARM GAS  /var/folders/ww/n4ctlbrs3x70633t9y2ks63c0000gn/T//ccTX1xk7.s 			page 152


 5437 0002 0022     		movs	r2, #0
 5438 0004 1146     		mov	r1, r2
 5439 0006 FFF7FEFF 		bl	cJSON_ParseWithOpts
 5440              	.LVL519:
1077:TOOL/cJSON.c  **** 
 5441              		.loc 1 1077 1 view .LVU1646
 5442 000a 08BD     		pop	{r3, pc}
 5443              		.cfi_endproc
 5444              	.LFE92:
 5446              		.section	.text.cJSON_Print,"ax",%progbits
 5447              		.align	1
 5448              		.global	cJSON_Print
 5449              		.syntax unified
 5450              		.thumb
 5451              		.thumb_func
 5452              		.fpu softvfp
 5454              	cJSON_Print:
 5455              	.LVL520:
 5456              	.LFB94:
1145:TOOL/cJSON.c  ****     return (char*)print(item, true, &global_hooks);
 5457              		.loc 1 1145 1 is_stmt 1 view -0
 5458              		.cfi_startproc
 5459              		@ args = 0, pretend = 0, frame = 0
 5460              		@ frame_needed = 0, uses_anonymous_args = 0
1145:TOOL/cJSON.c  ****     return (char*)print(item, true, &global_hooks);
 5461              		.loc 1 1145 1 is_stmt 0 view .LVU1648
 5462 0000 08B5     		push	{r3, lr}
 5463              	.LCFI59:
 5464              		.cfi_def_cfa_offset 8
 5465              		.cfi_offset 3, -8
 5466              		.cfi_offset 14, -4
1146:TOOL/cJSON.c  **** }
 5467              		.loc 1 1146 5 is_stmt 1 view .LVU1649
1146:TOOL/cJSON.c  **** }
 5468              		.loc 1 1146 19 is_stmt 0 view .LVU1650
 5469 0002 024A     		ldr	r2, .L448
 5470 0004 0121     		movs	r1, #1
 5471 0006 FFF7FEFF 		bl	print
 5472              	.LVL521:
1147:TOOL/cJSON.c  **** 
 5473              		.loc 1 1147 1 view .LVU1651
 5474 000a 08BD     		pop	{r3, pc}
 5475              	.L449:
 5476              		.align	2
 5477              	.L448:
 5478 000c 00000000 		.word	.LANCHOR2
 5479              		.cfi_endproc
 5480              	.LFE94:
 5482              		.section	.text.cJSON_PrintUnformatted,"ax",%progbits
 5483              		.align	1
 5484              		.global	cJSON_PrintUnformatted
 5485              		.syntax unified
 5486              		.thumb
 5487              		.thumb_func
 5488              		.fpu softvfp
 5490              	cJSON_PrintUnformatted:
 5491              	.LVL522:
ARM GAS  /var/folders/ww/n4ctlbrs3x70633t9y2ks63c0000gn/T//ccTX1xk7.s 			page 153


 5492              	.LFB95:
1150:TOOL/cJSON.c  ****     return (char*)print(item, false, &global_hooks);
 5493              		.loc 1 1150 1 is_stmt 1 view -0
 5494              		.cfi_startproc
 5495              		@ args = 0, pretend = 0, frame = 0
 5496              		@ frame_needed = 0, uses_anonymous_args = 0
1150:TOOL/cJSON.c  ****     return (char*)print(item, false, &global_hooks);
 5497              		.loc 1 1150 1 is_stmt 0 view .LVU1653
 5498 0000 08B5     		push	{r3, lr}
 5499              	.LCFI60:
 5500              		.cfi_def_cfa_offset 8
 5501              		.cfi_offset 3, -8
 5502              		.cfi_offset 14, -4
1151:TOOL/cJSON.c  **** }
 5503              		.loc 1 1151 5 is_stmt 1 view .LVU1654
1151:TOOL/cJSON.c  **** }
 5504              		.loc 1 1151 19 is_stmt 0 view .LVU1655
 5505 0002 024A     		ldr	r2, .L452
 5506 0004 0021     		movs	r1, #0
 5507 0006 FFF7FEFF 		bl	print
 5508              	.LVL523:
1152:TOOL/cJSON.c  **** 
 5509              		.loc 1 1152 1 view .LVU1656
 5510 000a 08BD     		pop	{r3, pc}
 5511              	.L453:
 5512              		.align	2
 5513              	.L452:
 5514 000c 00000000 		.word	.LANCHOR2
 5515              		.cfi_endproc
 5516              	.LFE95:
 5518              		.section	.text.cJSON_PrintBuffered,"ax",%progbits
 5519              		.align	1
 5520              		.global	cJSON_PrintBuffered
 5521              		.syntax unified
 5522              		.thumb
 5523              		.thumb_func
 5524              		.fpu softvfp
 5526              	cJSON_PrintBuffered:
 5527              	.LVL524:
 5528              	.LFB96:
1155:TOOL/cJSON.c  ****     printbuffer p = { 0, 0, 0, 0, 0, 0, { 0, 0, 0 } };
 5529              		.loc 1 1155 1 is_stmt 1 view -0
 5530              		.cfi_startproc
 5531              		@ args = 0, pretend = 0, frame = 40
 5532              		@ frame_needed = 0, uses_anonymous_args = 0
1155:TOOL/cJSON.c  ****     printbuffer p = { 0, 0, 0, 0, 0, 0, { 0, 0, 0 } };
 5533              		.loc 1 1155 1 is_stmt 0 view .LVU1658
 5534 0000 70B5     		push	{r4, r5, r6, lr}
 5535              	.LCFI61:
 5536              		.cfi_def_cfa_offset 16
 5537              		.cfi_offset 4, -16
 5538              		.cfi_offset 5, -12
 5539              		.cfi_offset 6, -8
 5540              		.cfi_offset 14, -4
 5541 0002 8AB0     		sub	sp, sp, #40
 5542              	.LCFI62:
 5543              		.cfi_def_cfa_offset 56
ARM GAS  /var/folders/ww/n4ctlbrs3x70633t9y2ks63c0000gn/T//ccTX1xk7.s 			page 154


 5544 0004 0546     		mov	r5, r0
 5545 0006 0C46     		mov	r4, r1
 5546 0008 1646     		mov	r6, r2
1156:TOOL/cJSON.c  **** 
 5547              		.loc 1 1156 5 is_stmt 1 view .LVU1659
1156:TOOL/cJSON.c  **** 
 5548              		.loc 1 1156 17 is_stmt 0 view .LVU1660
 5549 000a 2422     		movs	r2, #36
 5550              	.LVL525:
1156:TOOL/cJSON.c  **** 
 5551              		.loc 1 1156 17 view .LVU1661
 5552 000c 0021     		movs	r1, #0
 5553              	.LVL526:
1156:TOOL/cJSON.c  **** 
 5554              		.loc 1 1156 17 view .LVU1662
 5555 000e 01A8     		add	r0, sp, #4
 5556              	.LVL527:
1156:TOOL/cJSON.c  **** 
 5557              		.loc 1 1156 17 view .LVU1663
 5558 0010 FFF7FEFF 		bl	memset
 5559              	.LVL528:
1158:TOOL/cJSON.c  ****     {
 5560              		.loc 1 1158 5 is_stmt 1 view .LVU1664
1158:TOOL/cJSON.c  ****     {
 5561              		.loc 1 1158 8 is_stmt 0 view .LVU1665
 5562 0014 002C     		cmp	r4, #0
 5563 0016 1EDB     		blt	.L457
1163:TOOL/cJSON.c  ****     if (!p.buffer)
 5564              		.loc 1 1163 5 is_stmt 1 view .LVU1666
1163:TOOL/cJSON.c  ****     if (!p.buffer)
 5565              		.loc 1 1163 44 is_stmt 0 view .LVU1667
 5566 0018 104B     		ldr	r3, .L460
 5567 001a 1B68     		ldr	r3, [r3]
1163:TOOL/cJSON.c  ****     if (!p.buffer)
 5568              		.loc 1 1163 32 view .LVU1668
 5569 001c 2046     		mov	r0, r4
 5570 001e 9847     		blx	r3
 5571              	.LVL529:
1163:TOOL/cJSON.c  ****     if (!p.buffer)
 5572              		.loc 1 1163 14 view .LVU1669
 5573 0020 0190     		str	r0, [sp, #4]
1164:TOOL/cJSON.c  ****     {
 5574              		.loc 1 1164 5 is_stmt 1 view .LVU1670
1164:TOOL/cJSON.c  ****     {
 5575              		.loc 1 1164 8 is_stmt 0 view .LVU1671
 5576 0022 80B1     		cbz	r0, .L454
1169:TOOL/cJSON.c  ****     p.offset = 0;
 5577              		.loc 1 1169 5 is_stmt 1 view .LVU1672
1169:TOOL/cJSON.c  ****     p.offset = 0;
 5578              		.loc 1 1169 14 is_stmt 0 view .LVU1673
 5579 0024 0294     		str	r4, [sp, #8]
1170:TOOL/cJSON.c  ****     p.noalloc = false;
 5580              		.loc 1 1170 5 is_stmt 1 view .LVU1674
1170:TOOL/cJSON.c  ****     p.noalloc = false;
 5581              		.loc 1 1170 14 is_stmt 0 view .LVU1675
 5582 0026 0023     		movs	r3, #0
 5583 0028 0393     		str	r3, [sp, #12]
ARM GAS  /var/folders/ww/n4ctlbrs3x70633t9y2ks63c0000gn/T//ccTX1xk7.s 			page 155


1171:TOOL/cJSON.c  ****     p.format = fmt;
 5584              		.loc 1 1171 5 is_stmt 1 view .LVU1676
1171:TOOL/cJSON.c  ****     p.format = fmt;
 5585              		.loc 1 1171 15 is_stmt 0 view .LVU1677
 5586 002a 0593     		str	r3, [sp, #20]
1172:TOOL/cJSON.c  ****     p.hooks = global_hooks;
 5587              		.loc 1 1172 5 is_stmt 1 view .LVU1678
1172:TOOL/cJSON.c  ****     p.hooks = global_hooks;
 5588              		.loc 1 1172 14 is_stmt 0 view .LVU1679
 5589 002c 0696     		str	r6, [sp, #24]
1173:TOOL/cJSON.c  **** 
 5590              		.loc 1 1173 5 is_stmt 1 view .LVU1680
1173:TOOL/cJSON.c  **** 
 5591              		.loc 1 1173 13 is_stmt 0 view .LVU1681
 5592 002e 0B4B     		ldr	r3, .L460
 5593 0030 93E80700 		ldm	r3, {r0, r1, r2}
 5594 0034 0AAB     		add	r3, sp, #40
 5595 0036 03E90700 		stmdb	r3, {r0, r1, r2}
1175:TOOL/cJSON.c  ****     {
 5596              		.loc 1 1175 5 is_stmt 1 view .LVU1682
1175:TOOL/cJSON.c  ****     {
 5597              		.loc 1 1175 10 is_stmt 0 view .LVU1683
 5598 003a 01A9     		add	r1, sp, #4
 5599 003c 2846     		mov	r0, r5
 5600 003e FFF7FEFF 		bl	print_value
 5601              	.LVL530:
1175:TOOL/cJSON.c  ****     {
 5602              		.loc 1 1175 8 view .LVU1684
 5603 0042 10B1     		cbz	r0, .L459
1181:TOOL/cJSON.c  **** }
 5604              		.loc 1 1181 5 is_stmt 1 view .LVU1685
1181:TOOL/cJSON.c  **** }
 5605              		.loc 1 1181 12 is_stmt 0 view .LVU1686
 5606 0044 0198     		ldr	r0, [sp, #4]
 5607              	.L454:
1182:TOOL/cJSON.c  **** 
 5608              		.loc 1 1182 1 view .LVU1687
 5609 0046 0AB0     		add	sp, sp, #40
 5610              	.LCFI63:
 5611              		.cfi_remember_state
 5612              		.cfi_def_cfa_offset 16
 5613              		@ sp needed
 5614 0048 70BD     		pop	{r4, r5, r6, pc}
 5615              	.LVL531:
 5616              	.L459:
 5617              	.LCFI64:
 5618              		.cfi_restore_state
1177:TOOL/cJSON.c  ****         return NULL;
 5619              		.loc 1 1177 9 is_stmt 1 view .LVU1688
1177:TOOL/cJSON.c  ****         return NULL;
 5620              		.loc 1 1177 21 is_stmt 0 view .LVU1689
 5621 004a 044B     		ldr	r3, .L460
 5622 004c 5B68     		ldr	r3, [r3, #4]
1177:TOOL/cJSON.c  ****         return NULL;
 5623              		.loc 1 1177 9 view .LVU1690
 5624 004e 0198     		ldr	r0, [sp, #4]
 5625 0050 9847     		blx	r3
ARM GAS  /var/folders/ww/n4ctlbrs3x70633t9y2ks63c0000gn/T//ccTX1xk7.s 			page 156


 5626              	.LVL532:
1178:TOOL/cJSON.c  ****     }
 5627              		.loc 1 1178 9 is_stmt 1 view .LVU1691
1178:TOOL/cJSON.c  ****     }
 5628              		.loc 1 1178 16 is_stmt 0 view .LVU1692
 5629 0052 0020     		movs	r0, #0
 5630 0054 F7E7     		b	.L454
 5631              	.L457:
1160:TOOL/cJSON.c  ****     }
 5632              		.loc 1 1160 16 view .LVU1693
 5633 0056 0020     		movs	r0, #0
 5634 0058 F5E7     		b	.L454
 5635              	.L461:
 5636 005a 00BF     		.align	2
 5637              	.L460:
 5638 005c 00000000 		.word	.LANCHOR2
 5639              		.cfi_endproc
 5640              	.LFE96:
 5642              		.section	.text.cJSON_PrintPreallocated,"ax",%progbits
 5643              		.align	1
 5644              		.global	cJSON_PrintPreallocated
 5645              		.syntax unified
 5646              		.thumb
 5647              		.thumb_func
 5648              		.fpu softvfp
 5650              	cJSON_PrintPreallocated:
 5651              	.LVL533:
 5652              	.LFB97:
1185:TOOL/cJSON.c  ****     printbuffer p = { 0, 0, 0, 0, 0, 0, { 0, 0, 0 } };
 5653              		.loc 1 1185 1 is_stmt 1 view -0
 5654              		.cfi_startproc
 5655              		@ args = 0, pretend = 0, frame = 40
 5656              		@ frame_needed = 0, uses_anonymous_args = 0
1185:TOOL/cJSON.c  ****     printbuffer p = { 0, 0, 0, 0, 0, 0, { 0, 0, 0 } };
 5657              		.loc 1 1185 1 is_stmt 0 view .LVU1695
 5658 0000 F0B5     		push	{r4, r5, r6, r7, lr}
 5659              	.LCFI65:
 5660              		.cfi_def_cfa_offset 20
 5661              		.cfi_offset 4, -20
 5662              		.cfi_offset 5, -16
 5663              		.cfi_offset 6, -12
 5664              		.cfi_offset 7, -8
 5665              		.cfi_offset 14, -4
 5666 0002 8BB0     		sub	sp, sp, #44
 5667              	.LCFI66:
 5668              		.cfi_def_cfa_offset 64
 5669 0004 0646     		mov	r6, r0
 5670 0006 0D46     		mov	r5, r1
 5671 0008 1446     		mov	r4, r2
 5672 000a 1F46     		mov	r7, r3
1186:TOOL/cJSON.c  **** 
 5673              		.loc 1 1186 5 is_stmt 1 view .LVU1696
1186:TOOL/cJSON.c  **** 
 5674              		.loc 1 1186 17 is_stmt 0 view .LVU1697
 5675 000c 2422     		movs	r2, #36
 5676              	.LVL534:
1186:TOOL/cJSON.c  **** 
ARM GAS  /var/folders/ww/n4ctlbrs3x70633t9y2ks63c0000gn/T//ccTX1xk7.s 			page 157


 5677              		.loc 1 1186 17 view .LVU1698
 5678 000e 0021     		movs	r1, #0
 5679              	.LVL535:
1186:TOOL/cJSON.c  **** 
 5680              		.loc 1 1186 17 view .LVU1699
 5681 0010 01A8     		add	r0, sp, #4
 5682              	.LVL536:
1186:TOOL/cJSON.c  **** 
 5683              		.loc 1 1186 17 view .LVU1700
 5684 0012 FFF7FEFF 		bl	memset
 5685              	.LVL537:
1188:TOOL/cJSON.c  ****     {
 5686              		.loc 1 1188 5 is_stmt 1 view .LVU1701
1188:TOOL/cJSON.c  ****     {
 5687              		.loc 1 1188 8 is_stmt 0 view .LVU1702
 5688 0016 002C     		cmp	r4, #0
 5689 0018 11DB     		blt	.L464
1188:TOOL/cJSON.c  ****     {
 5690              		.loc 1 1188 19 discriminator 1 view .LVU1703
 5691 001a 95B1     		cbz	r5, .L465
1193:TOOL/cJSON.c  ****     p.length = (size_t)len;
 5692              		.loc 1 1193 5 is_stmt 1 view .LVU1704
1193:TOOL/cJSON.c  ****     p.length = (size_t)len;
 5693              		.loc 1 1193 14 is_stmt 0 view .LVU1705
 5694 001c 0195     		str	r5, [sp, #4]
1194:TOOL/cJSON.c  ****     p.offset = 0;
 5695              		.loc 1 1194 5 is_stmt 1 view .LVU1706
1194:TOOL/cJSON.c  ****     p.offset = 0;
 5696              		.loc 1 1194 14 is_stmt 0 view .LVU1707
 5697 001e 0294     		str	r4, [sp, #8]
1195:TOOL/cJSON.c  ****     p.noalloc = true;
 5698              		.loc 1 1195 5 is_stmt 1 view .LVU1708
1196:TOOL/cJSON.c  ****     p.format = fmt;
 5699              		.loc 1 1196 5 view .LVU1709
1196:TOOL/cJSON.c  ****     p.format = fmt;
 5700              		.loc 1 1196 15 is_stmt 0 view .LVU1710
 5701 0020 0123     		movs	r3, #1
 5702 0022 0593     		str	r3, [sp, #20]
1197:TOOL/cJSON.c  ****     p.hooks = global_hooks;
 5703              		.loc 1 1197 5 is_stmt 1 view .LVU1711
1197:TOOL/cJSON.c  ****     p.hooks = global_hooks;
 5704              		.loc 1 1197 14 is_stmt 0 view .LVU1712
 5705 0024 0697     		str	r7, [sp, #24]
1198:TOOL/cJSON.c  **** 
 5706              		.loc 1 1198 5 is_stmt 1 view .LVU1713
1198:TOOL/cJSON.c  **** 
 5707              		.loc 1 1198 13 is_stmt 0 view .LVU1714
 5708 0026 084B     		ldr	r3, .L467
 5709 0028 93E80700 		ldm	r3, {r0, r1, r2}
 5710 002c 0AAB     		add	r3, sp, #40
 5711 002e 03E90700 		stmdb	r3, {r0, r1, r2}
1200:TOOL/cJSON.c  **** }
 5712              		.loc 1 1200 5 is_stmt 1 view .LVU1715
1200:TOOL/cJSON.c  **** }
 5713              		.loc 1 1200 12 is_stmt 0 view .LVU1716
 5714 0032 01A9     		add	r1, sp, #4
 5715 0034 3046     		mov	r0, r6
ARM GAS  /var/folders/ww/n4ctlbrs3x70633t9y2ks63c0000gn/T//ccTX1xk7.s 			page 158


 5716 0036 FFF7FEFF 		bl	print_value
 5717              	.LVL538:
 5718              	.L462:
1201:TOOL/cJSON.c  **** 
 5719              		.loc 1 1201 1 view .LVU1717
 5720 003a 0BB0     		add	sp, sp, #44
 5721              	.LCFI67:
 5722              		.cfi_remember_state
 5723              		.cfi_def_cfa_offset 20
 5724              		@ sp needed
 5725 003c F0BD     		pop	{r4, r5, r6, r7, pc}
 5726              	.LVL539:
 5727              	.L464:
 5728              	.LCFI68:
 5729              		.cfi_restore_state
1190:TOOL/cJSON.c  ****     }
 5730              		.loc 1 1190 16 view .LVU1718
 5731 003e 0020     		movs	r0, #0
 5732 0040 FBE7     		b	.L462
 5733              	.L465:
 5734 0042 0020     		movs	r0, #0
 5735 0044 F9E7     		b	.L462
 5736              	.L468:
 5737 0046 00BF     		.align	2
 5738              	.L467:
 5739 0048 00000000 		.word	.LANCHOR2
 5740              		.cfi_endproc
 5741              	.LFE97:
 5743              		.section	.text.cJSON_GetArraySize,"ax",%progbits
 5744              		.align	1
 5745              		.global	cJSON_GetArraySize
 5746              		.syntax unified
 5747              		.thumb
 5748              		.thumb_func
 5749              		.fpu softvfp
 5751              	cJSON_GetArraySize:
 5752              	.LVL540:
 5753              	.LFB104:
1717:TOOL/cJSON.c  ****     cJSON *child = NULL;
 5754              		.loc 1 1717 1 is_stmt 1 view -0
 5755              		.cfi_startproc
 5756              		@ args = 0, pretend = 0, frame = 0
 5757              		@ frame_needed = 0, uses_anonymous_args = 0
 5758              		@ link register save eliminated.
1718:TOOL/cJSON.c  ****     size_t size = 0;
 5759              		.loc 1 1718 5 view .LVU1720
1719:TOOL/cJSON.c  **** 
 5760              		.loc 1 1719 5 view .LVU1721
1721:TOOL/cJSON.c  ****     {
 5761              		.loc 1 1721 5 view .LVU1722
1721:TOOL/cJSON.c  ****     {
 5762              		.loc 1 1721 8 is_stmt 0 view .LVU1723
 5763 0000 30B1     		cbz	r0, .L473
1726:TOOL/cJSON.c  **** 
 5764              		.loc 1 1726 5 is_stmt 1 view .LVU1724
1726:TOOL/cJSON.c  **** 
 5765              		.loc 1 1726 11 is_stmt 0 view .LVU1725
ARM GAS  /var/folders/ww/n4ctlbrs3x70633t9y2ks63c0000gn/T//ccTX1xk7.s 			page 159


 5766 0002 8368     		ldr	r3, [r0, #8]
 5767              	.LVL541:
1728:TOOL/cJSON.c  ****     {
 5768              		.loc 1 1728 5 is_stmt 1 view .LVU1726
1719:TOOL/cJSON.c  **** 
 5769              		.loc 1 1719 12 is_stmt 0 view .LVU1727
 5770 0004 0020     		movs	r0, #0
 5771              	.LVL542:
 5772              	.L471:
1728:TOOL/cJSON.c  ****     {
 5773              		.loc 1 1728 10 view .LVU1728
 5774 0006 13B1     		cbz	r3, .L474
1730:TOOL/cJSON.c  ****         child = child->next;
 5775              		.loc 1 1730 9 is_stmt 1 view .LVU1729
1730:TOOL/cJSON.c  ****         child = child->next;
 5776              		.loc 1 1730 13 is_stmt 0 view .LVU1730
 5777 0008 0130     		adds	r0, r0, #1
 5778              	.LVL543:
1731:TOOL/cJSON.c  ****     }
 5779              		.loc 1 1731 9 is_stmt 1 view .LVU1731
1731:TOOL/cJSON.c  ****     }
 5780              		.loc 1 1731 15 is_stmt 0 view .LVU1732
 5781 000a 1B68     		ldr	r3, [r3]
 5782              	.LVL544:
1731:TOOL/cJSON.c  ****     }
 5783              		.loc 1 1731 15 view .LVU1733
 5784 000c FBE7     		b	.L471
 5785              	.L474:
1736:TOOL/cJSON.c  **** }
 5786              		.loc 1 1736 5 is_stmt 1 view .LVU1734
1736:TOOL/cJSON.c  **** }
 5787              		.loc 1 1736 12 is_stmt 0 view .LVU1735
 5788 000e 7047     		bx	lr
 5789              	.LVL545:
 5790              	.L473:
1723:TOOL/cJSON.c  ****     }
 5791              		.loc 1 1723 16 view .LVU1736
 5792 0010 0020     		movs	r0, #0
 5793              	.LVL546:
1737:TOOL/cJSON.c  **** 
 5794              		.loc 1 1737 1 view .LVU1737
 5795 0012 7047     		bx	lr
 5796              		.cfi_endproc
 5797              	.LFE104:
 5799              		.section	.text.cJSON_GetArrayItem,"ax",%progbits
 5800              		.align	1
 5801              		.global	cJSON_GetArrayItem
 5802              		.syntax unified
 5803              		.thumb
 5804              		.thumb_func
 5805              		.fpu softvfp
 5807              	cJSON_GetArrayItem:
 5808              	.LVL547:
 5809              	.LFB106:
1759:TOOL/cJSON.c  ****     if (index < 0)
 5810              		.loc 1 1759 1 is_stmt 1 view -0
 5811              		.cfi_startproc
ARM GAS  /var/folders/ww/n4ctlbrs3x70633t9y2ks63c0000gn/T//ccTX1xk7.s 			page 160


 5812              		@ args = 0, pretend = 0, frame = 0
 5813              		@ frame_needed = 0, uses_anonymous_args = 0
1760:TOOL/cJSON.c  ****     {
 5814              		.loc 1 1760 5 view .LVU1739
1760:TOOL/cJSON.c  ****     {
 5815              		.loc 1 1760 8 is_stmt 0 view .LVU1740
 5816 0000 0029     		cmp	r1, #0
1760:TOOL/cJSON.c  ****     {
 5817              		.loc 1 1760 8 view .LVU1741
 5818 0002 03DB     		blt	.L477
1759:TOOL/cJSON.c  ****     if (index < 0)
 5819              		.loc 1 1759 1 view .LVU1742
 5820 0004 08B5     		push	{r3, lr}
 5821              	.LCFI69:
 5822              		.cfi_def_cfa_offset 8
 5823              		.cfi_offset 3, -8
 5824              		.cfi_offset 14, -4
1765:TOOL/cJSON.c  **** }
 5825              		.loc 1 1765 5 is_stmt 1 view .LVU1743
1765:TOOL/cJSON.c  **** }
 5826              		.loc 1 1765 12 is_stmt 0 view .LVU1744
 5827 0006 FFF7FEFF 		bl	get_array_item
 5828              	.LVL548:
1766:TOOL/cJSON.c  **** 
 5829              		.loc 1 1766 1 view .LVU1745
 5830 000a 08BD     		pop	{r3, pc}
 5831              	.LVL549:
 5832              	.L477:
 5833              	.LCFI70:
 5834              		.cfi_def_cfa_offset 0
 5835              		.cfi_restore 3
 5836              		.cfi_restore 14
1762:TOOL/cJSON.c  ****     }
 5837              		.loc 1 1762 16 view .LVU1746
 5838 000c 0020     		movs	r0, #0
 5839              	.LVL550:
1766:TOOL/cJSON.c  **** 
 5840              		.loc 1 1766 1 view .LVU1747
 5841 000e 7047     		bx	lr
 5842              		.cfi_endproc
 5843              	.LFE106:
 5845              		.section	.text.cJSON_GetObjectItem,"ax",%progbits
 5846              		.align	1
 5847              		.global	cJSON_GetObjectItem
 5848              		.syntax unified
 5849              		.thumb
 5850              		.thumb_func
 5851              		.fpu softvfp
 5853              	cJSON_GetObjectItem:
 5854              	.LVL551:
 5855              	.LFB108:
1797:TOOL/cJSON.c  ****     return get_object_item(object, string, false);
 5856              		.loc 1 1797 1 is_stmt 1 view -0
 5857              		.cfi_startproc
 5858              		@ args = 0, pretend = 0, frame = 0
 5859              		@ frame_needed = 0, uses_anonymous_args = 0
1797:TOOL/cJSON.c  ****     return get_object_item(object, string, false);
ARM GAS  /var/folders/ww/n4ctlbrs3x70633t9y2ks63c0000gn/T//ccTX1xk7.s 			page 161


 5860              		.loc 1 1797 1 is_stmt 0 view .LVU1749
 5861 0000 08B5     		push	{r3, lr}
 5862              	.LCFI71:
 5863              		.cfi_def_cfa_offset 8
 5864              		.cfi_offset 3, -8
 5865              		.cfi_offset 14, -4
1798:TOOL/cJSON.c  **** }
 5866              		.loc 1 1798 5 is_stmt 1 view .LVU1750
1798:TOOL/cJSON.c  **** }
 5867              		.loc 1 1798 12 is_stmt 0 view .LVU1751
 5868 0002 0022     		movs	r2, #0
 5869 0004 FFF7FEFF 		bl	get_object_item
 5870              	.LVL552:
1799:TOOL/cJSON.c  **** 
 5871              		.loc 1 1799 1 view .LVU1752
 5872 0008 08BD     		pop	{r3, pc}
 5873              		.cfi_endproc
 5874              	.LFE108:
 5876              		.section	.text.cJSON_GetObjectItemCaseSensitive,"ax",%progbits
 5877              		.align	1
 5878              		.global	cJSON_GetObjectItemCaseSensitive
 5879              		.syntax unified
 5880              		.thumb
 5881              		.thumb_func
 5882              		.fpu softvfp
 5884              	cJSON_GetObjectItemCaseSensitive:
 5885              	.LVL553:
 5886              	.LFB109:
1802:TOOL/cJSON.c  ****     return get_object_item(object, string, true);
 5887              		.loc 1 1802 1 is_stmt 1 view -0
 5888              		.cfi_startproc
 5889              		@ args = 0, pretend = 0, frame = 0
 5890              		@ frame_needed = 0, uses_anonymous_args = 0
1802:TOOL/cJSON.c  ****     return get_object_item(object, string, true);
 5891              		.loc 1 1802 1 is_stmt 0 view .LVU1754
 5892 0000 08B5     		push	{r3, lr}
 5893              	.LCFI72:
 5894              		.cfi_def_cfa_offset 8
 5895              		.cfi_offset 3, -8
 5896              		.cfi_offset 14, -4
1803:TOOL/cJSON.c  **** }
 5897              		.loc 1 1803 5 is_stmt 1 view .LVU1755
1803:TOOL/cJSON.c  **** }
 5898              		.loc 1 1803 12 is_stmt 0 view .LVU1756
 5899 0002 0122     		movs	r2, #1
 5900 0004 FFF7FEFF 		bl	get_object_item
 5901              	.LVL554:
1804:TOOL/cJSON.c  **** 
 5902              		.loc 1 1804 1 view .LVU1757
 5903 0008 08BD     		pop	{r3, pc}
 5904              		.cfi_endproc
 5905              	.LFE109:
 5907              		.section	.text.cJSON_HasObjectItem,"ax",%progbits
 5908              		.align	1
 5909              		.global	cJSON_HasObjectItem
 5910              		.syntax unified
 5911              		.thumb
ARM GAS  /var/folders/ww/n4ctlbrs3x70633t9y2ks63c0000gn/T//ccTX1xk7.s 			page 162


 5912              		.thumb_func
 5913              		.fpu softvfp
 5915              	cJSON_HasObjectItem:
 5916              	.LVL555:
 5917              	.LFB110:
1807:TOOL/cJSON.c  ****     return cJSON_GetObjectItem(object, string) ? 1 : 0;
 5918              		.loc 1 1807 1 is_stmt 1 view -0
 5919              		.cfi_startproc
 5920              		@ args = 0, pretend = 0, frame = 0
 5921              		@ frame_needed = 0, uses_anonymous_args = 0
1807:TOOL/cJSON.c  ****     return cJSON_GetObjectItem(object, string) ? 1 : 0;
 5922              		.loc 1 1807 1 is_stmt 0 view .LVU1759
 5923 0000 08B5     		push	{r3, lr}
 5924              	.LCFI73:
 5925              		.cfi_def_cfa_offset 8
 5926              		.cfi_offset 3, -8
 5927              		.cfi_offset 14, -4
1808:TOOL/cJSON.c  **** }
 5928              		.loc 1 1808 5 is_stmt 1 view .LVU1760
1808:TOOL/cJSON.c  **** }
 5929              		.loc 1 1808 12 is_stmt 0 view .LVU1761
 5930 0002 FFF7FEFF 		bl	cJSON_GetObjectItem
 5931              	.LVL556:
1809:TOOL/cJSON.c  **** 
 5932              		.loc 1 1809 1 view .LVU1762
 5933 0006 0030     		adds	r0, r0, #0
 5934 0008 18BF     		it	ne
 5935 000a 0120     		movne	r0, #1
 5936 000c 08BD     		pop	{r3, pc}
 5937              		.cfi_endproc
 5938              	.LFE110:
 5940              		.section	.text.cJSON_AddItemToArray,"ax",%progbits
 5941              		.align	1
 5942              		.global	cJSON_AddItemToArray
 5943              		.syntax unified
 5944              		.thumb
 5945              		.thumb_func
 5946              		.fpu softvfp
 5948              	cJSON_AddItemToArray:
 5949              	.LVL557:
 5950              	.LFB113:
1839:TOOL/cJSON.c  **** 
1840:TOOL/cJSON.c  **** ///* Add item to array/object. */
1841:TOOL/cJSON.c  **** //CJSON_PUBLIC(void) cJSON_AddItemToArray(cJSON *array, cJSON *item)
1842:TOOL/cJSON.c  **** //{
1843:TOOL/cJSON.c  **** //    cJSON *child = NULL;
1844:TOOL/cJSON.c  **** 
1845:TOOL/cJSON.c  **** //    if ((item == NULL) || (array == NULL))
1846:TOOL/cJSON.c  **** //    {
1847:TOOL/cJSON.c  **** //        return;
1848:TOOL/cJSON.c  **** //    }
1849:TOOL/cJSON.c  **** 
1850:TOOL/cJSON.c  **** //    child = array->child;
1851:TOOL/cJSON.c  **** 
1852:TOOL/cJSON.c  **** //    if (child == NULL)
1853:TOOL/cJSON.c  **** //    {
1854:TOOL/cJSON.c  **** //        /* list is empty, start new one */
ARM GAS  /var/folders/ww/n4ctlbrs3x70633t9y2ks63c0000gn/T//ccTX1xk7.s 			page 163


1855:TOOL/cJSON.c  **** //        array->child = item;
1856:TOOL/cJSON.c  **** //    }
1857:TOOL/cJSON.c  **** //    else
1858:TOOL/cJSON.c  **** //    {
1859:TOOL/cJSON.c  **** //        /* append to the end */
1860:TOOL/cJSON.c  **** //        while (child->next)
1861:TOOL/cJSON.c  **** //        {
1862:TOOL/cJSON.c  **** //            child = child->next;
1863:TOOL/cJSON.c  **** //        }
1864:TOOL/cJSON.c  **** //        suffix_object(child, item);
1865:TOOL/cJSON.c  **** //    }
1866:TOOL/cJSON.c  **** //}
1867:TOOL/cJSON.c  **** 
1868:TOOL/cJSON.c  **** /* Add item to array/object. */
1869:TOOL/cJSON.c  **** CJSON_PUBLIC(void) cJSON_AddItemToArray(cJSON *array, cJSON *item)
1870:TOOL/cJSON.c  **** {
 5951              		.loc 1 1870 1 is_stmt 1 view -0
 5952              		.cfi_startproc
 5953              		@ args = 0, pretend = 0, frame = 0
 5954              		@ frame_needed = 0, uses_anonymous_args = 0
 5955              		@ link register save eliminated.
1871:TOOL/cJSON.c  **** 	cJSON * c = array->child;
 5956              		.loc 1 1871 2 view .LVU1764
 5957              		.loc 1 1871 10 is_stmt 0 view .LVU1765
 5958 0000 8268     		ldr	r2, [r0, #8]
 5959              	.LVL558:
1872:TOOL/cJSON.c  ****     if(!item)
 5960              		.loc 1 1872 5 is_stmt 1 view .LVU1766
 5961              		.loc 1 1872 7 is_stmt 0 view .LVU1767
 5962 0002 0B46     		mov	r3, r1
 5963 0004 21B1     		cbz	r1, .L488
1873:TOOL/cJSON.c  ****     {
1874:TOOL/cJSON.c  ****         return ;
1875:TOOL/cJSON.c  ****     }
1876:TOOL/cJSON.c  ****     if(!c)
 5964              		.loc 1 1876 5 is_stmt 1 view .LVU1768
 5965              		.loc 1 1876 7 is_stmt 0 view .LVU1769
 5966 0006 22B1     		cbz	r2, .L491
1877:TOOL/cJSON.c  ****     {
1878:TOOL/cJSON.c  ****         array->child = item;
1879:TOOL/cJSON.c  ****         array->child->last = item;
1880:TOOL/cJSON.c  ****     }
1881:TOOL/cJSON.c  ****     else
1882:TOOL/cJSON.c  ****     {
1883:TOOL/cJSON.c  ****         array->child->last->next = item;
 5967              		.loc 1 1883 9 is_stmt 1 view .LVU1770
 5968              		.loc 1 1883 21 is_stmt 0 view .LVU1771
 5969 0008 526A     		ldr	r2, [r2, #36]
 5970              	.LVL559:
 5971              		.loc 1 1883 34 view .LVU1772
 5972 000a 1160     		str	r1, [r2]
 5973              	.LVL560:
1884:TOOL/cJSON.c  ****         array->child->last = item;
 5974              		.loc 1 1884 9 is_stmt 1 view .LVU1773
 5975              		.loc 1 1884 14 is_stmt 0 view .LVU1774
 5976 000c 8268     		ldr	r2, [r0, #8]
 5977              		.loc 1 1884 28 view .LVU1775
ARM GAS  /var/folders/ww/n4ctlbrs3x70633t9y2ks63c0000gn/T//ccTX1xk7.s 			page 164


 5978 000e 5162     		str	r1, [r2, #36]
1885:TOOL/cJSON.c  ****         item = NULL;
 5979              		.loc 1 1885 9 is_stmt 1 view .LVU1776
 5980              	.LVL561:
 5981              	.L488:
1886:TOOL/cJSON.c  ****     }
1887:TOOL/cJSON.c  **** }
 5982              		.loc 1 1887 1 is_stmt 0 view .LVU1777
 5983 0010 7047     		bx	lr
 5984              	.LVL562:
 5985              	.L491:
1878:TOOL/cJSON.c  ****         array->child->last = item;
 5986              		.loc 1 1878 9 is_stmt 1 view .LVU1778
1878:TOOL/cJSON.c  ****         array->child->last = item;
 5987              		.loc 1 1878 22 is_stmt 0 view .LVU1779
 5988 0012 8160     		str	r1, [r0, #8]
1879:TOOL/cJSON.c  ****     }
 5989              		.loc 1 1879 9 is_stmt 1 view .LVU1780
1879:TOOL/cJSON.c  ****     }
 5990              		.loc 1 1879 28 is_stmt 0 view .LVU1781
 5991 0014 5962     		str	r1, [r3, #36]
 5992 0016 7047     		bx	lr
 5993              		.cfi_endproc
 5994              	.LFE113:
 5996              		.section	.text.cJSON_AddItemToObjectCS,"ax",%progbits
 5997              		.align	1
 5998              		.global	cJSON_AddItemToObjectCS
 5999              		.syntax unified
 6000              		.thumb
 6001              		.thumb_func
 6002              		.fpu softvfp
 6004              	cJSON_AddItemToObjectCS:
 6005              	.LVL563:
 6006              	.LFB115:
1888:TOOL/cJSON.c  **** 
1889:TOOL/cJSON.c  **** CJSON_PUBLIC(void) cJSON_AddItemToObject(cJSON *object, const char *string, cJSON *item)
1890:TOOL/cJSON.c  **** {
1891:TOOL/cJSON.c  ****     if (item == NULL)
1892:TOOL/cJSON.c  ****     {
1893:TOOL/cJSON.c  ****         return;
1894:TOOL/cJSON.c  ****     }
1895:TOOL/cJSON.c  **** 
1896:TOOL/cJSON.c  ****     /* call cJSON_AddItemToObjectCS for code reuse */
1897:TOOL/cJSON.c  ****     cJSON_AddItemToObjectCS(object, (char*)cJSON_strdup((const unsigned char*)string, &global_hooks
1898:TOOL/cJSON.c  ****     /* remove cJSON_StringIsConst flag */
1899:TOOL/cJSON.c  ****     item->type &= ~cJSON_StringIsConst;
1900:TOOL/cJSON.c  **** }
1901:TOOL/cJSON.c  **** 
1902:TOOL/cJSON.c  **** 
1903:TOOL/cJSON.c  **** /* Add an item to an object with constant string as key */
1904:TOOL/cJSON.c  **** CJSON_PUBLIC(void) cJSON_AddItemToObjectCS(cJSON *object, const char *string, cJSON *item)
1905:TOOL/cJSON.c  **** {
 6007              		.loc 1 1905 1 is_stmt 1 view -0
 6008              		.cfi_startproc
 6009              		@ args = 0, pretend = 0, frame = 0
 6010              		@ frame_needed = 0, uses_anonymous_args = 0
1906:TOOL/cJSON.c  ****     if ((item == NULL) || (string == NULL))
ARM GAS  /var/folders/ww/n4ctlbrs3x70633t9y2ks63c0000gn/T//ccTX1xk7.s 			page 165


 6011              		.loc 1 1906 5 view .LVU1783
 6012              		.loc 1 1906 8 is_stmt 0 view .LVU1784
 6013 0000 BAB1     		cbz	r2, .L496
1905:TOOL/cJSON.c  ****     if ((item == NULL) || (string == NULL))
 6014              		.loc 1 1905 1 discriminator 1 view .LVU1785
 6015 0002 70B5     		push	{r4, r5, r6, lr}
 6016              	.LCFI74:
 6017              		.cfi_def_cfa_offset 16
 6018              		.cfi_offset 4, -16
 6019              		.cfi_offset 5, -12
 6020              		.cfi_offset 6, -8
 6021              		.cfi_offset 14, -4
 6022 0004 1446     		mov	r4, r2
 6023              		.loc 1 1906 24 discriminator 1 view .LVU1786
 6024 0006 99B1     		cbz	r1, .L492
 6025 0008 0D46     		mov	r5, r1
 6026 000a 0646     		mov	r6, r0
1907:TOOL/cJSON.c  ****     {
1908:TOOL/cJSON.c  ****         return;
1909:TOOL/cJSON.c  ****     }
1910:TOOL/cJSON.c  ****     if (!(item->type & cJSON_StringIsConst) && item->string)
 6027              		.loc 1 1910 5 is_stmt 1 view .LVU1787
 6028              		.loc 1 1910 15 is_stmt 0 view .LVU1788
 6029 000c D368     		ldr	r3, [r2, #12]
 6030              		.loc 1 1910 8 view .LVU1789
 6031 000e 13F4007F 		tst	r3, #512
 6032 0012 04D1     		bne	.L494
 6033              		.loc 1 1910 52 discriminator 1 view .LVU1790
 6034 0014 106A     		ldr	r0, [r2, #32]
 6035              	.LVL564:
 6036              		.loc 1 1910 45 discriminator 1 view .LVU1791
 6037 0016 10B1     		cbz	r0, .L494
1911:TOOL/cJSON.c  ****     {
1912:TOOL/cJSON.c  ****         global_hooks.deallocate(item->string);
 6038              		.loc 1 1912 9 is_stmt 1 view .LVU1792
 6039              		.loc 1 1912 21 is_stmt 0 view .LVU1793
 6040 0018 064B     		ldr	r3, .L499
 6041 001a 5B68     		ldr	r3, [r3, #4]
 6042              		.loc 1 1912 9 view .LVU1794
 6043 001c 9847     		blx	r3
 6044              	.LVL565:
 6045              	.L494:
1913:TOOL/cJSON.c  ****     }
1914:TOOL/cJSON.c  ****     item->string = (char*)string;
 6046              		.loc 1 1914 5 is_stmt 1 view .LVU1795
 6047              		.loc 1 1914 18 is_stmt 0 view .LVU1796
 6048 001e 2562     		str	r5, [r4, #32]
1915:TOOL/cJSON.c  ****     item->type |= cJSON_StringIsConst;
 6049              		.loc 1 1915 5 is_stmt 1 view .LVU1797
 6050              		.loc 1 1915 16 is_stmt 0 view .LVU1798
 6051 0020 E368     		ldr	r3, [r4, #12]
 6052 0022 43F40073 		orr	r3, r3, #512
 6053 0026 E360     		str	r3, [r4, #12]
1916:TOOL/cJSON.c  ****     cJSON_AddItemToArray(object, item);
 6054              		.loc 1 1916 5 is_stmt 1 view .LVU1799
 6055 0028 2146     		mov	r1, r4
 6056 002a 3046     		mov	r0, r6
ARM GAS  /var/folders/ww/n4ctlbrs3x70633t9y2ks63c0000gn/T//ccTX1xk7.s 			page 166


 6057 002c FFF7FEFF 		bl	cJSON_AddItemToArray
 6058              	.LVL566:
 6059              	.L492:
1917:TOOL/cJSON.c  **** }
 6060              		.loc 1 1917 1 is_stmt 0 view .LVU1800
 6061 0030 70BD     		pop	{r4, r5, r6, pc}
 6062              	.LVL567:
 6063              	.L496:
 6064              	.LCFI75:
 6065              		.cfi_def_cfa_offset 0
 6066              		.cfi_restore 4
 6067              		.cfi_restore 5
 6068              		.cfi_restore 6
 6069              		.cfi_restore 14
 6070              		.loc 1 1917 1 view .LVU1801
 6071 0032 7047     		bx	lr
 6072              	.L500:
 6073              		.align	2
 6074              	.L499:
 6075 0034 00000000 		.word	.LANCHOR2
 6076              		.cfi_endproc
 6077              	.LFE115:
 6079              		.section	.text.cJSON_AddItemToObject,"ax",%progbits
 6080              		.align	1
 6081              		.global	cJSON_AddItemToObject
 6082              		.syntax unified
 6083              		.thumb
 6084              		.thumb_func
 6085              		.fpu softvfp
 6087              	cJSON_AddItemToObject:
 6088              	.LVL568:
 6089              	.LFB114:
1890:TOOL/cJSON.c  ****     if (item == NULL)
 6090              		.loc 1 1890 1 is_stmt 1 view -0
 6091              		.cfi_startproc
 6092              		@ args = 0, pretend = 0, frame = 0
 6093              		@ frame_needed = 0, uses_anonymous_args = 0
1891:TOOL/cJSON.c  ****     {
 6094              		.loc 1 1891 5 view .LVU1803
1891:TOOL/cJSON.c  ****     {
 6095              		.loc 1 1891 8 is_stmt 0 view .LVU1804
 6096 0000 8AB1     		cbz	r2, .L504
1890:TOOL/cJSON.c  ****     if (item == NULL)
 6097              		.loc 1 1890 1 view .LVU1805
 6098 0002 38B5     		push	{r3, r4, r5, lr}
 6099              	.LCFI76:
 6100              		.cfi_def_cfa_offset 16
 6101              		.cfi_offset 3, -16
 6102              		.cfi_offset 4, -12
 6103              		.cfi_offset 5, -8
 6104              		.cfi_offset 14, -4
 6105 0004 1446     		mov	r4, r2
 6106 0006 0B46     		mov	r3, r1
 6107 0008 0546     		mov	r5, r0
1897:TOOL/cJSON.c  ****     /* remove cJSON_StringIsConst flag */
 6108              		.loc 1 1897 5 is_stmt 1 view .LVU1806
1897:TOOL/cJSON.c  ****     /* remove cJSON_StringIsConst flag */
ARM GAS  /var/folders/ww/n4ctlbrs3x70633t9y2ks63c0000gn/T//ccTX1xk7.s 			page 167


 6109              		.loc 1 1897 44 is_stmt 0 view .LVU1807
 6110 000a 0749     		ldr	r1, .L507
 6111              	.LVL569:
1897:TOOL/cJSON.c  ****     /* remove cJSON_StringIsConst flag */
 6112              		.loc 1 1897 44 view .LVU1808
 6113 000c 1846     		mov	r0, r3
 6114              	.LVL570:
1897:TOOL/cJSON.c  ****     /* remove cJSON_StringIsConst flag */
 6115              		.loc 1 1897 44 view .LVU1809
 6116 000e FFF7FEFF 		bl	cJSON_strdup
 6117              	.LVL571:
1897:TOOL/cJSON.c  ****     /* remove cJSON_StringIsConst flag */
 6118              		.loc 1 1897 5 view .LVU1810
 6119 0012 2246     		mov	r2, r4
 6120 0014 0146     		mov	r1, r0
 6121 0016 2846     		mov	r0, r5
 6122 0018 FFF7FEFF 		bl	cJSON_AddItemToObjectCS
 6123              	.LVL572:
1899:TOOL/cJSON.c  **** }
 6124              		.loc 1 1899 5 is_stmt 1 view .LVU1811
1899:TOOL/cJSON.c  **** }
 6125              		.loc 1 1899 16 is_stmt 0 view .LVU1812
 6126 001c E368     		ldr	r3, [r4, #12]
 6127 001e 23F40073 		bic	r3, r3, #512
 6128 0022 E360     		str	r3, [r4, #12]
1900:TOOL/cJSON.c  **** 
 6129              		.loc 1 1900 1 view .LVU1813
 6130 0024 38BD     		pop	{r3, r4, r5, pc}
 6131              	.LVL573:
 6132              	.L504:
 6133              	.LCFI77:
 6134              		.cfi_def_cfa_offset 0
 6135              		.cfi_restore 3
 6136              		.cfi_restore 4
 6137              		.cfi_restore 5
 6138              		.cfi_restore 14
1900:TOOL/cJSON.c  **** 
 6139              		.loc 1 1900 1 view .LVU1814
 6140 0026 7047     		bx	lr
 6141              	.L508:
 6142              		.align	2
 6143              	.L507:
 6144 0028 00000000 		.word	.LANCHOR2
 6145              		.cfi_endproc
 6146              	.LFE114:
 6148              		.section	.text.cJSON_AddItemReferenceToArray,"ax",%progbits
 6149              		.align	1
 6150              		.global	cJSON_AddItemReferenceToArray
 6151              		.syntax unified
 6152              		.thumb
 6153              		.thumb_func
 6154              		.fpu softvfp
 6156              	cJSON_AddItemReferenceToArray:
 6157              	.LVL574:
 6158              	.LFB116:
1918:TOOL/cJSON.c  **** 
1919:TOOL/cJSON.c  **** CJSON_PUBLIC(void) cJSON_AddItemReferenceToArray(cJSON *array, cJSON *item)
ARM GAS  /var/folders/ww/n4ctlbrs3x70633t9y2ks63c0000gn/T//ccTX1xk7.s 			page 168


1920:TOOL/cJSON.c  **** {
 6159              		.loc 1 1920 1 is_stmt 1 view -0
 6160              		.cfi_startproc
 6161              		@ args = 0, pretend = 0, frame = 0
 6162              		@ frame_needed = 0, uses_anonymous_args = 0
1921:TOOL/cJSON.c  ****     if (array == NULL)
 6163              		.loc 1 1921 5 view .LVU1816
 6164              		.loc 1 1921 8 is_stmt 0 view .LVU1817
 6165 0000 50B1     		cbz	r0, .L512
1920:TOOL/cJSON.c  ****     if (array == NULL)
 6166              		.loc 1 1920 1 view .LVU1818
 6167 0002 10B5     		push	{r4, lr}
 6168              	.LCFI78:
 6169              		.cfi_def_cfa_offset 8
 6170              		.cfi_offset 4, -8
 6171              		.cfi_offset 14, -4
 6172 0004 0446     		mov	r4, r0
 6173 0006 0846     		mov	r0, r1
 6174              	.LVL575:
1922:TOOL/cJSON.c  ****     {
1923:TOOL/cJSON.c  ****         return;
1924:TOOL/cJSON.c  ****     }
1925:TOOL/cJSON.c  **** 
1926:TOOL/cJSON.c  ****     cJSON_AddItemToArray(array, create_reference(item, &global_hooks));
 6175              		.loc 1 1926 5 is_stmt 1 view .LVU1819
 6176 0008 0449     		ldr	r1, .L515
 6177              	.LVL576:
 6178              		.loc 1 1926 5 is_stmt 0 view .LVU1820
 6179 000a FFF7FEFF 		bl	create_reference
 6180              	.LVL577:
 6181              		.loc 1 1926 5 view .LVU1821
 6182 000e 0146     		mov	r1, r0
 6183 0010 2046     		mov	r0, r4
 6184 0012 FFF7FEFF 		bl	cJSON_AddItemToArray
 6185              	.LVL578:
1927:TOOL/cJSON.c  **** }
 6186              		.loc 1 1927 1 view .LVU1822
 6187 0016 10BD     		pop	{r4, pc}
 6188              	.LVL579:
 6189              	.L512:
 6190              	.LCFI79:
 6191              		.cfi_def_cfa_offset 0
 6192              		.cfi_restore 4
 6193              		.cfi_restore 14
 6194              		.loc 1 1927 1 view .LVU1823
 6195 0018 7047     		bx	lr
 6196              	.L516:
 6197 001a 00BF     		.align	2
 6198              	.L515:
 6199 001c 00000000 		.word	.LANCHOR2
 6200              		.cfi_endproc
 6201              	.LFE116:
 6203              		.section	.text.cJSON_AddItemReferenceToObject,"ax",%progbits
 6204              		.align	1
 6205              		.global	cJSON_AddItemReferenceToObject
 6206              		.syntax unified
 6207              		.thumb
ARM GAS  /var/folders/ww/n4ctlbrs3x70633t9y2ks63c0000gn/T//ccTX1xk7.s 			page 169


 6208              		.thumb_func
 6209              		.fpu softvfp
 6211              	cJSON_AddItemReferenceToObject:
 6212              	.LVL580:
 6213              	.LFB117:
1928:TOOL/cJSON.c  **** 
1929:TOOL/cJSON.c  **** CJSON_PUBLIC(void) cJSON_AddItemReferenceToObject(cJSON *object, const char *string, cJSON *item)
1930:TOOL/cJSON.c  **** {
 6214              		.loc 1 1930 1 is_stmt 1 view -0
 6215              		.cfi_startproc
 6216              		@ args = 0, pretend = 0, frame = 0
 6217              		@ frame_needed = 0, uses_anonymous_args = 0
1931:TOOL/cJSON.c  ****     if ((object == NULL) || (string == NULL))
 6218              		.loc 1 1931 5 view .LVU1825
 6219              		.loc 1 1931 8 is_stmt 0 view .LVU1826
 6220 0000 68B1     		cbz	r0, .L520
1930:TOOL/cJSON.c  ****     if ((object == NULL) || (string == NULL))
 6221              		.loc 1 1930 1 discriminator 1 view .LVU1827
 6222 0002 38B5     		push	{r3, r4, r5, lr}
 6223              	.LCFI80:
 6224              		.cfi_def_cfa_offset 16
 6225              		.cfi_offset 3, -16
 6226              		.cfi_offset 4, -12
 6227              		.cfi_offset 5, -8
 6228              		.cfi_offset 14, -4
 6229 0004 0546     		mov	r5, r0
 6230              		.loc 1 1931 26 discriminator 1 view .LVU1828
 6231 0006 49B1     		cbz	r1, .L517
 6232 0008 1046     		mov	r0, r2
 6233              	.LVL581:
 6234              		.loc 1 1931 26 discriminator 1 view .LVU1829
 6235 000a 0C46     		mov	r4, r1
1932:TOOL/cJSON.c  ****     {
1933:TOOL/cJSON.c  ****         return;
1934:TOOL/cJSON.c  ****     }
1935:TOOL/cJSON.c  **** 
1936:TOOL/cJSON.c  ****     cJSON_AddItemToObject(object, string, create_reference(item, &global_hooks));
 6236              		.loc 1 1936 5 is_stmt 1 view .LVU1830
 6237 000c 0449     		ldr	r1, .L523
 6238              	.LVL582:
 6239              		.loc 1 1936 5 is_stmt 0 view .LVU1831
 6240 000e FFF7FEFF 		bl	create_reference
 6241              	.LVL583:
 6242              		.loc 1 1936 5 view .LVU1832
 6243 0012 0246     		mov	r2, r0
 6244 0014 2146     		mov	r1, r4
 6245 0016 2846     		mov	r0, r5
 6246 0018 FFF7FEFF 		bl	cJSON_AddItemToObject
 6247              	.LVL584:
 6248              	.L517:
1937:TOOL/cJSON.c  **** }
 6249              		.loc 1 1937 1 view .LVU1833
 6250 001c 38BD     		pop	{r3, r4, r5, pc}
 6251              	.LVL585:
 6252              	.L520:
 6253              	.LCFI81:
 6254              		.cfi_def_cfa_offset 0
ARM GAS  /var/folders/ww/n4ctlbrs3x70633t9y2ks63c0000gn/T//ccTX1xk7.s 			page 170


 6255              		.cfi_restore 3
 6256              		.cfi_restore 4
 6257              		.cfi_restore 5
 6258              		.cfi_restore 14
 6259              		.loc 1 1937 1 view .LVU1834
 6260 001e 7047     		bx	lr
 6261              	.L524:
 6262              		.align	2
 6263              	.L523:
 6264 0020 00000000 		.word	.LANCHOR2
 6265              		.cfi_endproc
 6266              	.LFE117:
 6268              		.section	.text.cJSON_DetachItemViaPointer,"ax",%progbits
 6269              		.align	1
 6270              		.global	cJSON_DetachItemViaPointer
 6271              		.syntax unified
 6272              		.thumb
 6273              		.thumb_func
 6274              		.fpu softvfp
 6276              	cJSON_DetachItemViaPointer:
 6277              	.LVL586:
 6278              	.LFB118:
1938:TOOL/cJSON.c  **** 
1939:TOOL/cJSON.c  **** CJSON_PUBLIC(cJSON *) cJSON_DetachItemViaPointer(cJSON *parent, cJSON * const item)
1940:TOOL/cJSON.c  **** {
 6279              		.loc 1 1940 1 is_stmt 1 view -0
 6280              		.cfi_startproc
 6281              		@ args = 0, pretend = 0, frame = 0
 6282              		@ frame_needed = 0, uses_anonymous_args = 0
 6283              		@ link register save eliminated.
1941:TOOL/cJSON.c  ****     if ((parent == NULL) || (item == NULL))
 6284              		.loc 1 1941 5 view .LVU1836
 6285              		.loc 1 1941 8 is_stmt 0 view .LVU1837
 6286 0000 0246     		mov	r2, r0
 6287 0002 98B1     		cbz	r0, .L530
 6288              		.loc 1 1941 26 discriminator 1 view .LVU1838
 6289 0004 99B1     		cbz	r1, .L531
1942:TOOL/cJSON.c  ****     {
1943:TOOL/cJSON.c  ****         return NULL;
1944:TOOL/cJSON.c  ****     }
1945:TOOL/cJSON.c  **** 
1946:TOOL/cJSON.c  ****     if (item->prev != NULL)
 6290              		.loc 1 1946 5 is_stmt 1 view .LVU1839
 6291              		.loc 1 1946 13 is_stmt 0 view .LVU1840
 6292 0006 4B68     		ldr	r3, [r1, #4]
 6293              		.loc 1 1946 8 view .LVU1841
 6294 0008 0BB1     		cbz	r3, .L527
1947:TOOL/cJSON.c  ****     {
1948:TOOL/cJSON.c  ****         /* not the first element */
1949:TOOL/cJSON.c  ****         item->prev->next = item->next;
 6295              		.loc 1 1949 9 is_stmt 1 view .LVU1842
 6296              		.loc 1 1949 32 is_stmt 0 view .LVU1843
 6297 000a 0868     		ldr	r0, [r1]
 6298              	.LVL587:
 6299              		.loc 1 1949 26 view .LVU1844
 6300 000c 1860     		str	r0, [r3]
 6301              	.L527:
ARM GAS  /var/folders/ww/n4ctlbrs3x70633t9y2ks63c0000gn/T//ccTX1xk7.s 			page 171


1950:TOOL/cJSON.c  ****     }
1951:TOOL/cJSON.c  ****     if (item->next != NULL)
 6302              		.loc 1 1951 5 is_stmt 1 view .LVU1845
 6303              		.loc 1 1951 13 is_stmt 0 view .LVU1846
 6304 000e 0B68     		ldr	r3, [r1]
 6305              		.loc 1 1951 8 view .LVU1847
 6306 0010 0BB1     		cbz	r3, .L528
1952:TOOL/cJSON.c  ****     {
1953:TOOL/cJSON.c  ****         /* not the last element */
1954:TOOL/cJSON.c  ****         item->next->prev = item->prev;
 6307              		.loc 1 1954 9 is_stmt 1 view .LVU1848
 6308              		.loc 1 1954 32 is_stmt 0 view .LVU1849
 6309 0012 4868     		ldr	r0, [r1, #4]
 6310              		.loc 1 1954 26 view .LVU1850
 6311 0014 5860     		str	r0, [r3, #4]
 6312              	.L528:
1955:TOOL/cJSON.c  ****     }
1956:TOOL/cJSON.c  **** 
1957:TOOL/cJSON.c  ****     if (item == parent->child)
 6313              		.loc 1 1957 5 is_stmt 1 view .LVU1851
 6314              		.loc 1 1957 23 is_stmt 0 view .LVU1852
 6315 0016 9368     		ldr	r3, [r2, #8]
 6316              		.loc 1 1957 8 view .LVU1853
 6317 0018 8B42     		cmp	r3, r1
 6318 001a 04D0     		beq	.L532
 6319              	.L529:
1958:TOOL/cJSON.c  ****     {
1959:TOOL/cJSON.c  ****         /* first element */
1960:TOOL/cJSON.c  ****         parent->child = item->next;
1961:TOOL/cJSON.c  ****     }
1962:TOOL/cJSON.c  ****     /* make sure the detached item doesn't point anywhere anymore */
1963:TOOL/cJSON.c  ****     item->prev = NULL;
 6320              		.loc 1 1963 5 is_stmt 1 view .LVU1854
 6321              		.loc 1 1963 16 is_stmt 0 view .LVU1855
 6322 001c 0023     		movs	r3, #0
 6323 001e 4B60     		str	r3, [r1, #4]
1964:TOOL/cJSON.c  ****     item->next = NULL;
 6324              		.loc 1 1964 5 is_stmt 1 view .LVU1856
 6325              		.loc 1 1964 16 is_stmt 0 view .LVU1857
 6326 0020 0B60     		str	r3, [r1]
1965:TOOL/cJSON.c  **** 
1966:TOOL/cJSON.c  ****     return item;
 6327              		.loc 1 1966 5 is_stmt 1 view .LVU1858
 6328              		.loc 1 1966 12 is_stmt 0 view .LVU1859
 6329 0022 0846     		mov	r0, r1
 6330 0024 7047     		bx	lr
 6331              	.L532:
1960:TOOL/cJSON.c  ****     }
 6332              		.loc 1 1960 9 is_stmt 1 view .LVU1860
1960:TOOL/cJSON.c  ****     }
 6333              		.loc 1 1960 29 is_stmt 0 view .LVU1861
 6334 0026 0B68     		ldr	r3, [r1]
1960:TOOL/cJSON.c  ****     }
 6335              		.loc 1 1960 23 view .LVU1862
 6336 0028 9360     		str	r3, [r2, #8]
 6337 002a F7E7     		b	.L529
 6338              	.LVL588:
ARM GAS  /var/folders/ww/n4ctlbrs3x70633t9y2ks63c0000gn/T//ccTX1xk7.s 			page 172


 6339              	.L530:
1960:TOOL/cJSON.c  ****     }
 6340              		.loc 1 1960 23 view .LVU1863
 6341 002c 7047     		bx	lr
 6342              	.L531:
1943:TOOL/cJSON.c  ****     }
 6343              		.loc 1 1943 16 view .LVU1864
 6344 002e 0846     		mov	r0, r1
 6345              	.LVL589:
1967:TOOL/cJSON.c  **** }
 6346              		.loc 1 1967 1 view .LVU1865
 6347 0030 7047     		bx	lr
 6348              		.cfi_endproc
 6349              	.LFE118:
 6351              		.section	.text.cJSON_DetachItemFromArray,"ax",%progbits
 6352              		.align	1
 6353              		.global	cJSON_DetachItemFromArray
 6354              		.syntax unified
 6355              		.thumb
 6356              		.thumb_func
 6357              		.fpu softvfp
 6359              	cJSON_DetachItemFromArray:
 6360              	.LVL590:
 6361              	.LFB119:
1968:TOOL/cJSON.c  **** 
1969:TOOL/cJSON.c  **** CJSON_PUBLIC(cJSON *) cJSON_DetachItemFromArray(cJSON *array, int which)
1970:TOOL/cJSON.c  **** {
 6362              		.loc 1 1970 1 is_stmt 1 view -0
 6363              		.cfi_startproc
 6364              		@ args = 0, pretend = 0, frame = 0
 6365              		@ frame_needed = 0, uses_anonymous_args = 0
1971:TOOL/cJSON.c  ****     if (which < 0)
 6366              		.loc 1 1971 5 view .LVU1867
 6367              		.loc 1 1971 8 is_stmt 0 view .LVU1868
 6368 0000 0029     		cmp	r1, #0
 6369              		.loc 1 1971 8 view .LVU1869
 6370 0002 08DB     		blt	.L535
1970:TOOL/cJSON.c  ****     if (which < 0)
 6371              		.loc 1 1970 1 view .LVU1870
 6372 0004 10B5     		push	{r4, lr}
 6373              	.LCFI82:
 6374              		.cfi_def_cfa_offset 8
 6375              		.cfi_offset 4, -8
 6376              		.cfi_offset 14, -4
 6377 0006 0446     		mov	r4, r0
1972:TOOL/cJSON.c  ****     {
1973:TOOL/cJSON.c  ****         return NULL;
1974:TOOL/cJSON.c  ****     }
1975:TOOL/cJSON.c  **** 
1976:TOOL/cJSON.c  ****     return cJSON_DetachItemViaPointer(array, get_array_item(array, (size_t)which));
 6378              		.loc 1 1976 5 is_stmt 1 view .LVU1871
 6379              		.loc 1 1976 12 is_stmt 0 view .LVU1872
 6380 0008 FFF7FEFF 		bl	get_array_item
 6381              	.LVL591:
 6382              		.loc 1 1976 12 view .LVU1873
 6383 000c 0146     		mov	r1, r0
 6384 000e 2046     		mov	r0, r4
ARM GAS  /var/folders/ww/n4ctlbrs3x70633t9y2ks63c0000gn/T//ccTX1xk7.s 			page 173


 6385 0010 FFF7FEFF 		bl	cJSON_DetachItemViaPointer
 6386              	.LVL592:
1977:TOOL/cJSON.c  **** }
 6387              		.loc 1 1977 1 view .LVU1874
 6388 0014 10BD     		pop	{r4, pc}
 6389              	.LVL593:
 6390              	.L535:
 6391              	.LCFI83:
 6392              		.cfi_def_cfa_offset 0
 6393              		.cfi_restore 4
 6394              		.cfi_restore 14
1973:TOOL/cJSON.c  ****     }
 6395              		.loc 1 1973 16 view .LVU1875
 6396 0016 0020     		movs	r0, #0
 6397              	.LVL594:
 6398              		.loc 1 1977 1 view .LVU1876
 6399 0018 7047     		bx	lr
 6400              		.cfi_endproc
 6401              	.LFE119:
 6403              		.section	.text.cJSON_DeleteItemFromArray,"ax",%progbits
 6404              		.align	1
 6405              		.global	cJSON_DeleteItemFromArray
 6406              		.syntax unified
 6407              		.thumb
 6408              		.thumb_func
 6409              		.fpu softvfp
 6411              	cJSON_DeleteItemFromArray:
 6412              	.LVL595:
 6413              	.LFB120:
1978:TOOL/cJSON.c  **** 
1979:TOOL/cJSON.c  **** CJSON_PUBLIC(void) cJSON_DeleteItemFromArray(cJSON *array, int which)
1980:TOOL/cJSON.c  **** {
 6414              		.loc 1 1980 1 is_stmt 1 view -0
 6415              		.cfi_startproc
 6416              		@ args = 0, pretend = 0, frame = 0
 6417              		@ frame_needed = 0, uses_anonymous_args = 0
 6418              		.loc 1 1980 1 is_stmt 0 view .LVU1878
 6419 0000 08B5     		push	{r3, lr}
 6420              	.LCFI84:
 6421              		.cfi_def_cfa_offset 8
 6422              		.cfi_offset 3, -8
 6423              		.cfi_offset 14, -4
1981:TOOL/cJSON.c  ****     cJSON_Delete(cJSON_DetachItemFromArray(array, which));
 6424              		.loc 1 1981 5 is_stmt 1 view .LVU1879
 6425 0002 FFF7FEFF 		bl	cJSON_DetachItemFromArray
 6426              	.LVL596:
 6427              		.loc 1 1981 5 is_stmt 0 view .LVU1880
 6428 0006 FFF7FEFF 		bl	cJSON_Delete
 6429              	.LVL597:
1982:TOOL/cJSON.c  **** }
 6430              		.loc 1 1982 1 view .LVU1881
 6431 000a 08BD     		pop	{r3, pc}
 6432              		.cfi_endproc
 6433              	.LFE120:
 6435              		.section	.text.cJSON_DetachItemFromObject,"ax",%progbits
 6436              		.align	1
 6437              		.global	cJSON_DetachItemFromObject
ARM GAS  /var/folders/ww/n4ctlbrs3x70633t9y2ks63c0000gn/T//ccTX1xk7.s 			page 174


 6438              		.syntax unified
 6439              		.thumb
 6440              		.thumb_func
 6441              		.fpu softvfp
 6443              	cJSON_DetachItemFromObject:
 6444              	.LVL598:
 6445              	.LFB121:
1983:TOOL/cJSON.c  **** 
1984:TOOL/cJSON.c  **** CJSON_PUBLIC(cJSON *) cJSON_DetachItemFromObject(cJSON *object, const char *string)
1985:TOOL/cJSON.c  **** {
 6446              		.loc 1 1985 1 is_stmt 1 view -0
 6447              		.cfi_startproc
 6448              		@ args = 0, pretend = 0, frame = 0
 6449              		@ frame_needed = 0, uses_anonymous_args = 0
 6450              		.loc 1 1985 1 is_stmt 0 view .LVU1883
 6451 0000 10B5     		push	{r4, lr}
 6452              	.LCFI85:
 6453              		.cfi_def_cfa_offset 8
 6454              		.cfi_offset 4, -8
 6455              		.cfi_offset 14, -4
 6456 0002 0446     		mov	r4, r0
1986:TOOL/cJSON.c  ****     cJSON *to_detach = cJSON_GetObjectItem(object, string);
 6457              		.loc 1 1986 5 is_stmt 1 view .LVU1884
 6458              		.loc 1 1986 24 is_stmt 0 view .LVU1885
 6459 0004 FFF7FEFF 		bl	cJSON_GetObjectItem
 6460              	.LVL599:
1987:TOOL/cJSON.c  **** 
1988:TOOL/cJSON.c  ****     return cJSON_DetachItemViaPointer(object, to_detach);
 6461              		.loc 1 1988 5 is_stmt 1 view .LVU1886
 6462              		.loc 1 1988 12 is_stmt 0 view .LVU1887
 6463 0008 0146     		mov	r1, r0
 6464 000a 2046     		mov	r0, r4
 6465              	.LVL600:
 6466              		.loc 1 1988 12 view .LVU1888
 6467 000c FFF7FEFF 		bl	cJSON_DetachItemViaPointer
 6468              	.LVL601:
1989:TOOL/cJSON.c  **** }
 6469              		.loc 1 1989 1 view .LVU1889
 6470 0010 10BD     		pop	{r4, pc}
 6471              		.loc 1 1989 1 view .LVU1890
 6472              		.cfi_endproc
 6473              	.LFE121:
 6475              		.section	.text.cJSON_DetachItemFromObjectCaseSensitive,"ax",%progbits
 6476              		.align	1
 6477              		.global	cJSON_DetachItemFromObjectCaseSensitive
 6478              		.syntax unified
 6479              		.thumb
 6480              		.thumb_func
 6481              		.fpu softvfp
 6483              	cJSON_DetachItemFromObjectCaseSensitive:
 6484              	.LVL602:
 6485              	.LFB122:
1990:TOOL/cJSON.c  **** 
1991:TOOL/cJSON.c  **** CJSON_PUBLIC(cJSON *) cJSON_DetachItemFromObjectCaseSensitive(cJSON *object, const char *string)
1992:TOOL/cJSON.c  **** {
 6486              		.loc 1 1992 1 is_stmt 1 view -0
 6487              		.cfi_startproc
ARM GAS  /var/folders/ww/n4ctlbrs3x70633t9y2ks63c0000gn/T//ccTX1xk7.s 			page 175


 6488              		@ args = 0, pretend = 0, frame = 0
 6489              		@ frame_needed = 0, uses_anonymous_args = 0
 6490              		.loc 1 1992 1 is_stmt 0 view .LVU1892
 6491 0000 10B5     		push	{r4, lr}
 6492              	.LCFI86:
 6493              		.cfi_def_cfa_offset 8
 6494              		.cfi_offset 4, -8
 6495              		.cfi_offset 14, -4
 6496 0002 0446     		mov	r4, r0
1993:TOOL/cJSON.c  ****     cJSON *to_detach = cJSON_GetObjectItemCaseSensitive(object, string);
 6497              		.loc 1 1993 5 is_stmt 1 view .LVU1893
 6498              		.loc 1 1993 24 is_stmt 0 view .LVU1894
 6499 0004 FFF7FEFF 		bl	cJSON_GetObjectItemCaseSensitive
 6500              	.LVL603:
1994:TOOL/cJSON.c  **** 
1995:TOOL/cJSON.c  ****     return cJSON_DetachItemViaPointer(object, to_detach);
 6501              		.loc 1 1995 5 is_stmt 1 view .LVU1895
 6502              		.loc 1 1995 12 is_stmt 0 view .LVU1896
 6503 0008 0146     		mov	r1, r0
 6504 000a 2046     		mov	r0, r4
 6505              	.LVL604:
 6506              		.loc 1 1995 12 view .LVU1897
 6507 000c FFF7FEFF 		bl	cJSON_DetachItemViaPointer
 6508              	.LVL605:
1996:TOOL/cJSON.c  **** }
 6509              		.loc 1 1996 1 view .LVU1898
 6510 0010 10BD     		pop	{r4, pc}
 6511              		.loc 1 1996 1 view .LVU1899
 6512              		.cfi_endproc
 6513              	.LFE122:
 6515              		.section	.text.cJSON_DeleteItemFromObject,"ax",%progbits
 6516              		.align	1
 6517              		.global	cJSON_DeleteItemFromObject
 6518              		.syntax unified
 6519              		.thumb
 6520              		.thumb_func
 6521              		.fpu softvfp
 6523              	cJSON_DeleteItemFromObject:
 6524              	.LVL606:
 6525              	.LFB123:
1997:TOOL/cJSON.c  **** 
1998:TOOL/cJSON.c  **** CJSON_PUBLIC(void) cJSON_DeleteItemFromObject(cJSON *object, const char *string)
1999:TOOL/cJSON.c  **** {
 6526              		.loc 1 1999 1 is_stmt 1 view -0
 6527              		.cfi_startproc
 6528              		@ args = 0, pretend = 0, frame = 0
 6529              		@ frame_needed = 0, uses_anonymous_args = 0
 6530              		.loc 1 1999 1 is_stmt 0 view .LVU1901
 6531 0000 08B5     		push	{r3, lr}
 6532              	.LCFI87:
 6533              		.cfi_def_cfa_offset 8
 6534              		.cfi_offset 3, -8
 6535              		.cfi_offset 14, -4
2000:TOOL/cJSON.c  ****     cJSON_Delete(cJSON_DetachItemFromObject(object, string));
 6536              		.loc 1 2000 5 is_stmt 1 view .LVU1902
 6537 0002 FFF7FEFF 		bl	cJSON_DetachItemFromObject
 6538              	.LVL607:
ARM GAS  /var/folders/ww/n4ctlbrs3x70633t9y2ks63c0000gn/T//ccTX1xk7.s 			page 176


 6539              		.loc 1 2000 5 is_stmt 0 view .LVU1903
 6540 0006 FFF7FEFF 		bl	cJSON_Delete
 6541              	.LVL608:
2001:TOOL/cJSON.c  **** }
 6542              		.loc 1 2001 1 view .LVU1904
 6543 000a 08BD     		pop	{r3, pc}
 6544              		.cfi_endproc
 6545              	.LFE123:
 6547              		.section	.text.cJSON_DeleteItemFromObjectCaseSensitive,"ax",%progbits
 6548              		.align	1
 6549              		.global	cJSON_DeleteItemFromObjectCaseSensitive
 6550              		.syntax unified
 6551              		.thumb
 6552              		.thumb_func
 6553              		.fpu softvfp
 6555              	cJSON_DeleteItemFromObjectCaseSensitive:
 6556              	.LVL609:
 6557              	.LFB124:
2002:TOOL/cJSON.c  **** 
2003:TOOL/cJSON.c  **** CJSON_PUBLIC(void) cJSON_DeleteItemFromObjectCaseSensitive(cJSON *object, const char *string)
2004:TOOL/cJSON.c  **** {
 6558              		.loc 1 2004 1 is_stmt 1 view -0
 6559              		.cfi_startproc
 6560              		@ args = 0, pretend = 0, frame = 0
 6561              		@ frame_needed = 0, uses_anonymous_args = 0
 6562              		.loc 1 2004 1 is_stmt 0 view .LVU1906
 6563 0000 08B5     		push	{r3, lr}
 6564              	.LCFI88:
 6565              		.cfi_def_cfa_offset 8
 6566              		.cfi_offset 3, -8
 6567              		.cfi_offset 14, -4
2005:TOOL/cJSON.c  ****     cJSON_Delete(cJSON_DetachItemFromObjectCaseSensitive(object, string));
 6568              		.loc 1 2005 5 is_stmt 1 view .LVU1907
 6569 0002 FFF7FEFF 		bl	cJSON_DetachItemFromObjectCaseSensitive
 6570              	.LVL610:
 6571              		.loc 1 2005 5 is_stmt 0 view .LVU1908
 6572 0006 FFF7FEFF 		bl	cJSON_Delete
 6573              	.LVL611:
2006:TOOL/cJSON.c  **** }
 6574              		.loc 1 2006 1 view .LVU1909
 6575 000a 08BD     		pop	{r3, pc}
 6576              		.cfi_endproc
 6577              	.LFE124:
 6579              		.section	.text.cJSON_InsertItemInArray,"ax",%progbits
 6580              		.align	1
 6581              		.global	cJSON_InsertItemInArray
 6582              		.syntax unified
 6583              		.thumb
 6584              		.thumb_func
 6585              		.fpu softvfp
 6587              	cJSON_InsertItemInArray:
 6588              	.LVL612:
 6589              	.LFB125:
2007:TOOL/cJSON.c  **** 
2008:TOOL/cJSON.c  **** /* Replace array/object items with new ones. */
2009:TOOL/cJSON.c  **** CJSON_PUBLIC(void) cJSON_InsertItemInArray(cJSON *array, int which, cJSON *newitem)
2010:TOOL/cJSON.c  **** {
ARM GAS  /var/folders/ww/n4ctlbrs3x70633t9y2ks63c0000gn/T//ccTX1xk7.s 			page 177


 6590              		.loc 1 2010 1 is_stmt 1 view -0
 6591              		.cfi_startproc
 6592              		@ args = 0, pretend = 0, frame = 0
 6593              		@ frame_needed = 0, uses_anonymous_args = 0
2011:TOOL/cJSON.c  ****     cJSON *after_inserted = NULL;
 6594              		.loc 1 2011 5 view .LVU1911
2012:TOOL/cJSON.c  **** 
2013:TOOL/cJSON.c  ****     if (which < 0)
 6595              		.loc 1 2013 5 view .LVU1912
 6596              		.loc 1 2013 8 is_stmt 0 view .LVU1913
 6597 0000 0029     		cmp	r1, #0
 6598              		.loc 1 2013 8 view .LVU1914
 6599 0002 16DB     		blt	.L555
2010:TOOL/cJSON.c  ****     cJSON *after_inserted = NULL;
 6600              		.loc 1 2010 1 view .LVU1915
 6601 0004 38B5     		push	{r3, r4, r5, lr}
 6602              	.LCFI89:
 6603              		.cfi_def_cfa_offset 16
 6604              		.cfi_offset 3, -16
 6605              		.cfi_offset 4, -12
 6606              		.cfi_offset 5, -8
 6607              		.cfi_offset 14, -4
 6608 0006 1446     		mov	r4, r2
 6609 0008 0546     		mov	r5, r0
2014:TOOL/cJSON.c  ****     {
2015:TOOL/cJSON.c  ****         return;
2016:TOOL/cJSON.c  ****     }
2017:TOOL/cJSON.c  **** 
2018:TOOL/cJSON.c  ****     after_inserted = get_array_item(array, (size_t)which);
 6610              		.loc 1 2018 5 is_stmt 1 view .LVU1916
 6611              		.loc 1 2018 22 is_stmt 0 view .LVU1917
 6612 000a FFF7FEFF 		bl	get_array_item
 6613              	.LVL613:
2019:TOOL/cJSON.c  ****     if (after_inserted == NULL)
 6614              		.loc 1 2019 5 is_stmt 1 view .LVU1918
 6615              		.loc 1 2019 8 is_stmt 0 view .LVU1919
 6616 000e 48B1     		cbz	r0, .L558
2020:TOOL/cJSON.c  ****     {
2021:TOOL/cJSON.c  ****         cJSON_AddItemToArray(array, newitem);
2022:TOOL/cJSON.c  ****         return;
2023:TOOL/cJSON.c  ****     }
2024:TOOL/cJSON.c  **** 
2025:TOOL/cJSON.c  ****     newitem->next = after_inserted;
 6617              		.loc 1 2025 5 is_stmt 1 view .LVU1920
 6618              		.loc 1 2025 19 is_stmt 0 view .LVU1921
 6619 0010 2060     		str	r0, [r4]
2026:TOOL/cJSON.c  ****     newitem->prev = after_inserted->prev;
 6620              		.loc 1 2026 5 is_stmt 1 view .LVU1922
 6621              		.loc 1 2026 35 is_stmt 0 view .LVU1923
 6622 0012 4268     		ldr	r2, [r0, #4]
 6623              		.loc 1 2026 19 view .LVU1924
 6624 0014 6260     		str	r2, [r4, #4]
2027:TOOL/cJSON.c  ****     after_inserted->prev = newitem;
 6625              		.loc 1 2027 5 is_stmt 1 view .LVU1925
 6626              		.loc 1 2027 26 is_stmt 0 view .LVU1926
 6627 0016 4460     		str	r4, [r0, #4]
2028:TOOL/cJSON.c  ****     if (after_inserted == array->child)
ARM GAS  /var/folders/ww/n4ctlbrs3x70633t9y2ks63c0000gn/T//ccTX1xk7.s 			page 178


 6628              		.loc 1 2028 5 is_stmt 1 view .LVU1927
 6629              		.loc 1 2028 32 is_stmt 0 view .LVU1928
 6630 0018 AA68     		ldr	r2, [r5, #8]
 6631              		.loc 1 2028 8 view .LVU1929
 6632 001a 8242     		cmp	r2, r0
 6633 001c 07D0     		beq	.L559
2029:TOOL/cJSON.c  ****     {
2030:TOOL/cJSON.c  ****         array->child = newitem;
2031:TOOL/cJSON.c  ****     }
2032:TOOL/cJSON.c  ****     else
2033:TOOL/cJSON.c  ****     {
2034:TOOL/cJSON.c  ****         newitem->prev->next = newitem;
 6634              		.loc 1 2034 9 is_stmt 1 view .LVU1930
 6635              		.loc 1 2034 16 is_stmt 0 view .LVU1931
 6636 001e 6368     		ldr	r3, [r4, #4]
 6637              		.loc 1 2034 29 view .LVU1932
 6638 0020 1C60     		str	r4, [r3]
 6639              	.LVL614:
 6640              	.L550:
2035:TOOL/cJSON.c  ****     }
2036:TOOL/cJSON.c  **** }
 6641              		.loc 1 2036 1 view .LVU1933
 6642 0022 38BD     		pop	{r3, r4, r5, pc}
 6643              	.LVL615:
 6644              	.L558:
2021:TOOL/cJSON.c  ****         return;
 6645              		.loc 1 2021 9 is_stmt 1 view .LVU1934
 6646 0024 2146     		mov	r1, r4
 6647 0026 2846     		mov	r0, r5
 6648              	.LVL616:
2021:TOOL/cJSON.c  ****         return;
 6649              		.loc 1 2021 9 is_stmt 0 view .LVU1935
 6650 0028 FFF7FEFF 		bl	cJSON_AddItemToArray
 6651              	.LVL617:
2022:TOOL/cJSON.c  ****     }
 6652              		.loc 1 2022 9 is_stmt 1 view .LVU1936
 6653 002c F9E7     		b	.L550
 6654              	.LVL618:
 6655              	.L559:
2030:TOOL/cJSON.c  ****     }
 6656              		.loc 1 2030 9 view .LVU1937
2030:TOOL/cJSON.c  ****     }
 6657              		.loc 1 2030 22 is_stmt 0 view .LVU1938
 6658 002e AC60     		str	r4, [r5, #8]
 6659 0030 F7E7     		b	.L550
 6660              	.LVL619:
 6661              	.L555:
 6662              	.LCFI90:
 6663              		.cfi_def_cfa_offset 0
 6664              		.cfi_restore 3
 6665              		.cfi_restore 4
 6666              		.cfi_restore 5
 6667              		.cfi_restore 14
2030:TOOL/cJSON.c  ****     }
 6668              		.loc 1 2030 22 view .LVU1939
 6669 0032 7047     		bx	lr
 6670              		.cfi_endproc
ARM GAS  /var/folders/ww/n4ctlbrs3x70633t9y2ks63c0000gn/T//ccTX1xk7.s 			page 179


 6671              	.LFE125:
 6673              		.section	.text.cJSON_ReplaceItemViaPointer,"ax",%progbits
 6674              		.align	1
 6675              		.global	cJSON_ReplaceItemViaPointer
 6676              		.syntax unified
 6677              		.thumb
 6678              		.thumb_func
 6679              		.fpu softvfp
 6681              	cJSON_ReplaceItemViaPointer:
 6682              	.LVL620:
 6683              	.LFB126:
2037:TOOL/cJSON.c  **** 
2038:TOOL/cJSON.c  **** CJSON_PUBLIC(cJSON_bool) cJSON_ReplaceItemViaPointer(cJSON * const parent, cJSON * const item, cJSO
2039:TOOL/cJSON.c  **** {
 6684              		.loc 1 2039 1 is_stmt 1 view -0
 6685              		.cfi_startproc
 6686              		@ args = 0, pretend = 0, frame = 0
 6687              		@ frame_needed = 0, uses_anonymous_args = 0
2040:TOOL/cJSON.c  ****     if ((parent == NULL) || (replacement == NULL) || (item == NULL))
 6688              		.loc 1 2040 5 view .LVU1941
 6689              		.loc 1 2040 8 is_stmt 0 view .LVU1942
 6690 0000 D8B1     		cbz	r0, .L565
2039:TOOL/cJSON.c  ****     if ((parent == NULL) || (replacement == NULL) || (item == NULL))
 6691              		.loc 1 2039 1 discriminator 1 view .LVU1943
 6692 0002 10B5     		push	{r4, lr}
 6693              	.LCFI91:
 6694              		.cfi_def_cfa_offset 8
 6695              		.cfi_offset 4, -8
 6696              		.cfi_offset 14, -4
 6697 0004 0446     		mov	r4, r0
 6698              		.loc 1 2040 26 discriminator 1 view .LVU1944
 6699 0006 D2B1     		cbz	r2, .L566
 6700              		.loc 1 2040 51 discriminator 2 view .LVU1945
 6701 0008 D9B1     		cbz	r1, .L567
2041:TOOL/cJSON.c  ****     {
2042:TOOL/cJSON.c  ****         return false;
2043:TOOL/cJSON.c  ****     }
2044:TOOL/cJSON.c  **** 
2045:TOOL/cJSON.c  ****     if (replacement == item)
 6702              		.loc 1 2045 5 is_stmt 1 view .LVU1946
 6703              		.loc 1 2045 8 is_stmt 0 view .LVU1947
 6704 000a 8A42     		cmp	r2, r1
 6705 000c 1BD0     		beq	.L568
2046:TOOL/cJSON.c  ****     {
2047:TOOL/cJSON.c  ****         return true;
2048:TOOL/cJSON.c  ****     }
2049:TOOL/cJSON.c  **** 
2050:TOOL/cJSON.c  ****     replacement->next = item->next;
 6706              		.loc 1 2050 5 is_stmt 1 view .LVU1948
 6707              		.loc 1 2050 29 is_stmt 0 view .LVU1949
 6708 000e 0B68     		ldr	r3, [r1]
 6709              		.loc 1 2050 23 view .LVU1950
 6710 0010 1360     		str	r3, [r2]
2051:TOOL/cJSON.c  ****     replacement->prev = item->prev;
 6711              		.loc 1 2051 5 is_stmt 1 view .LVU1951
 6712              		.loc 1 2051 29 is_stmt 0 view .LVU1952
 6713 0012 4868     		ldr	r0, [r1, #4]
ARM GAS  /var/folders/ww/n4ctlbrs3x70633t9y2ks63c0000gn/T//ccTX1xk7.s 			page 180


 6714              	.LVL621:
 6715              		.loc 1 2051 23 view .LVU1953
 6716 0014 5060     		str	r0, [r2, #4]
2052:TOOL/cJSON.c  **** 
2053:TOOL/cJSON.c  ****     if (replacement->next != NULL)
 6717              		.loc 1 2053 5 is_stmt 1 view .LVU1954
 6718              		.loc 1 2053 8 is_stmt 0 view .LVU1955
 6719 0016 03B1     		cbz	r3, .L562
2054:TOOL/cJSON.c  ****     {
2055:TOOL/cJSON.c  ****         replacement->next->prev = replacement;
 6720              		.loc 1 2055 9 is_stmt 1 view .LVU1956
 6721              		.loc 1 2055 33 is_stmt 0 view .LVU1957
 6722 0018 5A60     		str	r2, [r3, #4]
 6723              	.L562:
2056:TOOL/cJSON.c  ****     }
2057:TOOL/cJSON.c  ****     if (replacement->prev != NULL)
 6724              		.loc 1 2057 5 is_stmt 1 view .LVU1958
 6725              		.loc 1 2057 20 is_stmt 0 view .LVU1959
 6726 001a 5368     		ldr	r3, [r2, #4]
 6727              		.loc 1 2057 8 view .LVU1960
 6728 001c 03B1     		cbz	r3, .L563
2058:TOOL/cJSON.c  ****     {
2059:TOOL/cJSON.c  ****         replacement->prev->next = replacement;
 6729              		.loc 1 2059 9 is_stmt 1 view .LVU1961
 6730              		.loc 1 2059 33 is_stmt 0 view .LVU1962
 6731 001e 1A60     		str	r2, [r3]
 6732              	.L563:
2060:TOOL/cJSON.c  ****     }
2061:TOOL/cJSON.c  ****     if (parent->child == item)
 6733              		.loc 1 2061 5 is_stmt 1 view .LVU1963
 6734              		.loc 1 2061 15 is_stmt 0 view .LVU1964
 6735 0020 A368     		ldr	r3, [r4, #8]
 6736              		.loc 1 2061 8 view .LVU1965
 6737 0022 8B42     		cmp	r3, r1
 6738 0024 07D0     		beq	.L573
 6739              	.L564:
 6740 0026 0846     		mov	r0, r1
2062:TOOL/cJSON.c  ****     {
2063:TOOL/cJSON.c  ****         parent->child = replacement;
2064:TOOL/cJSON.c  ****     }
2065:TOOL/cJSON.c  **** 
2066:TOOL/cJSON.c  ****     item->next = NULL;
 6741              		.loc 1 2066 5 is_stmt 1 view .LVU1966
 6742              		.loc 1 2066 16 is_stmt 0 view .LVU1967
 6743 0028 0023     		movs	r3, #0
 6744 002a 0B60     		str	r3, [r1]
2067:TOOL/cJSON.c  ****     item->prev = NULL;
 6745              		.loc 1 2067 5 is_stmt 1 view .LVU1968
 6746              		.loc 1 2067 16 is_stmt 0 view .LVU1969
 6747 002c 4B60     		str	r3, [r1, #4]
2068:TOOL/cJSON.c  ****     cJSON_Delete(item);
 6748              		.loc 1 2068 5 is_stmt 1 view .LVU1970
 6749 002e FFF7FEFF 		bl	cJSON_Delete
 6750              	.LVL622:
2069:TOOL/cJSON.c  **** 
2070:TOOL/cJSON.c  ****     return true;
 6751              		.loc 1 2070 5 view .LVU1971
ARM GAS  /var/folders/ww/n4ctlbrs3x70633t9y2ks63c0000gn/T//ccTX1xk7.s 			page 181


 6752              		.loc 1 2070 12 is_stmt 0 view .LVU1972
 6753 0032 0120     		movs	r0, #1
 6754              	.L560:
2071:TOOL/cJSON.c  **** }
 6755              		.loc 1 2071 1 view .LVU1973
 6756 0034 10BD     		pop	{r4, pc}
 6757              	.LVL623:
 6758              	.L573:
2063:TOOL/cJSON.c  ****     }
 6759              		.loc 1 2063 9 is_stmt 1 view .LVU1974
2063:TOOL/cJSON.c  ****     }
 6760              		.loc 1 2063 23 is_stmt 0 view .LVU1975
 6761 0036 A260     		str	r2, [r4, #8]
 6762 0038 F5E7     		b	.L564
 6763              	.LVL624:
 6764              	.L565:
 6765              	.LCFI92:
 6766              		.cfi_def_cfa_offset 0
 6767              		.cfi_restore 4
 6768              		.cfi_restore 14
2042:TOOL/cJSON.c  ****     }
 6769              		.loc 1 2042 16 view .LVU1976
 6770 003a 0020     		movs	r0, #0
 6771              	.LVL625:
 6772              		.loc 1 2071 1 view .LVU1977
 6773 003c 7047     		bx	lr
 6774              	.LVL626:
 6775              	.L566:
 6776              	.LCFI93:
 6777              		.cfi_def_cfa_offset 8
 6778              		.cfi_offset 4, -8
 6779              		.cfi_offset 14, -4
2042:TOOL/cJSON.c  ****     }
 6780              		.loc 1 2042 16 view .LVU1978
 6781 003e 0020     		movs	r0, #0
 6782              	.LVL627:
2042:TOOL/cJSON.c  ****     }
 6783              		.loc 1 2042 16 view .LVU1979
 6784 0040 F8E7     		b	.L560
 6785              	.LVL628:
 6786              	.L567:
2042:TOOL/cJSON.c  ****     }
 6787              		.loc 1 2042 16 view .LVU1980
 6788 0042 0020     		movs	r0, #0
 6789              	.LVL629:
2042:TOOL/cJSON.c  ****     }
 6790              		.loc 1 2042 16 view .LVU1981
 6791 0044 F6E7     		b	.L560
 6792              	.LVL630:
 6793              	.L568:
2047:TOOL/cJSON.c  ****     }
 6794              		.loc 1 2047 16 view .LVU1982
 6795 0046 0120     		movs	r0, #1
 6796              	.LVL631:
2047:TOOL/cJSON.c  ****     }
 6797              		.loc 1 2047 16 view .LVU1983
 6798 0048 F4E7     		b	.L560
ARM GAS  /var/folders/ww/n4ctlbrs3x70633t9y2ks63c0000gn/T//ccTX1xk7.s 			page 182


 6799              		.cfi_endproc
 6800              	.LFE126:
 6802              		.section	.text.cJSON_ReplaceItemInArray,"ax",%progbits
 6803              		.align	1
 6804              		.global	cJSON_ReplaceItemInArray
 6805              		.syntax unified
 6806              		.thumb
 6807              		.thumb_func
 6808              		.fpu softvfp
 6810              	cJSON_ReplaceItemInArray:
 6811              	.LVL632:
 6812              	.LFB127:
2072:TOOL/cJSON.c  **** 
2073:TOOL/cJSON.c  **** CJSON_PUBLIC(void) cJSON_ReplaceItemInArray(cJSON *array, int which, cJSON *newitem)
2074:TOOL/cJSON.c  **** {
 6813              		.loc 1 2074 1 is_stmt 1 view -0
 6814              		.cfi_startproc
 6815              		@ args = 0, pretend = 0, frame = 0
 6816              		@ frame_needed = 0, uses_anonymous_args = 0
2075:TOOL/cJSON.c  ****     if (which < 0)
 6817              		.loc 1 2075 5 view .LVU1985
 6818              		.loc 1 2075 8 is_stmt 0 view .LVU1986
 6819 0000 0029     		cmp	r1, #0
 6820              		.loc 1 2075 8 view .LVU1987
 6821 0002 0ADB     		blt	.L577
2074:TOOL/cJSON.c  ****     if (which < 0)
 6822              		.loc 1 2074 1 view .LVU1988
 6823 0004 38B5     		push	{r3, r4, r5, lr}
 6824              	.LCFI94:
 6825              		.cfi_def_cfa_offset 16
 6826              		.cfi_offset 3, -16
 6827              		.cfi_offset 4, -12
 6828              		.cfi_offset 5, -8
 6829              		.cfi_offset 14, -4
 6830 0006 1546     		mov	r5, r2
 6831 0008 0446     		mov	r4, r0
2076:TOOL/cJSON.c  ****     {
2077:TOOL/cJSON.c  ****         return;
2078:TOOL/cJSON.c  ****     }
2079:TOOL/cJSON.c  **** 
2080:TOOL/cJSON.c  ****     cJSON_ReplaceItemViaPointer(array, get_array_item(array, (size_t)which), newitem);
 6832              		.loc 1 2080 5 is_stmt 1 view .LVU1989
 6833 000a FFF7FEFF 		bl	get_array_item
 6834              	.LVL633:
 6835              		.loc 1 2080 5 is_stmt 0 view .LVU1990
 6836 000e 2A46     		mov	r2, r5
 6837 0010 0146     		mov	r1, r0
 6838 0012 2046     		mov	r0, r4
 6839 0014 FFF7FEFF 		bl	cJSON_ReplaceItemViaPointer
 6840              	.LVL634:
2081:TOOL/cJSON.c  **** }
 6841              		.loc 1 2081 1 view .LVU1991
 6842 0018 38BD     		pop	{r3, r4, r5, pc}
 6843              	.LVL635:
 6844              	.L577:
 6845              	.LCFI95:
 6846              		.cfi_def_cfa_offset 0
ARM GAS  /var/folders/ww/n4ctlbrs3x70633t9y2ks63c0000gn/T//ccTX1xk7.s 			page 183


 6847              		.cfi_restore 3
 6848              		.cfi_restore 4
 6849              		.cfi_restore 5
 6850              		.cfi_restore 14
 6851              		.loc 1 2081 1 view .LVU1992
 6852 001a 7047     		bx	lr
 6853              		.cfi_endproc
 6854              	.LFE127:
 6856              		.section	.text.cJSON_CreateNull,"ax",%progbits
 6857              		.align	1
 6858              		.global	cJSON_CreateNull
 6859              		.syntax unified
 6860              		.thumb
 6861              		.thumb_func
 6862              		.fpu softvfp
 6864              	cJSON_CreateNull:
 6865              	.LFB131:
2082:TOOL/cJSON.c  **** 
2083:TOOL/cJSON.c  **** static cJSON_bool replace_item_in_object(cJSON *object, const char *string, cJSON *replacement, cJS
2084:TOOL/cJSON.c  **** {
2085:TOOL/cJSON.c  ****     if ((replacement == NULL) || (string == NULL))
2086:TOOL/cJSON.c  ****     {
2087:TOOL/cJSON.c  ****         return false;
2088:TOOL/cJSON.c  ****     }
2089:TOOL/cJSON.c  **** 
2090:TOOL/cJSON.c  ****     /* replace the name in the replacement */
2091:TOOL/cJSON.c  ****     if (!(replacement->type & cJSON_StringIsConst) && (replacement->string != NULL))
2092:TOOL/cJSON.c  ****     {
2093:TOOL/cJSON.c  ****         cJSON_free(replacement->string);
2094:TOOL/cJSON.c  ****     }
2095:TOOL/cJSON.c  ****     replacement->string = (char*)cJSON_strdup((const unsigned char*)string, &global_hooks);
2096:TOOL/cJSON.c  ****     replacement->type &= ~cJSON_StringIsConst;
2097:TOOL/cJSON.c  **** 
2098:TOOL/cJSON.c  ****     cJSON_ReplaceItemViaPointer(object, get_object_item(object, string, case_sensitive), replacemen
2099:TOOL/cJSON.c  **** 
2100:TOOL/cJSON.c  ****     return true;
2101:TOOL/cJSON.c  **** }
2102:TOOL/cJSON.c  **** 
2103:TOOL/cJSON.c  **** CJSON_PUBLIC(void) cJSON_ReplaceItemInObject(cJSON *object, const char *string, cJSON *newitem)
2104:TOOL/cJSON.c  **** {
2105:TOOL/cJSON.c  ****     replace_item_in_object(object, string, newitem, false);
2106:TOOL/cJSON.c  **** }
2107:TOOL/cJSON.c  **** 
2108:TOOL/cJSON.c  **** CJSON_PUBLIC(void) cJSON_ReplaceItemInObjectCaseSensitive(cJSON *object, const char *string, cJSON 
2109:TOOL/cJSON.c  **** {
2110:TOOL/cJSON.c  ****     replace_item_in_object(object, string, newitem, true);
2111:TOOL/cJSON.c  **** }
2112:TOOL/cJSON.c  **** 
2113:TOOL/cJSON.c  **** /* Create basic types: */
2114:TOOL/cJSON.c  **** CJSON_PUBLIC(cJSON *) cJSON_CreateNull(void)
2115:TOOL/cJSON.c  **** {
 6866              		.loc 1 2115 1 is_stmt 1 view -0
 6867              		.cfi_startproc
 6868              		@ args = 0, pretend = 0, frame = 0
 6869              		@ frame_needed = 0, uses_anonymous_args = 0
 6870 0000 08B5     		push	{r3, lr}
 6871              	.LCFI96:
ARM GAS  /var/folders/ww/n4ctlbrs3x70633t9y2ks63c0000gn/T//ccTX1xk7.s 			page 184


 6872              		.cfi_def_cfa_offset 8
 6873              		.cfi_offset 3, -8
 6874              		.cfi_offset 14, -4
2116:TOOL/cJSON.c  ****     cJSON *item = cJSON_New_Item(&global_hooks);
 6875              		.loc 1 2116 5 view .LVU1994
 6876              		.loc 1 2116 19 is_stmt 0 view .LVU1995
 6877 0002 0448     		ldr	r0, .L583
 6878 0004 FFF7FEFF 		bl	cJSON_New_Item
 6879              	.LVL636:
2117:TOOL/cJSON.c  ****     if(item)
 6880              		.loc 1 2117 5 is_stmt 1 view .LVU1996
 6881              		.loc 1 2117 7 is_stmt 0 view .LVU1997
 6882 0008 0346     		mov	r3, r0
 6883 000a 08B1     		cbz	r0, .L580
2118:TOOL/cJSON.c  ****     {
2119:TOOL/cJSON.c  ****         item->type = cJSON_NULL;
 6884              		.loc 1 2119 9 is_stmt 1 view .LVU1998
 6885              		.loc 1 2119 20 is_stmt 0 view .LVU1999
 6886 000c 0422     		movs	r2, #4
 6887 000e C260     		str	r2, [r0, #12]
2120:TOOL/cJSON.c  ****     }
2121:TOOL/cJSON.c  **** 
2122:TOOL/cJSON.c  ****     return item;
 6888              		.loc 1 2122 5 is_stmt 1 view .LVU2000
 6889              	.L580:
2123:TOOL/cJSON.c  **** }
 6890              		.loc 1 2123 1 is_stmt 0 view .LVU2001
 6891 0010 1846     		mov	r0, r3
 6892              	.LVL637:
 6893              		.loc 1 2123 1 view .LVU2002
 6894 0012 08BD     		pop	{r3, pc}
 6895              	.LVL638:
 6896              	.L584:
 6897              		.loc 1 2123 1 view .LVU2003
 6898              		.align	2
 6899              	.L583:
 6900 0014 00000000 		.word	.LANCHOR2
 6901              		.cfi_endproc
 6902              	.LFE131:
 6904              		.section	.text.cJSON_CreateTrue,"ax",%progbits
 6905              		.align	1
 6906              		.global	cJSON_CreateTrue
 6907              		.syntax unified
 6908              		.thumb
 6909              		.thumb_func
 6910              		.fpu softvfp
 6912              	cJSON_CreateTrue:
 6913              	.LFB132:
2124:TOOL/cJSON.c  **** 
2125:TOOL/cJSON.c  **** CJSON_PUBLIC(cJSON *) cJSON_CreateTrue(void)
2126:TOOL/cJSON.c  **** {
 6914              		.loc 1 2126 1 is_stmt 1 view -0
 6915              		.cfi_startproc
 6916              		@ args = 0, pretend = 0, frame = 0
 6917              		@ frame_needed = 0, uses_anonymous_args = 0
 6918 0000 08B5     		push	{r3, lr}
 6919              	.LCFI97:
ARM GAS  /var/folders/ww/n4ctlbrs3x70633t9y2ks63c0000gn/T//ccTX1xk7.s 			page 185


 6920              		.cfi_def_cfa_offset 8
 6921              		.cfi_offset 3, -8
 6922              		.cfi_offset 14, -4
2127:TOOL/cJSON.c  ****     cJSON *item = cJSON_New_Item(&global_hooks);
 6923              		.loc 1 2127 5 view .LVU2005
 6924              		.loc 1 2127 19 is_stmt 0 view .LVU2006
 6925 0002 0448     		ldr	r0, .L588
 6926 0004 FFF7FEFF 		bl	cJSON_New_Item
 6927              	.LVL639:
2128:TOOL/cJSON.c  ****     if(item)
 6928              		.loc 1 2128 5 is_stmt 1 view .LVU2007
 6929              		.loc 1 2128 7 is_stmt 0 view .LVU2008
 6930 0008 0346     		mov	r3, r0
 6931 000a 08B1     		cbz	r0, .L585
2129:TOOL/cJSON.c  ****     {
2130:TOOL/cJSON.c  ****         item->type = cJSON_True;
 6932              		.loc 1 2130 9 is_stmt 1 view .LVU2009
 6933              		.loc 1 2130 20 is_stmt 0 view .LVU2010
 6934 000c 0222     		movs	r2, #2
 6935 000e C260     		str	r2, [r0, #12]
2131:TOOL/cJSON.c  ****     }
2132:TOOL/cJSON.c  **** 
2133:TOOL/cJSON.c  ****     return item;
 6936              		.loc 1 2133 5 is_stmt 1 view .LVU2011
 6937              	.L585:
2134:TOOL/cJSON.c  **** }
 6938              		.loc 1 2134 1 is_stmt 0 view .LVU2012
 6939 0010 1846     		mov	r0, r3
 6940              	.LVL640:
 6941              		.loc 1 2134 1 view .LVU2013
 6942 0012 08BD     		pop	{r3, pc}
 6943              	.LVL641:
 6944              	.L589:
 6945              		.loc 1 2134 1 view .LVU2014
 6946              		.align	2
 6947              	.L588:
 6948 0014 00000000 		.word	.LANCHOR2
 6949              		.cfi_endproc
 6950              	.LFE132:
 6952              		.section	.text.cJSON_CreateFalse,"ax",%progbits
 6953              		.align	1
 6954              		.global	cJSON_CreateFalse
 6955              		.syntax unified
 6956              		.thumb
 6957              		.thumb_func
 6958              		.fpu softvfp
 6960              	cJSON_CreateFalse:
 6961              	.LFB133:
2135:TOOL/cJSON.c  **** 
2136:TOOL/cJSON.c  **** CJSON_PUBLIC(cJSON *) cJSON_CreateFalse(void)
2137:TOOL/cJSON.c  **** {
 6962              		.loc 1 2137 1 is_stmt 1 view -0
 6963              		.cfi_startproc
 6964              		@ args = 0, pretend = 0, frame = 0
 6965              		@ frame_needed = 0, uses_anonymous_args = 0
 6966 0000 08B5     		push	{r3, lr}
 6967              	.LCFI98:
ARM GAS  /var/folders/ww/n4ctlbrs3x70633t9y2ks63c0000gn/T//ccTX1xk7.s 			page 186


 6968              		.cfi_def_cfa_offset 8
 6969              		.cfi_offset 3, -8
 6970              		.cfi_offset 14, -4
2138:TOOL/cJSON.c  ****     cJSON *item = cJSON_New_Item(&global_hooks);
 6971              		.loc 1 2138 5 view .LVU2016
 6972              		.loc 1 2138 19 is_stmt 0 view .LVU2017
 6973 0002 0448     		ldr	r0, .L593
 6974 0004 FFF7FEFF 		bl	cJSON_New_Item
 6975              	.LVL642:
2139:TOOL/cJSON.c  ****     if(item)
 6976              		.loc 1 2139 5 is_stmt 1 view .LVU2018
 6977              		.loc 1 2139 7 is_stmt 0 view .LVU2019
 6978 0008 0346     		mov	r3, r0
 6979 000a 08B1     		cbz	r0, .L590
2140:TOOL/cJSON.c  ****     {
2141:TOOL/cJSON.c  ****         item->type = cJSON_False;
 6980              		.loc 1 2141 9 is_stmt 1 view .LVU2020
 6981              		.loc 1 2141 20 is_stmt 0 view .LVU2021
 6982 000c 0122     		movs	r2, #1
 6983 000e C260     		str	r2, [r0, #12]
2142:TOOL/cJSON.c  ****     }
2143:TOOL/cJSON.c  **** 
2144:TOOL/cJSON.c  ****     return item;
 6984              		.loc 1 2144 5 is_stmt 1 view .LVU2022
 6985              	.L590:
2145:TOOL/cJSON.c  **** }
 6986              		.loc 1 2145 1 is_stmt 0 view .LVU2023
 6987 0010 1846     		mov	r0, r3
 6988              	.LVL643:
 6989              		.loc 1 2145 1 view .LVU2024
 6990 0012 08BD     		pop	{r3, pc}
 6991              	.LVL644:
 6992              	.L594:
 6993              		.loc 1 2145 1 view .LVU2025
 6994              		.align	2
 6995              	.L593:
 6996 0014 00000000 		.word	.LANCHOR2
 6997              		.cfi_endproc
 6998              	.LFE133:
 7000              		.section	.text.cJSON_CreateBool,"ax",%progbits
 7001              		.align	1
 7002              		.global	cJSON_CreateBool
 7003              		.syntax unified
 7004              		.thumb
 7005              		.thumb_func
 7006              		.fpu softvfp
 7008              	cJSON_CreateBool:
 7009              	.LVL645:
 7010              	.LFB134:
2146:TOOL/cJSON.c  **** 
2147:TOOL/cJSON.c  **** CJSON_PUBLIC(cJSON *) cJSON_CreateBool(cJSON_bool b)
2148:TOOL/cJSON.c  **** {
 7011              		.loc 1 2148 1 is_stmt 1 view -0
 7012              		.cfi_startproc
 7013              		@ args = 0, pretend = 0, frame = 0
 7014              		@ frame_needed = 0, uses_anonymous_args = 0
 7015              		.loc 1 2148 1 is_stmt 0 view .LVU2027
ARM GAS  /var/folders/ww/n4ctlbrs3x70633t9y2ks63c0000gn/T//ccTX1xk7.s 			page 187


 7016 0000 10B5     		push	{r4, lr}
 7017              	.LCFI99:
 7018              		.cfi_def_cfa_offset 8
 7019              		.cfi_offset 4, -8
 7020              		.cfi_offset 14, -4
 7021 0002 0446     		mov	r4, r0
2149:TOOL/cJSON.c  ****     cJSON *item = cJSON_New_Item(&global_hooks);
 7022              		.loc 1 2149 5 is_stmt 1 view .LVU2028
 7023              		.loc 1 2149 19 is_stmt 0 view .LVU2029
 7024 0004 0548     		ldr	r0, .L600
 7025              	.LVL646:
 7026              		.loc 1 2149 19 view .LVU2030
 7027 0006 FFF7FEFF 		bl	cJSON_New_Item
 7028              	.LVL647:
2150:TOOL/cJSON.c  ****     if(item)
 7029              		.loc 1 2150 5 is_stmt 1 view .LVU2031
 7030              		.loc 1 2150 7 is_stmt 0 view .LVU2032
 7031 000a 0346     		mov	r3, r0
 7032 000c 10B1     		cbz	r0, .L595
2151:TOOL/cJSON.c  ****     {
2152:TOOL/cJSON.c  ****         item->type = b ? cJSON_True : cJSON_False;
 7033              		.loc 1 2152 9 is_stmt 1 view .LVU2033
 7034              		.loc 1 2152 37 is_stmt 0 view .LVU2034
 7035 000e 1CB1     		cbz	r4, .L598
 7036 0010 0222     		movs	r2, #2
 7037              	.L597:
 7038              		.loc 1 2152 20 discriminator 4 view .LVU2035
 7039 0012 DA60     		str	r2, [r3, #12]
2153:TOOL/cJSON.c  ****     }
2154:TOOL/cJSON.c  **** 
2155:TOOL/cJSON.c  ****     return item;
 7040              		.loc 1 2155 5 is_stmt 1 discriminator 4 view .LVU2036
 7041              	.L595:
2156:TOOL/cJSON.c  **** }
 7042              		.loc 1 2156 1 is_stmt 0 view .LVU2037
 7043 0014 1846     		mov	r0, r3
 7044              	.LVL648:
 7045              		.loc 1 2156 1 view .LVU2038
 7046 0016 10BD     		pop	{r4, pc}
 7047              	.LVL649:
 7048              	.L598:
2152:TOOL/cJSON.c  ****     }
 7049              		.loc 1 2152 37 view .LVU2039
 7050 0018 0122     		movs	r2, #1
 7051 001a FAE7     		b	.L597
 7052              	.L601:
 7053              		.align	2
 7054              	.L600:
 7055 001c 00000000 		.word	.LANCHOR2
 7056              		.cfi_endproc
 7057              	.LFE134:
 7059              		.section	.text.cJSON_CreateNumber,"ax",%progbits
 7060              		.align	1
 7061              		.global	cJSON_CreateNumber
 7062              		.syntax unified
 7063              		.thumb
 7064              		.thumb_func
ARM GAS  /var/folders/ww/n4ctlbrs3x70633t9y2ks63c0000gn/T//ccTX1xk7.s 			page 188


 7065              		.fpu softvfp
 7067              	cJSON_CreateNumber:
 7068              	.LVL650:
 7069              	.LFB135:
2157:TOOL/cJSON.c  **** 
2158:TOOL/cJSON.c  **** CJSON_PUBLIC(cJSON *) cJSON_CreateNumber(double num)
2159:TOOL/cJSON.c  **** {
 7070              		.loc 1 2159 1 is_stmt 1 view -0
 7071              		.cfi_startproc
 7072              		@ args = 0, pretend = 0, frame = 0
 7073              		@ frame_needed = 0, uses_anonymous_args = 0
 7074              		.loc 1 2159 1 is_stmt 0 view .LVU2041
 7075 0000 D0B5     		push	{r4, r6, r7, lr}
 7076              	.LCFI100:
 7077              		.cfi_def_cfa_offset 16
 7078              		.cfi_offset 4, -16
 7079              		.cfi_offset 6, -12
 7080              		.cfi_offset 7, -8
 7081              		.cfi_offset 14, -4
 7082 0002 0646     		mov	r6, r0
 7083 0004 0F46     		mov	r7, r1
2160:TOOL/cJSON.c  ****     cJSON *item = cJSON_New_Item(&global_hooks);
 7084              		.loc 1 2160 5 is_stmt 1 view .LVU2042
 7085              		.loc 1 2160 19 is_stmt 0 view .LVU2043
 7086 0006 1648     		ldr	r0, .L613+8
 7087              	.LVL651:
 7088              		.loc 1 2160 19 view .LVU2044
 7089 0008 FFF7FEFF 		bl	cJSON_New_Item
 7090              	.LVL652:
2161:TOOL/cJSON.c  ****     if(item)
 7091              		.loc 1 2161 5 is_stmt 1 view .LVU2045
 7092              		.loc 1 2161 7 is_stmt 0 view .LVU2046
 7093 000c 0446     		mov	r4, r0
 7094 000e 70B1     		cbz	r0, .L602
2162:TOOL/cJSON.c  ****     {
2163:TOOL/cJSON.c  ****         item->type = cJSON_Number;
 7095              		.loc 1 2163 9 is_stmt 1 view .LVU2047
 7096              		.loc 1 2163 20 is_stmt 0 view .LVU2048
 7097 0010 0823     		movs	r3, #8
 7098 0012 C360     		str	r3, [r0, #12]
2164:TOOL/cJSON.c  ****         item->valuedouble = num;
 7099              		.loc 1 2164 9 is_stmt 1 view .LVU2049
 7100              		.loc 1 2164 27 is_stmt 0 view .LVU2050
 7101 0014 C0E90667 		strd	r6, [r0, #24]
2165:TOOL/cJSON.c  **** 
2166:TOOL/cJSON.c  ****         /* use saturation in case of overflow */
2167:TOOL/cJSON.c  ****         if (num >= INT_MAX)
 7102              		.loc 1 2167 9 is_stmt 1 view .LVU2051
 7103              		.loc 1 2167 12 is_stmt 0 view .LVU2052
 7104 0018 0FA3     		adr	r3, .L613
 7105 001a D3E90023 		ldrd	r2, [r3]
 7106 001e 3046     		mov	r0, r6
 7107              	.LVL653:
 7108              		.loc 1 2167 12 view .LVU2053
 7109 0020 3946     		mov	r1, r7
 7110 0022 FFF7FEFF 		bl	__aeabi_dcmpge
 7111              	.LVL654:
ARM GAS  /var/folders/ww/n4ctlbrs3x70633t9y2ks63c0000gn/T//ccTX1xk7.s 			page 189


 7112 0026 20B1     		cbz	r0, .L610
2168:TOOL/cJSON.c  ****         {
2169:TOOL/cJSON.c  ****             item->valueint = INT_MAX;
 7113              		.loc 1 2169 13 is_stmt 1 view .LVU2054
 7114              		.loc 1 2169 28 is_stmt 0 view .LVU2055
 7115 0028 6FF00043 		mvn	r3, #-2147483648
 7116 002c 6361     		str	r3, [r4, #20]
 7117              	.L602:
2170:TOOL/cJSON.c  ****         }
2171:TOOL/cJSON.c  ****         else if (num <= INT_MIN)
2172:TOOL/cJSON.c  ****         {
2173:TOOL/cJSON.c  ****             item->valueint = INT_MIN;
2174:TOOL/cJSON.c  ****         }
2175:TOOL/cJSON.c  ****         else
2176:TOOL/cJSON.c  ****         {
2177:TOOL/cJSON.c  ****             item->valueint = (int)num;
2178:TOOL/cJSON.c  ****         }
2179:TOOL/cJSON.c  ****     }
2180:TOOL/cJSON.c  **** 
2181:TOOL/cJSON.c  ****     return item;
2182:TOOL/cJSON.c  **** }
 7118              		.loc 1 2182 1 view .LVU2056
 7119 002e 2046     		mov	r0, r4
 7120 0030 D0BD     		pop	{r4, r6, r7, pc}
 7121              	.LVL655:
 7122              	.L610:
2171:TOOL/cJSON.c  ****         {
 7123              		.loc 1 2171 14 is_stmt 1 view .LVU2057
2171:TOOL/cJSON.c  ****         {
 7124              		.loc 1 2171 17 is_stmt 0 view .LVU2058
 7125 0032 0022     		movs	r2, #0
 7126 0034 0B4B     		ldr	r3, .L613+12
 7127 0036 3046     		mov	r0, r6
 7128 0038 3946     		mov	r1, r7
 7129 003a FFF7FEFF 		bl	__aeabi_dcmple
 7130              	.LVL656:
 7131 003e 18B1     		cbz	r0, .L611
2173:TOOL/cJSON.c  ****         }
 7132              		.loc 1 2173 13 is_stmt 1 view .LVU2059
2173:TOOL/cJSON.c  ****         }
 7133              		.loc 1 2173 28 is_stmt 0 view .LVU2060
 7134 0040 4FF00043 		mov	r3, #-2147483648
 7135 0044 6361     		str	r3, [r4, #20]
 7136 0046 F2E7     		b	.L602
 7137              	.L611:
2177:TOOL/cJSON.c  ****         }
 7138              		.loc 1 2177 13 is_stmt 1 view .LVU2061
2177:TOOL/cJSON.c  ****         }
 7139              		.loc 1 2177 30 is_stmt 0 view .LVU2062
 7140 0048 3046     		mov	r0, r6
 7141 004a 3946     		mov	r1, r7
 7142 004c FFF7FEFF 		bl	__aeabi_d2iz
 7143              	.LVL657:
2177:TOOL/cJSON.c  ****         }
 7144              		.loc 1 2177 28 view .LVU2063
 7145 0050 6061     		str	r0, [r4, #20]
2181:TOOL/cJSON.c  **** }
ARM GAS  /var/folders/ww/n4ctlbrs3x70633t9y2ks63c0000gn/T//ccTX1xk7.s 			page 190


 7146              		.loc 1 2181 5 is_stmt 1 view .LVU2064
2181:TOOL/cJSON.c  **** }
 7147              		.loc 1 2181 12 is_stmt 0 view .LVU2065
 7148 0052 ECE7     		b	.L602
 7149              	.L614:
 7150 0054 AFF30080 		.align	3
 7151              	.L613:
 7152 0058 0000C0FF 		.word	4290772992
 7153 005c FFFFDF41 		.word	1105199103
 7154 0060 00000000 		.word	.LANCHOR2
 7155 0064 0000E0C1 		.word	-1042284544
 7156              		.cfi_endproc
 7157              	.LFE135:
 7159              		.section	.text.cJSON_CreateString,"ax",%progbits
 7160              		.align	1
 7161              		.global	cJSON_CreateString
 7162              		.syntax unified
 7163              		.thumb
 7164              		.thumb_func
 7165              		.fpu softvfp
 7167              	cJSON_CreateString:
 7168              	.LVL658:
 7169              	.LFB136:
2183:TOOL/cJSON.c  **** 
2184:TOOL/cJSON.c  **** CJSON_PUBLIC(cJSON *) cJSON_CreateString(const char *string)
2185:TOOL/cJSON.c  **** {
 7170              		.loc 1 2185 1 is_stmt 1 view -0
 7171              		.cfi_startproc
 7172              		@ args = 0, pretend = 0, frame = 0
 7173              		@ frame_needed = 0, uses_anonymous_args = 0
 7174              		.loc 1 2185 1 is_stmt 0 view .LVU2067
 7175 0000 38B5     		push	{r3, r4, r5, lr}
 7176              	.LCFI101:
 7177              		.cfi_def_cfa_offset 16
 7178              		.cfi_offset 3, -16
 7179              		.cfi_offset 4, -12
 7180              		.cfi_offset 5, -8
 7181              		.cfi_offset 14, -4
 7182 0002 0546     		mov	r5, r0
2186:TOOL/cJSON.c  ****     cJSON *item = cJSON_New_Item(&global_hooks);
 7183              		.loc 1 2186 5 is_stmt 1 view .LVU2068
 7184              		.loc 1 2186 19 is_stmt 0 view .LVU2069
 7185 0004 0A48     		ldr	r0, .L619
 7186              	.LVL659:
 7187              		.loc 1 2186 19 view .LVU2070
 7188 0006 FFF7FEFF 		bl	cJSON_New_Item
 7189              	.LVL660:
2187:TOOL/cJSON.c  ****     if(item)
 7190              		.loc 1 2187 5 is_stmt 1 view .LVU2071
 7191              		.loc 1 2187 7 is_stmt 0 view .LVU2072
 7192 000a 0446     		mov	r4, r0
 7193 000c 40B1     		cbz	r0, .L615
2188:TOOL/cJSON.c  ****     {
2189:TOOL/cJSON.c  ****         item->type = cJSON_String;
 7194              		.loc 1 2189 9 is_stmt 1 view .LVU2073
 7195              		.loc 1 2189 20 is_stmt 0 view .LVU2074
 7196 000e 1023     		movs	r3, #16
ARM GAS  /var/folders/ww/n4ctlbrs3x70633t9y2ks63c0000gn/T//ccTX1xk7.s 			page 191


 7197 0010 C360     		str	r3, [r0, #12]
2190:TOOL/cJSON.c  ****         item->valuestring = (char*)cJSON_strdup((const unsigned char*)string, &global_hooks);
 7198              		.loc 1 2190 9 is_stmt 1 view .LVU2075
 7199              		.loc 1 2190 36 is_stmt 0 view .LVU2076
 7200 0012 0749     		ldr	r1, .L619
 7201 0014 2846     		mov	r0, r5
 7202              	.LVL661:
 7203              		.loc 1 2190 36 view .LVU2077
 7204 0016 FFF7FEFF 		bl	cJSON_strdup
 7205              	.LVL662:
 7206 001a 0546     		mov	r5, r0
 7207              	.LVL663:
 7208              		.loc 1 2190 27 view .LVU2078
 7209 001c 2061     		str	r0, [r4, #16]
2191:TOOL/cJSON.c  ****         if(!item->valuestring)
 7210              		.loc 1 2191 9 is_stmt 1 view .LVU2079
 7211              		.loc 1 2191 11 is_stmt 0 view .LVU2080
 7212 001e 08B1     		cbz	r0, .L618
 7213              	.LVL664:
 7214              	.L615:
2192:TOOL/cJSON.c  ****         {
2193:TOOL/cJSON.c  ****             cJSON_Delete(item);
2194:TOOL/cJSON.c  ****             return NULL;
2195:TOOL/cJSON.c  ****         }
2196:TOOL/cJSON.c  ****     }
2197:TOOL/cJSON.c  **** 
2198:TOOL/cJSON.c  ****     return item;
2199:TOOL/cJSON.c  **** }
 7215              		.loc 1 2199 1 view .LVU2081
 7216 0020 2046     		mov	r0, r4
 7217 0022 38BD     		pop	{r3, r4, r5, pc}
 7218              	.LVL665:
 7219              	.L618:
2193:TOOL/cJSON.c  ****             return NULL;
 7220              		.loc 1 2193 13 is_stmt 1 view .LVU2082
 7221 0024 2046     		mov	r0, r4
 7222 0026 FFF7FEFF 		bl	cJSON_Delete
 7223              	.LVL666:
2194:TOOL/cJSON.c  ****         }
 7224              		.loc 1 2194 13 view .LVU2083
2194:TOOL/cJSON.c  ****         }
 7225              		.loc 1 2194 20 is_stmt 0 view .LVU2084
 7226 002a 2C46     		mov	r4, r5
 7227              	.LVL667:
2194:TOOL/cJSON.c  ****         }
 7228              		.loc 1 2194 20 view .LVU2085
 7229 002c F8E7     		b	.L615
 7230              	.L620:
 7231 002e 00BF     		.align	2
 7232              	.L619:
 7233 0030 00000000 		.word	.LANCHOR2
 7234              		.cfi_endproc
 7235              	.LFE136:
 7237              		.section	.text.cJSON_CreateRaw,"ax",%progbits
 7238              		.align	1
 7239              		.global	cJSON_CreateRaw
 7240              		.syntax unified
ARM GAS  /var/folders/ww/n4ctlbrs3x70633t9y2ks63c0000gn/T//ccTX1xk7.s 			page 192


 7241              		.thumb
 7242              		.thumb_func
 7243              		.fpu softvfp
 7245              	cJSON_CreateRaw:
 7246              	.LVL668:
 7247              	.LFB137:
2200:TOOL/cJSON.c  **** 
2201:TOOL/cJSON.c  **** CJSON_PUBLIC(cJSON *) cJSON_CreateRaw(const char *raw)
2202:TOOL/cJSON.c  **** {
 7248              		.loc 1 2202 1 is_stmt 1 view -0
 7249              		.cfi_startproc
 7250              		@ args = 0, pretend = 0, frame = 0
 7251              		@ frame_needed = 0, uses_anonymous_args = 0
 7252              		.loc 1 2202 1 is_stmt 0 view .LVU2087
 7253 0000 38B5     		push	{r3, r4, r5, lr}
 7254              	.LCFI102:
 7255              		.cfi_def_cfa_offset 16
 7256              		.cfi_offset 3, -16
 7257              		.cfi_offset 4, -12
 7258              		.cfi_offset 5, -8
 7259              		.cfi_offset 14, -4
 7260 0002 0546     		mov	r5, r0
2203:TOOL/cJSON.c  ****     cJSON *item = cJSON_New_Item(&global_hooks);
 7261              		.loc 1 2203 5 is_stmt 1 view .LVU2088
 7262              		.loc 1 2203 19 is_stmt 0 view .LVU2089
 7263 0004 0A48     		ldr	r0, .L625
 7264              	.LVL669:
 7265              		.loc 1 2203 19 view .LVU2090
 7266 0006 FFF7FEFF 		bl	cJSON_New_Item
 7267              	.LVL670:
2204:TOOL/cJSON.c  ****     if(item)
 7268              		.loc 1 2204 5 is_stmt 1 view .LVU2091
 7269              		.loc 1 2204 7 is_stmt 0 view .LVU2092
 7270 000a 0446     		mov	r4, r0
 7271 000c 40B1     		cbz	r0, .L621
2205:TOOL/cJSON.c  ****     {
2206:TOOL/cJSON.c  ****         item->type = cJSON_Raw;
 7272              		.loc 1 2206 9 is_stmt 1 view .LVU2093
 7273              		.loc 1 2206 20 is_stmt 0 view .LVU2094
 7274 000e 8023     		movs	r3, #128
 7275 0010 C360     		str	r3, [r0, #12]
2207:TOOL/cJSON.c  ****         item->valuestring = (char*)cJSON_strdup((const unsigned char*)raw, &global_hooks);
 7276              		.loc 1 2207 9 is_stmt 1 view .LVU2095
 7277              		.loc 1 2207 36 is_stmt 0 view .LVU2096
 7278 0012 0749     		ldr	r1, .L625
 7279 0014 2846     		mov	r0, r5
 7280              	.LVL671:
 7281              		.loc 1 2207 36 view .LVU2097
 7282 0016 FFF7FEFF 		bl	cJSON_strdup
 7283              	.LVL672:
 7284 001a 0546     		mov	r5, r0
 7285              	.LVL673:
 7286              		.loc 1 2207 27 view .LVU2098
 7287 001c 2061     		str	r0, [r4, #16]
2208:TOOL/cJSON.c  ****         if(!item->valuestring)
 7288              		.loc 1 2208 9 is_stmt 1 view .LVU2099
 7289              		.loc 1 2208 11 is_stmt 0 view .LVU2100
ARM GAS  /var/folders/ww/n4ctlbrs3x70633t9y2ks63c0000gn/T//ccTX1xk7.s 			page 193


 7290 001e 08B1     		cbz	r0, .L624
 7291              	.LVL674:
 7292              	.L621:
2209:TOOL/cJSON.c  ****         {
2210:TOOL/cJSON.c  ****             cJSON_Delete(item);
2211:TOOL/cJSON.c  ****             return NULL;
2212:TOOL/cJSON.c  ****         }
2213:TOOL/cJSON.c  ****     }
2214:TOOL/cJSON.c  **** 
2215:TOOL/cJSON.c  ****     return item;
2216:TOOL/cJSON.c  **** }
 7293              		.loc 1 2216 1 view .LVU2101
 7294 0020 2046     		mov	r0, r4
 7295 0022 38BD     		pop	{r3, r4, r5, pc}
 7296              	.LVL675:
 7297              	.L624:
2210:TOOL/cJSON.c  ****             return NULL;
 7298              		.loc 1 2210 13 is_stmt 1 view .LVU2102
 7299 0024 2046     		mov	r0, r4
 7300 0026 FFF7FEFF 		bl	cJSON_Delete
 7301              	.LVL676:
2211:TOOL/cJSON.c  ****         }
 7302              		.loc 1 2211 13 view .LVU2103
2211:TOOL/cJSON.c  ****         }
 7303              		.loc 1 2211 20 is_stmt 0 view .LVU2104
 7304 002a 2C46     		mov	r4, r5
 7305              	.LVL677:
2211:TOOL/cJSON.c  ****         }
 7306              		.loc 1 2211 20 view .LVU2105
 7307 002c F8E7     		b	.L621
 7308              	.L626:
 7309 002e 00BF     		.align	2
 7310              	.L625:
 7311 0030 00000000 		.word	.LANCHOR2
 7312              		.cfi_endproc
 7313              	.LFE137:
 7315              		.section	.text.cJSON_CreateArray,"ax",%progbits
 7316              		.align	1
 7317              		.global	cJSON_CreateArray
 7318              		.syntax unified
 7319              		.thumb
 7320              		.thumb_func
 7321              		.fpu softvfp
 7323              	cJSON_CreateArray:
 7324              	.LFB138:
2217:TOOL/cJSON.c  **** 
2218:TOOL/cJSON.c  **** CJSON_PUBLIC(cJSON *) cJSON_CreateArray(void)
2219:TOOL/cJSON.c  **** {
 7325              		.loc 1 2219 1 is_stmt 1 view -0
 7326              		.cfi_startproc
 7327              		@ args = 0, pretend = 0, frame = 0
 7328              		@ frame_needed = 0, uses_anonymous_args = 0
 7329 0000 08B5     		push	{r3, lr}
 7330              	.LCFI103:
 7331              		.cfi_def_cfa_offset 8
 7332              		.cfi_offset 3, -8
 7333              		.cfi_offset 14, -4
ARM GAS  /var/folders/ww/n4ctlbrs3x70633t9y2ks63c0000gn/T//ccTX1xk7.s 			page 194


2220:TOOL/cJSON.c  ****     cJSON *item = cJSON_New_Item(&global_hooks);
 7334              		.loc 1 2220 5 view .LVU2107
 7335              		.loc 1 2220 19 is_stmt 0 view .LVU2108
 7336 0002 0448     		ldr	r0, .L630
 7337 0004 FFF7FEFF 		bl	cJSON_New_Item
 7338              	.LVL678:
2221:TOOL/cJSON.c  ****     if(item)
 7339              		.loc 1 2221 5 is_stmt 1 view .LVU2109
 7340              		.loc 1 2221 7 is_stmt 0 view .LVU2110
 7341 0008 0346     		mov	r3, r0
 7342 000a 08B1     		cbz	r0, .L627
2222:TOOL/cJSON.c  ****     {
2223:TOOL/cJSON.c  ****         item->type=cJSON_Array;
 7343              		.loc 1 2223 9 is_stmt 1 view .LVU2111
 7344              		.loc 1 2223 19 is_stmt 0 view .LVU2112
 7345 000c 2022     		movs	r2, #32
 7346 000e C260     		str	r2, [r0, #12]
2224:TOOL/cJSON.c  ****     }
2225:TOOL/cJSON.c  **** 
2226:TOOL/cJSON.c  ****     return item;
 7347              		.loc 1 2226 5 is_stmt 1 view .LVU2113
 7348              	.L627:
2227:TOOL/cJSON.c  **** }
 7349              		.loc 1 2227 1 is_stmt 0 view .LVU2114
 7350 0010 1846     		mov	r0, r3
 7351              	.LVL679:
 7352              		.loc 1 2227 1 view .LVU2115
 7353 0012 08BD     		pop	{r3, pc}
 7354              	.LVL680:
 7355              	.L631:
 7356              		.loc 1 2227 1 view .LVU2116
 7357              		.align	2
 7358              	.L630:
 7359 0014 00000000 		.word	.LANCHOR2
 7360              		.cfi_endproc
 7361              	.LFE138:
 7363              		.section	.text.cJSON_CreateObject,"ax",%progbits
 7364              		.align	1
 7365              		.global	cJSON_CreateObject
 7366              		.syntax unified
 7367              		.thumb
 7368              		.thumb_func
 7369              		.fpu softvfp
 7371              	cJSON_CreateObject:
 7372              	.LFB139:
2228:TOOL/cJSON.c  **** 
2229:TOOL/cJSON.c  **** CJSON_PUBLIC(cJSON *) cJSON_CreateObject(void)
2230:TOOL/cJSON.c  **** {
 7373              		.loc 1 2230 1 is_stmt 1 view -0
 7374              		.cfi_startproc
 7375              		@ args = 0, pretend = 0, frame = 0
 7376              		@ frame_needed = 0, uses_anonymous_args = 0
 7377 0000 08B5     		push	{r3, lr}
 7378              	.LCFI104:
 7379              		.cfi_def_cfa_offset 8
 7380              		.cfi_offset 3, -8
 7381              		.cfi_offset 14, -4
ARM GAS  /var/folders/ww/n4ctlbrs3x70633t9y2ks63c0000gn/T//ccTX1xk7.s 			page 195


2231:TOOL/cJSON.c  ****     cJSON *item = cJSON_New_Item(&global_hooks);
 7382              		.loc 1 2231 5 view .LVU2118
 7383              		.loc 1 2231 19 is_stmt 0 view .LVU2119
 7384 0002 0448     		ldr	r0, .L635
 7385 0004 FFF7FEFF 		bl	cJSON_New_Item
 7386              	.LVL681:
2232:TOOL/cJSON.c  ****     if (item)
 7387              		.loc 1 2232 5 is_stmt 1 view .LVU2120
 7388              		.loc 1 2232 8 is_stmt 0 view .LVU2121
 7389 0008 0346     		mov	r3, r0
 7390 000a 08B1     		cbz	r0, .L632
2233:TOOL/cJSON.c  ****     {
2234:TOOL/cJSON.c  ****         item->type = cJSON_Object;
 7391              		.loc 1 2234 9 is_stmt 1 view .LVU2122
 7392              		.loc 1 2234 20 is_stmt 0 view .LVU2123
 7393 000c 4022     		movs	r2, #64
 7394 000e C260     		str	r2, [r0, #12]
2235:TOOL/cJSON.c  ****     }
2236:TOOL/cJSON.c  **** 
2237:TOOL/cJSON.c  ****     return item;
 7395              		.loc 1 2237 5 is_stmt 1 view .LVU2124
 7396              	.L632:
2238:TOOL/cJSON.c  **** }
 7397              		.loc 1 2238 1 is_stmt 0 view .LVU2125
 7398 0010 1846     		mov	r0, r3
 7399              	.LVL682:
 7400              		.loc 1 2238 1 view .LVU2126
 7401 0012 08BD     		pop	{r3, pc}
 7402              	.LVL683:
 7403              	.L636:
 7404              		.loc 1 2238 1 view .LVU2127
 7405              		.align	2
 7406              	.L635:
 7407 0014 00000000 		.word	.LANCHOR2
 7408              		.cfi_endproc
 7409              	.LFE139:
 7411              		.global	__aeabi_i2d
 7412              		.section	.text.cJSON_CreateIntArray,"ax",%progbits
 7413              		.align	1
 7414              		.global	cJSON_CreateIntArray
 7415              		.syntax unified
 7416              		.thumb
 7417              		.thumb_func
 7418              		.fpu softvfp
 7420              	cJSON_CreateIntArray:
 7421              	.LVL684:
 7422              	.LFB140:
2239:TOOL/cJSON.c  **** 
2240:TOOL/cJSON.c  **** /* Create Arrays: */
2241:TOOL/cJSON.c  **** CJSON_PUBLIC(cJSON *) cJSON_CreateIntArray(const int *numbers, int count)
2242:TOOL/cJSON.c  **** {
 7423              		.loc 1 2242 1 is_stmt 1 view -0
 7424              		.cfi_startproc
 7425              		@ args = 0, pretend = 0, frame = 0
 7426              		@ frame_needed = 0, uses_anonymous_args = 0
 7427              		.loc 1 2242 1 is_stmt 0 view .LVU2129
 7428 0000 2DE9F843 		push	{r3, r4, r5, r6, r7, r8, r9, lr}
ARM GAS  /var/folders/ww/n4ctlbrs3x70633t9y2ks63c0000gn/T//ccTX1xk7.s 			page 196


 7429              	.LCFI105:
 7430              		.cfi_def_cfa_offset 32
 7431              		.cfi_offset 3, -32
 7432              		.cfi_offset 4, -28
 7433              		.cfi_offset 5, -24
 7434              		.cfi_offset 6, -20
 7435              		.cfi_offset 7, -16
 7436              		.cfi_offset 8, -12
 7437              		.cfi_offset 9, -8
 7438              		.cfi_offset 14, -4
2243:TOOL/cJSON.c  ****     size_t i = 0;
 7439              		.loc 1 2243 5 is_stmt 1 view .LVU2130
 7440              	.LVL685:
2244:TOOL/cJSON.c  ****     cJSON *n = NULL;
 7441              		.loc 1 2244 5 view .LVU2131
2245:TOOL/cJSON.c  ****     cJSON *p = NULL;
 7442              		.loc 1 2245 5 view .LVU2132
2246:TOOL/cJSON.c  ****     cJSON *a = NULL;
 7443              		.loc 1 2246 5 view .LVU2133
2247:TOOL/cJSON.c  **** 
2248:TOOL/cJSON.c  ****     if ((count < 0) || (numbers == NULL))
 7444              		.loc 1 2248 5 view .LVU2134
 7445              		.loc 1 2248 8 is_stmt 0 view .LVU2135
 7446 0004 B1F10009 		subs	r9, r1, #0
 7447 0008 26DB     		blt	.L644
 7448              		.loc 1 2248 21 discriminator 1 view .LVU2136
 7449 000a 38B3     		cbz	r0, .L645
 7450 000c 0746     		mov	r7, r0
2249:TOOL/cJSON.c  ****     {
2250:TOOL/cJSON.c  ****         return NULL;
2251:TOOL/cJSON.c  ****     }
2252:TOOL/cJSON.c  **** 
2253:TOOL/cJSON.c  ****     a = cJSON_CreateArray();
 7451              		.loc 1 2253 5 is_stmt 1 view .LVU2137
 7452              		.loc 1 2253 9 is_stmt 0 view .LVU2138
 7453 000e FFF7FEFF 		bl	cJSON_CreateArray
 7454              	.LVL686:
 7455              		.loc 1 2253 9 view .LVU2139
 7456 0012 0646     		mov	r6, r0
 7457              	.LVL687:
2254:TOOL/cJSON.c  ****     for(i = 0; a && (i < (size_t)count); i++)
 7458              		.loc 1 2254 5 is_stmt 1 view .LVU2140
2245:TOOL/cJSON.c  ****     cJSON *a = NULL;
 7459              		.loc 1 2245 12 is_stmt 0 view .LVU2141
 7460 0014 4FF00008 		mov	r8, #0
 7461              		.loc 1 2254 11 view .LVU2142
 7462 0018 4446     		mov	r4, r8
 7463              		.loc 1 2254 5 view .LVU2143
 7464 001a 0CE0     		b	.L639
 7465              	.LVL688:
 7466              	.L647:
2255:TOOL/cJSON.c  ****     {
2256:TOOL/cJSON.c  ****         n = cJSON_CreateNumber(numbers[i]);
2257:TOOL/cJSON.c  ****         if (!n)
2258:TOOL/cJSON.c  ****         {
2259:TOOL/cJSON.c  ****             cJSON_Delete(a);
 7467              		.loc 1 2259 13 is_stmt 1 view .LVU2144
ARM GAS  /var/folders/ww/n4ctlbrs3x70633t9y2ks63c0000gn/T//ccTX1xk7.s 			page 197


 7468 001c 3046     		mov	r0, r6
 7469              	.LVL689:
 7470              		.loc 1 2259 13 is_stmt 0 view .LVU2145
 7471 001e FFF7FEFF 		bl	cJSON_Delete
 7472              	.LVL690:
2260:TOOL/cJSON.c  ****             return NULL;
 7473              		.loc 1 2260 13 is_stmt 1 view .LVU2146
 7474              		.loc 1 2260 20 is_stmt 0 view .LVU2147
 7475 0022 2E46     		mov	r6, r5
 7476              	.LVL691:
 7477              	.L637:
2261:TOOL/cJSON.c  ****         }
2262:TOOL/cJSON.c  ****         if(!i)
2263:TOOL/cJSON.c  ****         {
2264:TOOL/cJSON.c  ****             a->child = n;
2265:TOOL/cJSON.c  ****         }
2266:TOOL/cJSON.c  ****         else
2267:TOOL/cJSON.c  ****         {
2268:TOOL/cJSON.c  ****             suffix_object(p, n);
2269:TOOL/cJSON.c  ****         }
2270:TOOL/cJSON.c  ****         p = n;
2271:TOOL/cJSON.c  ****     }
2272:TOOL/cJSON.c  **** 
2273:TOOL/cJSON.c  ****     return a;
2274:TOOL/cJSON.c  **** }
 7478              		.loc 1 2274 1 view .LVU2148
 7479 0024 3046     		mov	r0, r6
 7480 0026 BDE8F883 		pop	{r3, r4, r5, r6, r7, r8, r9, pc}
 7481              	.LVL692:
 7482              	.L641:
2268:TOOL/cJSON.c  ****         }
 7483              		.loc 1 2268 13 is_stmt 1 view .LVU2149
 7484 002a 0146     		mov	r1, r0
 7485 002c 4046     		mov	r0, r8
 7486              	.LVL693:
2268:TOOL/cJSON.c  ****         }
 7487              		.loc 1 2268 13 is_stmt 0 view .LVU2150
 7488 002e FFF7FEFF 		bl	suffix_object
 7489              	.LVL694:
 7490              	.L642:
2270:TOOL/cJSON.c  ****     }
 7491              		.loc 1 2270 9 is_stmt 1 discriminator 2 view .LVU2151
2254:TOOL/cJSON.c  ****     {
 7492              		.loc 1 2254 43 is_stmt 0 discriminator 2 view .LVU2152
 7493 0032 0134     		adds	r4, r4, #1
 7494              	.LVL695:
2270:TOOL/cJSON.c  ****     }
 7495              		.loc 1 2270 11 discriminator 2 view .LVU2153
 7496 0034 A846     		mov	r8, r5
 7497              	.LVL696:
 7498              	.L639:
2254:TOOL/cJSON.c  ****     {
 7499              		.loc 1 2254 5 discriminator 1 view .LVU2154
 7500 0036 002E     		cmp	r6, #0
 7501 0038 F4D0     		beq	.L637
2254:TOOL/cJSON.c  ****     {
 7502              		.loc 1 2254 18 discriminator 3 view .LVU2155
ARM GAS  /var/folders/ww/n4ctlbrs3x70633t9y2ks63c0000gn/T//ccTX1xk7.s 			page 198


 7503 003a A145     		cmp	r9, r4
 7504 003c F2D9     		bls	.L637
2256:TOOL/cJSON.c  ****         if (!n)
 7505              		.loc 1 2256 9 is_stmt 1 view .LVU2156
2256:TOOL/cJSON.c  ****         if (!n)
 7506              		.loc 1 2256 13 is_stmt 0 view .LVU2157
 7507 003e 57F82400 		ldr	r0, [r7, r4, lsl #2]
 7508 0042 FFF7FEFF 		bl	__aeabi_i2d
 7509              	.LVL697:
 7510 0046 FFF7FEFF 		bl	cJSON_CreateNumber
 7511              	.LVL698:
2257:TOOL/cJSON.c  ****         {
 7512              		.loc 1 2257 9 is_stmt 1 view .LVU2158
2257:TOOL/cJSON.c  ****         {
 7513              		.loc 1 2257 12 is_stmt 0 view .LVU2159
 7514 004a 0546     		mov	r5, r0
 7515 004c 0028     		cmp	r0, #0
 7516 004e E5D0     		beq	.L647
2262:TOOL/cJSON.c  ****         {
 7517              		.loc 1 2262 9 is_stmt 1 view .LVU2160
2262:TOOL/cJSON.c  ****         {
 7518              		.loc 1 2262 11 is_stmt 0 view .LVU2161
 7519 0050 002C     		cmp	r4, #0
 7520 0052 EAD1     		bne	.L641
2264:TOOL/cJSON.c  ****         }
 7521              		.loc 1 2264 13 is_stmt 1 view .LVU2162
2264:TOOL/cJSON.c  ****         }
 7522              		.loc 1 2264 22 is_stmt 0 view .LVU2163
 7523 0054 B060     		str	r0, [r6, #8]
 7524 0056 ECE7     		b	.L642
 7525              	.LVL699:
 7526              	.L644:
2250:TOOL/cJSON.c  ****     }
 7527              		.loc 1 2250 16 view .LVU2164
 7528 0058 0026     		movs	r6, #0
 7529 005a E3E7     		b	.L637
 7530              	.L645:
 7531 005c 0646     		mov	r6, r0
 7532 005e E1E7     		b	.L637
 7533              		.cfi_endproc
 7534              	.LFE140:
 7536              		.global	__aeabi_f2d
 7537              		.section	.text.cJSON_CreateFloatArray,"ax",%progbits
 7538              		.align	1
 7539              		.global	cJSON_CreateFloatArray
 7540              		.syntax unified
 7541              		.thumb
 7542              		.thumb_func
 7543              		.fpu softvfp
 7545              	cJSON_CreateFloatArray:
 7546              	.LVL700:
 7547              	.LFB141:
2275:TOOL/cJSON.c  **** 
2276:TOOL/cJSON.c  **** CJSON_PUBLIC(cJSON *) cJSON_CreateFloatArray(const float *numbers, int count)
2277:TOOL/cJSON.c  **** {
 7548              		.loc 1 2277 1 is_stmt 1 view -0
 7549              		.cfi_startproc
ARM GAS  /var/folders/ww/n4ctlbrs3x70633t9y2ks63c0000gn/T//ccTX1xk7.s 			page 199


 7550              		@ args = 0, pretend = 0, frame = 0
 7551              		@ frame_needed = 0, uses_anonymous_args = 0
 7552              		.loc 1 2277 1 is_stmt 0 view .LVU2166
 7553 0000 2DE9F843 		push	{r3, r4, r5, r6, r7, r8, r9, lr}
 7554              	.LCFI106:
 7555              		.cfi_def_cfa_offset 32
 7556              		.cfi_offset 3, -32
 7557              		.cfi_offset 4, -28
 7558              		.cfi_offset 5, -24
 7559              		.cfi_offset 6, -20
 7560              		.cfi_offset 7, -16
 7561              		.cfi_offset 8, -12
 7562              		.cfi_offset 9, -8
 7563              		.cfi_offset 14, -4
2278:TOOL/cJSON.c  ****     size_t i = 0;
 7564              		.loc 1 2278 5 is_stmt 1 view .LVU2167
 7565              	.LVL701:
2279:TOOL/cJSON.c  ****     cJSON *n = NULL;
 7566              		.loc 1 2279 5 view .LVU2168
2280:TOOL/cJSON.c  ****     cJSON *p = NULL;
 7567              		.loc 1 2280 5 view .LVU2169
2281:TOOL/cJSON.c  ****     cJSON *a = NULL;
 7568              		.loc 1 2281 5 view .LVU2170
2282:TOOL/cJSON.c  **** 
2283:TOOL/cJSON.c  ****     if ((count < 0) || (numbers == NULL))
 7569              		.loc 1 2283 5 view .LVU2171
 7570              		.loc 1 2283 8 is_stmt 0 view .LVU2172
 7571 0004 B1F10009 		subs	r9, r1, #0
 7572 0008 26DB     		blt	.L655
 7573              		.loc 1 2283 21 discriminator 1 view .LVU2173
 7574 000a 38B3     		cbz	r0, .L656
 7575 000c 0746     		mov	r7, r0
2284:TOOL/cJSON.c  ****     {
2285:TOOL/cJSON.c  ****         return NULL;
2286:TOOL/cJSON.c  ****     }
2287:TOOL/cJSON.c  **** 
2288:TOOL/cJSON.c  ****     a = cJSON_CreateArray();
 7576              		.loc 1 2288 5 is_stmt 1 view .LVU2174
 7577              		.loc 1 2288 9 is_stmt 0 view .LVU2175
 7578 000e FFF7FEFF 		bl	cJSON_CreateArray
 7579              	.LVL702:
 7580              		.loc 1 2288 9 view .LVU2176
 7581 0012 0646     		mov	r6, r0
 7582              	.LVL703:
2289:TOOL/cJSON.c  **** 
2290:TOOL/cJSON.c  ****     for(i = 0; a && (i < (size_t)count); i++)
 7583              		.loc 1 2290 5 is_stmt 1 view .LVU2177
2280:TOOL/cJSON.c  ****     cJSON *a = NULL;
 7584              		.loc 1 2280 12 is_stmt 0 view .LVU2178
 7585 0014 4FF00008 		mov	r8, #0
 7586              		.loc 1 2290 11 view .LVU2179
 7587 0018 4446     		mov	r4, r8
 7588              		.loc 1 2290 5 view .LVU2180
 7589 001a 0CE0     		b	.L650
 7590              	.LVL704:
 7591              	.L658:
2291:TOOL/cJSON.c  ****     {
ARM GAS  /var/folders/ww/n4ctlbrs3x70633t9y2ks63c0000gn/T//ccTX1xk7.s 			page 200


2292:TOOL/cJSON.c  ****         n = cJSON_CreateNumber((double)numbers[i]);
2293:TOOL/cJSON.c  ****         if(!n)
2294:TOOL/cJSON.c  ****         {
2295:TOOL/cJSON.c  ****             cJSON_Delete(a);
 7592              		.loc 1 2295 13 is_stmt 1 view .LVU2181
 7593 001c 3046     		mov	r0, r6
 7594              	.LVL705:
 7595              		.loc 1 2295 13 is_stmt 0 view .LVU2182
 7596 001e FFF7FEFF 		bl	cJSON_Delete
 7597              	.LVL706:
2296:TOOL/cJSON.c  ****             return NULL;
 7598              		.loc 1 2296 13 is_stmt 1 view .LVU2183
 7599              		.loc 1 2296 20 is_stmt 0 view .LVU2184
 7600 0022 2E46     		mov	r6, r5
 7601              	.LVL707:
 7602              	.L648:
2297:TOOL/cJSON.c  ****         }
2298:TOOL/cJSON.c  ****         if(!i)
2299:TOOL/cJSON.c  ****         {
2300:TOOL/cJSON.c  ****             a->child = n;
2301:TOOL/cJSON.c  ****         }
2302:TOOL/cJSON.c  ****         else
2303:TOOL/cJSON.c  ****         {
2304:TOOL/cJSON.c  ****             suffix_object(p, n);
2305:TOOL/cJSON.c  ****         }
2306:TOOL/cJSON.c  ****         p = n;
2307:TOOL/cJSON.c  ****     }
2308:TOOL/cJSON.c  **** 
2309:TOOL/cJSON.c  ****     return a;
2310:TOOL/cJSON.c  **** }
 7603              		.loc 1 2310 1 view .LVU2185
 7604 0024 3046     		mov	r0, r6
 7605 0026 BDE8F883 		pop	{r3, r4, r5, r6, r7, r8, r9, pc}
 7606              	.LVL708:
 7607              	.L652:
2304:TOOL/cJSON.c  ****         }
 7608              		.loc 1 2304 13 is_stmt 1 view .LVU2186
 7609 002a 0146     		mov	r1, r0
 7610 002c 4046     		mov	r0, r8
 7611              	.LVL709:
2304:TOOL/cJSON.c  ****         }
 7612              		.loc 1 2304 13 is_stmt 0 view .LVU2187
 7613 002e FFF7FEFF 		bl	suffix_object
 7614              	.LVL710:
 7615              	.L653:
2306:TOOL/cJSON.c  ****     }
 7616              		.loc 1 2306 9 is_stmt 1 discriminator 2 view .LVU2188
2290:TOOL/cJSON.c  ****     {
 7617              		.loc 1 2290 43 is_stmt 0 discriminator 2 view .LVU2189
 7618 0032 0134     		adds	r4, r4, #1
 7619              	.LVL711:
2306:TOOL/cJSON.c  ****     }
 7620              		.loc 1 2306 11 discriminator 2 view .LVU2190
 7621 0034 A846     		mov	r8, r5
 7622              	.LVL712:
 7623              	.L650:
2290:TOOL/cJSON.c  ****     {
ARM GAS  /var/folders/ww/n4ctlbrs3x70633t9y2ks63c0000gn/T//ccTX1xk7.s 			page 201


 7624              		.loc 1 2290 5 discriminator 1 view .LVU2191
 7625 0036 002E     		cmp	r6, #0
 7626 0038 F4D0     		beq	.L648
2290:TOOL/cJSON.c  ****     {
 7627              		.loc 1 2290 18 discriminator 3 view .LVU2192
 7628 003a A145     		cmp	r9, r4
 7629 003c F2D9     		bls	.L648
2292:TOOL/cJSON.c  ****         if(!n)
 7630              		.loc 1 2292 9 is_stmt 1 view .LVU2193
2292:TOOL/cJSON.c  ****         if(!n)
 7631              		.loc 1 2292 13 is_stmt 0 view .LVU2194
 7632 003e 57F82400 		ldr	r0, [r7, r4, lsl #2]	@ float
 7633 0042 FFF7FEFF 		bl	__aeabi_f2d
 7634              	.LVL713:
 7635 0046 FFF7FEFF 		bl	cJSON_CreateNumber
 7636              	.LVL714:
2293:TOOL/cJSON.c  ****         {
 7637              		.loc 1 2293 9 is_stmt 1 view .LVU2195
2293:TOOL/cJSON.c  ****         {
 7638              		.loc 1 2293 11 is_stmt 0 view .LVU2196
 7639 004a 0546     		mov	r5, r0
 7640 004c 0028     		cmp	r0, #0
 7641 004e E5D0     		beq	.L658
2298:TOOL/cJSON.c  ****         {
 7642              		.loc 1 2298 9 is_stmt 1 view .LVU2197
2298:TOOL/cJSON.c  ****         {
 7643              		.loc 1 2298 11 is_stmt 0 view .LVU2198
 7644 0050 002C     		cmp	r4, #0
 7645 0052 EAD1     		bne	.L652
2300:TOOL/cJSON.c  ****         }
 7646              		.loc 1 2300 13 is_stmt 1 view .LVU2199
2300:TOOL/cJSON.c  ****         }
 7647              		.loc 1 2300 22 is_stmt 0 view .LVU2200
 7648 0054 B060     		str	r0, [r6, #8]
 7649 0056 ECE7     		b	.L653
 7650              	.LVL715:
 7651              	.L655:
2285:TOOL/cJSON.c  ****     }
 7652              		.loc 1 2285 16 view .LVU2201
 7653 0058 0026     		movs	r6, #0
 7654 005a E3E7     		b	.L648
 7655              	.L656:
 7656 005c 0646     		mov	r6, r0
 7657 005e E1E7     		b	.L648
 7658              		.cfi_endproc
 7659              	.LFE141:
 7661              		.section	.text.cJSON_CreateDoubleArray,"ax",%progbits
 7662              		.align	1
 7663              		.global	cJSON_CreateDoubleArray
 7664              		.syntax unified
 7665              		.thumb
 7666              		.thumb_func
 7667              		.fpu softvfp
 7669              	cJSON_CreateDoubleArray:
 7670              	.LVL716:
 7671              	.LFB142:
2311:TOOL/cJSON.c  **** 
ARM GAS  /var/folders/ww/n4ctlbrs3x70633t9y2ks63c0000gn/T//ccTX1xk7.s 			page 202


2312:TOOL/cJSON.c  **** CJSON_PUBLIC(cJSON *) cJSON_CreateDoubleArray(const double *numbers, int count)
2313:TOOL/cJSON.c  **** {
 7672              		.loc 1 2313 1 is_stmt 1 view -0
 7673              		.cfi_startproc
 7674              		@ args = 0, pretend = 0, frame = 0
 7675              		@ frame_needed = 0, uses_anonymous_args = 0
 7676              		.loc 1 2313 1 is_stmt 0 view .LVU2203
 7677 0000 2DE9F843 		push	{r3, r4, r5, r6, r7, r8, r9, lr}
 7678              	.LCFI107:
 7679              		.cfi_def_cfa_offset 32
 7680              		.cfi_offset 3, -32
 7681              		.cfi_offset 4, -28
 7682              		.cfi_offset 5, -24
 7683              		.cfi_offset 6, -20
 7684              		.cfi_offset 7, -16
 7685              		.cfi_offset 8, -12
 7686              		.cfi_offset 9, -8
 7687              		.cfi_offset 14, -4
2314:TOOL/cJSON.c  ****     size_t i = 0;
 7688              		.loc 1 2314 5 is_stmt 1 view .LVU2204
 7689              	.LVL717:
2315:TOOL/cJSON.c  ****     cJSON *n = NULL;
 7690              		.loc 1 2315 5 view .LVU2205
2316:TOOL/cJSON.c  ****     cJSON *p = NULL;
 7691              		.loc 1 2316 5 view .LVU2206
2317:TOOL/cJSON.c  ****     cJSON *a = NULL;
 7692              		.loc 1 2317 5 view .LVU2207
2318:TOOL/cJSON.c  **** 
2319:TOOL/cJSON.c  ****     if ((count < 0) || (numbers == NULL))
 7693              		.loc 1 2319 5 view .LVU2208
 7694              		.loc 1 2319 8 is_stmt 0 view .LVU2209
 7695 0004 B1F10009 		subs	r9, r1, #0
 7696 0008 26DB     		blt	.L666
 7697              		.loc 1 2319 21 discriminator 1 view .LVU2210
 7698 000a 38B3     		cbz	r0, .L667
 7699 000c 0746     		mov	r7, r0
2320:TOOL/cJSON.c  ****     {
2321:TOOL/cJSON.c  ****         return NULL;
2322:TOOL/cJSON.c  ****     }
2323:TOOL/cJSON.c  **** 
2324:TOOL/cJSON.c  ****     a = cJSON_CreateArray();
 7700              		.loc 1 2324 5 is_stmt 1 view .LVU2211
 7701              		.loc 1 2324 9 is_stmt 0 view .LVU2212
 7702 000e FFF7FEFF 		bl	cJSON_CreateArray
 7703              	.LVL718:
 7704              		.loc 1 2324 9 view .LVU2213
 7705 0012 0646     		mov	r6, r0
 7706              	.LVL719:
2325:TOOL/cJSON.c  **** 
2326:TOOL/cJSON.c  ****     for(i = 0;a && (i < (size_t)count); i++)
 7707              		.loc 1 2326 5 is_stmt 1 view .LVU2214
2316:TOOL/cJSON.c  ****     cJSON *a = NULL;
 7708              		.loc 1 2316 12 is_stmt 0 view .LVU2215
 7709 0014 4FF00008 		mov	r8, #0
 7710              		.loc 1 2326 11 view .LVU2216
 7711 0018 4446     		mov	r4, r8
 7712              		.loc 1 2326 5 view .LVU2217
ARM GAS  /var/folders/ww/n4ctlbrs3x70633t9y2ks63c0000gn/T//ccTX1xk7.s 			page 203


 7713 001a 0CE0     		b	.L661
 7714              	.LVL720:
 7715              	.L669:
2327:TOOL/cJSON.c  ****     {
2328:TOOL/cJSON.c  ****         n = cJSON_CreateNumber(numbers[i]);
2329:TOOL/cJSON.c  ****         if(!n)
2330:TOOL/cJSON.c  ****         {
2331:TOOL/cJSON.c  ****             cJSON_Delete(a);
 7716              		.loc 1 2331 13 is_stmt 1 view .LVU2218
 7717 001c 3046     		mov	r0, r6
 7718              	.LVL721:
 7719              		.loc 1 2331 13 is_stmt 0 view .LVU2219
 7720 001e FFF7FEFF 		bl	cJSON_Delete
 7721              	.LVL722:
2332:TOOL/cJSON.c  ****             return NULL;
 7722              		.loc 1 2332 13 is_stmt 1 view .LVU2220
 7723              		.loc 1 2332 20 is_stmt 0 view .LVU2221
 7724 0022 2E46     		mov	r6, r5
 7725              	.LVL723:
 7726              	.L659:
2333:TOOL/cJSON.c  ****         }
2334:TOOL/cJSON.c  ****         if(!i)
2335:TOOL/cJSON.c  ****         {
2336:TOOL/cJSON.c  ****             a->child = n;
2337:TOOL/cJSON.c  ****         }
2338:TOOL/cJSON.c  ****         else
2339:TOOL/cJSON.c  ****         {
2340:TOOL/cJSON.c  ****             suffix_object(p, n);
2341:TOOL/cJSON.c  ****         }
2342:TOOL/cJSON.c  ****         p = n;
2343:TOOL/cJSON.c  ****     }
2344:TOOL/cJSON.c  **** 
2345:TOOL/cJSON.c  ****     return a;
2346:TOOL/cJSON.c  **** }
 7727              		.loc 1 2346 1 view .LVU2222
 7728 0024 3046     		mov	r0, r6
 7729 0026 BDE8F883 		pop	{r3, r4, r5, r6, r7, r8, r9, pc}
 7730              	.LVL724:
 7731              	.L663:
2340:TOOL/cJSON.c  ****         }
 7732              		.loc 1 2340 13 is_stmt 1 view .LVU2223
 7733 002a 0146     		mov	r1, r0
 7734 002c 4046     		mov	r0, r8
 7735              	.LVL725:
2340:TOOL/cJSON.c  ****         }
 7736              		.loc 1 2340 13 is_stmt 0 view .LVU2224
 7737 002e FFF7FEFF 		bl	suffix_object
 7738              	.LVL726:
 7739              	.L664:
2342:TOOL/cJSON.c  ****     }
 7740              		.loc 1 2342 9 is_stmt 1 discriminator 2 view .LVU2225
2326:TOOL/cJSON.c  ****     {
 7741              		.loc 1 2326 42 is_stmt 0 discriminator 2 view .LVU2226
 7742 0032 0134     		adds	r4, r4, #1
 7743              	.LVL727:
2342:TOOL/cJSON.c  ****     }
 7744              		.loc 1 2342 11 discriminator 2 view .LVU2227
ARM GAS  /var/folders/ww/n4ctlbrs3x70633t9y2ks63c0000gn/T//ccTX1xk7.s 			page 204


 7745 0034 A846     		mov	r8, r5
 7746              	.LVL728:
 7747              	.L661:
2326:TOOL/cJSON.c  ****     {
 7748              		.loc 1 2326 5 discriminator 1 view .LVU2228
 7749 0036 002E     		cmp	r6, #0
 7750 0038 F4D0     		beq	.L659
2326:TOOL/cJSON.c  ****     {
 7751              		.loc 1 2326 17 discriminator 3 view .LVU2229
 7752 003a A145     		cmp	r9, r4
 7753 003c F2D9     		bls	.L659
2328:TOOL/cJSON.c  ****         if(!n)
 7754              		.loc 1 2328 9 is_stmt 1 view .LVU2230
2328:TOOL/cJSON.c  ****         if(!n)
 7755              		.loc 1 2328 39 is_stmt 0 view .LVU2231
 7756 003e 07EBC403 		add	r3, r7, r4, lsl #3
2328:TOOL/cJSON.c  ****         if(!n)
 7757              		.loc 1 2328 13 view .LVU2232
 7758 0042 D3E90001 		ldrd	r0, [r3]
 7759 0046 FFF7FEFF 		bl	cJSON_CreateNumber
 7760              	.LVL729:
2329:TOOL/cJSON.c  ****         {
 7761              		.loc 1 2329 9 is_stmt 1 view .LVU2233
2329:TOOL/cJSON.c  ****         {
 7762              		.loc 1 2329 11 is_stmt 0 view .LVU2234
 7763 004a 0546     		mov	r5, r0
 7764 004c 0028     		cmp	r0, #0
 7765 004e E5D0     		beq	.L669
2334:TOOL/cJSON.c  ****         {
 7766              		.loc 1 2334 9 is_stmt 1 view .LVU2235
2334:TOOL/cJSON.c  ****         {
 7767              		.loc 1 2334 11 is_stmt 0 view .LVU2236
 7768 0050 002C     		cmp	r4, #0
 7769 0052 EAD1     		bne	.L663
2336:TOOL/cJSON.c  ****         }
 7770              		.loc 1 2336 13 is_stmt 1 view .LVU2237
2336:TOOL/cJSON.c  ****         }
 7771              		.loc 1 2336 22 is_stmt 0 view .LVU2238
 7772 0054 B060     		str	r0, [r6, #8]
 7773 0056 ECE7     		b	.L664
 7774              	.LVL730:
 7775              	.L666:
2321:TOOL/cJSON.c  ****     }
 7776              		.loc 1 2321 16 view .LVU2239
 7777 0058 0026     		movs	r6, #0
 7778 005a E3E7     		b	.L659
 7779              	.L667:
 7780 005c 0646     		mov	r6, r0
 7781 005e E1E7     		b	.L659
 7782              		.cfi_endproc
 7783              	.LFE142:
 7785              		.section	.text.cJSON_CreateStringArray,"ax",%progbits
 7786              		.align	1
 7787              		.global	cJSON_CreateStringArray
 7788              		.syntax unified
 7789              		.thumb
 7790              		.thumb_func
ARM GAS  /var/folders/ww/n4ctlbrs3x70633t9y2ks63c0000gn/T//ccTX1xk7.s 			page 205


 7791              		.fpu softvfp
 7793              	cJSON_CreateStringArray:
 7794              	.LVL731:
 7795              	.LFB143:
2347:TOOL/cJSON.c  **** 
2348:TOOL/cJSON.c  **** CJSON_PUBLIC(cJSON *) cJSON_CreateStringArray(const char **strings, int count)
2349:TOOL/cJSON.c  **** {
 7796              		.loc 1 2349 1 is_stmt 1 view -0
 7797              		.cfi_startproc
 7798              		@ args = 0, pretend = 0, frame = 0
 7799              		@ frame_needed = 0, uses_anonymous_args = 0
 7800              		.loc 1 2349 1 is_stmt 0 view .LVU2241
 7801 0000 2DE9F843 		push	{r3, r4, r5, r6, r7, r8, r9, lr}
 7802              	.LCFI108:
 7803              		.cfi_def_cfa_offset 32
 7804              		.cfi_offset 3, -32
 7805              		.cfi_offset 4, -28
 7806              		.cfi_offset 5, -24
 7807              		.cfi_offset 6, -20
 7808              		.cfi_offset 7, -16
 7809              		.cfi_offset 8, -12
 7810              		.cfi_offset 9, -8
 7811              		.cfi_offset 14, -4
2350:TOOL/cJSON.c  ****     size_t i = 0;
 7812              		.loc 1 2350 5 is_stmt 1 view .LVU2242
 7813              	.LVL732:
2351:TOOL/cJSON.c  ****     cJSON *n = NULL;
 7814              		.loc 1 2351 5 view .LVU2243
2352:TOOL/cJSON.c  ****     cJSON *p = NULL;
 7815              		.loc 1 2352 5 view .LVU2244
2353:TOOL/cJSON.c  ****     cJSON *a = NULL;
 7816              		.loc 1 2353 5 view .LVU2245
2354:TOOL/cJSON.c  **** 
2355:TOOL/cJSON.c  ****     if ((count < 0) || (strings == NULL))
 7817              		.loc 1 2355 5 view .LVU2246
 7818              		.loc 1 2355 8 is_stmt 0 view .LVU2247
 7819 0004 B1F10009 		subs	r9, r1, #0
 7820 0008 24DB     		blt	.L677
 7821              		.loc 1 2355 21 discriminator 1 view .LVU2248
 7822 000a 28B3     		cbz	r0, .L678
 7823 000c 0746     		mov	r7, r0
2356:TOOL/cJSON.c  ****     {
2357:TOOL/cJSON.c  ****         return NULL;
2358:TOOL/cJSON.c  ****     }
2359:TOOL/cJSON.c  **** 
2360:TOOL/cJSON.c  ****     a = cJSON_CreateArray();
 7824              		.loc 1 2360 5 is_stmt 1 view .LVU2249
 7825              		.loc 1 2360 9 is_stmt 0 view .LVU2250
 7826 000e FFF7FEFF 		bl	cJSON_CreateArray
 7827              	.LVL733:
 7828              		.loc 1 2360 9 view .LVU2251
 7829 0012 0646     		mov	r6, r0
 7830              	.LVL734:
2361:TOOL/cJSON.c  **** 
2362:TOOL/cJSON.c  ****     for (i = 0; a && (i < (size_t)count); i++)
 7831              		.loc 1 2362 5 is_stmt 1 view .LVU2252
2352:TOOL/cJSON.c  ****     cJSON *a = NULL;
ARM GAS  /var/folders/ww/n4ctlbrs3x70633t9y2ks63c0000gn/T//ccTX1xk7.s 			page 206


 7832              		.loc 1 2352 12 is_stmt 0 view .LVU2253
 7833 0014 4FF00008 		mov	r8, #0
 7834              		.loc 1 2362 12 view .LVU2254
 7835 0018 4446     		mov	r4, r8
 7836              		.loc 1 2362 5 view .LVU2255
 7837 001a 0CE0     		b	.L672
 7838              	.LVL735:
 7839              	.L680:
2363:TOOL/cJSON.c  ****     {
2364:TOOL/cJSON.c  ****         n = cJSON_CreateString(strings[i]);
2365:TOOL/cJSON.c  ****         if(!n)
2366:TOOL/cJSON.c  ****         {
2367:TOOL/cJSON.c  ****             cJSON_Delete(a);
 7840              		.loc 1 2367 13 is_stmt 1 view .LVU2256
 7841 001c 3046     		mov	r0, r6
 7842              	.LVL736:
 7843              		.loc 1 2367 13 is_stmt 0 view .LVU2257
 7844 001e FFF7FEFF 		bl	cJSON_Delete
 7845              	.LVL737:
2368:TOOL/cJSON.c  ****             return NULL;
 7846              		.loc 1 2368 13 is_stmt 1 view .LVU2258
 7847              		.loc 1 2368 20 is_stmt 0 view .LVU2259
 7848 0022 2E46     		mov	r6, r5
 7849              	.LVL738:
 7850              	.L670:
2369:TOOL/cJSON.c  ****         }
2370:TOOL/cJSON.c  ****         if(!i)
2371:TOOL/cJSON.c  ****         {
2372:TOOL/cJSON.c  ****             a->child = n;
2373:TOOL/cJSON.c  ****         }
2374:TOOL/cJSON.c  ****         else
2375:TOOL/cJSON.c  ****         {
2376:TOOL/cJSON.c  ****             suffix_object(p,n);
2377:TOOL/cJSON.c  ****         }
2378:TOOL/cJSON.c  ****         p = n;
2379:TOOL/cJSON.c  ****     }
2380:TOOL/cJSON.c  **** 
2381:TOOL/cJSON.c  ****     return a;
2382:TOOL/cJSON.c  **** }
 7851              		.loc 1 2382 1 view .LVU2260
 7852 0024 3046     		mov	r0, r6
 7853 0026 BDE8F883 		pop	{r3, r4, r5, r6, r7, r8, r9, pc}
 7854              	.LVL739:
 7855              	.L674:
2376:TOOL/cJSON.c  ****         }
 7856              		.loc 1 2376 13 is_stmt 1 view .LVU2261
 7857 002a 0146     		mov	r1, r0
 7858 002c 4046     		mov	r0, r8
 7859              	.LVL740:
2376:TOOL/cJSON.c  ****         }
 7860              		.loc 1 2376 13 is_stmt 0 view .LVU2262
 7861 002e FFF7FEFF 		bl	suffix_object
 7862              	.LVL741:
 7863              	.L675:
2378:TOOL/cJSON.c  ****     }
 7864              		.loc 1 2378 9 is_stmt 1 discriminator 2 view .LVU2263
2362:TOOL/cJSON.c  ****     {
ARM GAS  /var/folders/ww/n4ctlbrs3x70633t9y2ks63c0000gn/T//ccTX1xk7.s 			page 207


 7865              		.loc 1 2362 44 is_stmt 0 discriminator 2 view .LVU2264
 7866 0032 0134     		adds	r4, r4, #1
 7867              	.LVL742:
2378:TOOL/cJSON.c  ****     }
 7868              		.loc 1 2378 11 discriminator 2 view .LVU2265
 7869 0034 A846     		mov	r8, r5
 7870              	.LVL743:
 7871              	.L672:
2362:TOOL/cJSON.c  ****     {
 7872              		.loc 1 2362 5 discriminator 1 view .LVU2266
 7873 0036 002E     		cmp	r6, #0
 7874 0038 F4D0     		beq	.L670
2362:TOOL/cJSON.c  ****     {
 7875              		.loc 1 2362 19 discriminator 3 view .LVU2267
 7876 003a A145     		cmp	r9, r4
 7877 003c F2D9     		bls	.L670
2364:TOOL/cJSON.c  ****         if(!n)
 7878              		.loc 1 2364 9 is_stmt 1 view .LVU2268
2364:TOOL/cJSON.c  ****         if(!n)
 7879              		.loc 1 2364 13 is_stmt 0 view .LVU2269
 7880 003e 57F82400 		ldr	r0, [r7, r4, lsl #2]
 7881 0042 FFF7FEFF 		bl	cJSON_CreateString
 7882              	.LVL744:
2365:TOOL/cJSON.c  ****         {
 7883              		.loc 1 2365 9 is_stmt 1 view .LVU2270
2365:TOOL/cJSON.c  ****         {
 7884              		.loc 1 2365 11 is_stmt 0 view .LVU2271
 7885 0046 0546     		mov	r5, r0
 7886 0048 0028     		cmp	r0, #0
 7887 004a E7D0     		beq	.L680
2370:TOOL/cJSON.c  ****         {
 7888              		.loc 1 2370 9 is_stmt 1 view .LVU2272
2370:TOOL/cJSON.c  ****         {
 7889              		.loc 1 2370 11 is_stmt 0 view .LVU2273
 7890 004c 002C     		cmp	r4, #0
 7891 004e ECD1     		bne	.L674
2372:TOOL/cJSON.c  ****         }
 7892              		.loc 1 2372 13 is_stmt 1 view .LVU2274
2372:TOOL/cJSON.c  ****         }
 7893              		.loc 1 2372 22 is_stmt 0 view .LVU2275
 7894 0050 B060     		str	r0, [r6, #8]
 7895 0052 EEE7     		b	.L675
 7896              	.LVL745:
 7897              	.L677:
2357:TOOL/cJSON.c  ****     }
 7898              		.loc 1 2357 16 view .LVU2276
 7899 0054 0026     		movs	r6, #0
 7900 0056 E5E7     		b	.L670
 7901              	.L678:
 7902 0058 0646     		mov	r6, r0
 7903 005a E3E7     		b	.L670
 7904              		.cfi_endproc
 7905              	.LFE143:
 7907              		.section	.text.cJSON_Duplicate,"ax",%progbits
 7908              		.align	1
 7909              		.global	cJSON_Duplicate
 7910              		.syntax unified
ARM GAS  /var/folders/ww/n4ctlbrs3x70633t9y2ks63c0000gn/T//ccTX1xk7.s 			page 208


 7911              		.thumb
 7912              		.thumb_func
 7913              		.fpu softvfp
 7915              	cJSON_Duplicate:
 7916              	.LVL746:
 7917              	.LFB144:
2383:TOOL/cJSON.c  **** 
2384:TOOL/cJSON.c  **** /* Duplication */
2385:TOOL/cJSON.c  **** CJSON_PUBLIC(cJSON *) cJSON_Duplicate(const cJSON *item, cJSON_bool recurse)
2386:TOOL/cJSON.c  **** {
 7918              		.loc 1 2386 1 is_stmt 1 view -0
 7919              		.cfi_startproc
 7920              		@ args = 0, pretend = 0, frame = 0
 7921              		@ frame_needed = 0, uses_anonymous_args = 0
 7922              		.loc 1 2386 1 is_stmt 0 view .LVU2278
 7923 0000 70B5     		push	{r4, r5, r6, lr}
 7924              	.LCFI109:
 7925              		.cfi_def_cfa_offset 16
 7926              		.cfi_offset 4, -16
 7927              		.cfi_offset 5, -12
 7928              		.cfi_offset 6, -8
 7929              		.cfi_offset 14, -4
2387:TOOL/cJSON.c  ****     cJSON *newitem = NULL;
 7930              		.loc 1 2387 5 is_stmt 1 view .LVU2279
 7931              	.LVL747:
2388:TOOL/cJSON.c  ****     cJSON *child = NULL;
 7932              		.loc 1 2388 5 view .LVU2280
2389:TOOL/cJSON.c  ****     cJSON *next = NULL;
 7933              		.loc 1 2389 5 view .LVU2281
2390:TOOL/cJSON.c  ****     cJSON *newchild = NULL;
 7934              		.loc 1 2390 5 view .LVU2282
2391:TOOL/cJSON.c  **** 
2392:TOOL/cJSON.c  ****     /* Bail on bad ptr */
2393:TOOL/cJSON.c  ****     if (!item)
 7935              		.loc 1 2393 5 view .LVU2283
 7936              		.loc 1 2393 8 is_stmt 0 view .LVU2284
 7937 0002 0446     		mov	r4, r0
 7938 0004 0028     		cmp	r0, #0
 7939 0006 3DD0     		beq	.L691
 7940 0008 0D46     		mov	r5, r1
2394:TOOL/cJSON.c  ****     {
2395:TOOL/cJSON.c  ****         goto fail;
2396:TOOL/cJSON.c  ****     }
2397:TOOL/cJSON.c  ****     /* Create new item */
2398:TOOL/cJSON.c  ****     newitem = cJSON_New_Item(&global_hooks);
 7941              		.loc 1 2398 5 is_stmt 1 view .LVU2285
 7942              		.loc 1 2398 15 is_stmt 0 view .LVU2286
 7943 000a 1F48     		ldr	r0, .L694
 7944              	.LVL748:
 7945              		.loc 1 2398 15 view .LVU2287
 7946 000c FFF7FEFF 		bl	cJSON_New_Item
 7947              	.LVL749:
2399:TOOL/cJSON.c  ****     if (!newitem)
 7948              		.loc 1 2399 5 is_stmt 1 view .LVU2288
 7949              		.loc 1 2399 8 is_stmt 0 view .LVU2289
 7950 0010 0646     		mov	r6, r0
 7951 0012 0028     		cmp	r0, #0
ARM GAS  /var/folders/ww/n4ctlbrs3x70633t9y2ks63c0000gn/T//ccTX1xk7.s 			page 209


 7952 0014 2FD0     		beq	.L683
2400:TOOL/cJSON.c  ****     {
2401:TOOL/cJSON.c  ****         goto fail;
2402:TOOL/cJSON.c  ****     }
2403:TOOL/cJSON.c  ****     /* Copy over all vars */
2404:TOOL/cJSON.c  ****     newitem->type = item->type & (~cJSON_IsReference);
 7953              		.loc 1 2404 5 is_stmt 1 view .LVU2290
 7954              		.loc 1 2404 25 is_stmt 0 view .LVU2291
 7955 0016 E368     		ldr	r3, [r4, #12]
 7956              		.loc 1 2404 32 view .LVU2292
 7957 0018 23F48073 		bic	r3, r3, #256
 7958              		.loc 1 2404 19 view .LVU2293
 7959 001c C360     		str	r3, [r0, #12]
2405:TOOL/cJSON.c  ****     newitem->valueint = item->valueint;
 7960              		.loc 1 2405 5 is_stmt 1 view .LVU2294
 7961              		.loc 1 2405 29 is_stmt 0 view .LVU2295
 7962 001e 6369     		ldr	r3, [r4, #20]
 7963              		.loc 1 2405 23 view .LVU2296
 7964 0020 4361     		str	r3, [r0, #20]
2406:TOOL/cJSON.c  ****     newitem->valuedouble = item->valuedouble;
 7965              		.loc 1 2406 5 is_stmt 1 view .LVU2297
 7966              		.loc 1 2406 32 is_stmt 0 view .LVU2298
 7967 0022 D4E90623 		ldrd	r2, [r4, #24]
 7968              		.loc 1 2406 26 view .LVU2299
 7969 0026 C0E90623 		strd	r2, [r0, #24]
2407:TOOL/cJSON.c  ****     if (item->valuestring)
 7970              		.loc 1 2407 5 is_stmt 1 view .LVU2300
 7971              		.loc 1 2407 13 is_stmt 0 view .LVU2301
 7972 002a 2069     		ldr	r0, [r4, #16]
 7973              	.LVL750:
 7974              		.loc 1 2407 8 view .LVU2302
 7975 002c 20B1     		cbz	r0, .L684
2408:TOOL/cJSON.c  ****     {
2409:TOOL/cJSON.c  ****         newitem->valuestring = (char*)cJSON_strdup((unsigned char*)item->valuestring, &global_hooks
 7976              		.loc 1 2409 9 is_stmt 1 view .LVU2303
 7977              		.loc 1 2409 39 is_stmt 0 view .LVU2304
 7978 002e 1649     		ldr	r1, .L694
 7979 0030 FFF7FEFF 		bl	cJSON_strdup
 7980              	.LVL751:
 7981              		.loc 1 2409 30 view .LVU2305
 7982 0034 3061     		str	r0, [r6, #16]
2410:TOOL/cJSON.c  ****         if (!newitem->valuestring)
 7983              		.loc 1 2410 9 is_stmt 1 view .LVU2306
 7984              		.loc 1 2410 12 is_stmt 0 view .LVU2307
 7985 0036 F0B1     		cbz	r0, .L683
 7986              	.L684:
2411:TOOL/cJSON.c  ****         {
2412:TOOL/cJSON.c  ****             goto fail;
2413:TOOL/cJSON.c  ****         }
2414:TOOL/cJSON.c  ****     }
2415:TOOL/cJSON.c  ****     if (item->string)
 7987              		.loc 1 2415 5 is_stmt 1 view .LVU2308
 7988              		.loc 1 2415 13 is_stmt 0 view .LVU2309
 7989 0038 206A     		ldr	r0, [r4, #32]
 7990              		.loc 1 2415 8 view .LVU2310
 7991 003a 28B1     		cbz	r0, .L685
2416:TOOL/cJSON.c  ****     {
ARM GAS  /var/folders/ww/n4ctlbrs3x70633t9y2ks63c0000gn/T//ccTX1xk7.s 			page 210


2417:TOOL/cJSON.c  ****         newitem->string = (item->type&cJSON_StringIsConst) ? item->string : (char*)cJSON_strdup((un
 7992              		.loc 1 2417 9 is_stmt 1 view .LVU2311
 7993              		.loc 1 2417 32 is_stmt 0 view .LVU2312
 7994 003c E368     		ldr	r3, [r4, #12]
 7995              		.loc 1 2417 75 view .LVU2313
 7996 003e 13F4007F 		tst	r3, #512
 7997 0042 05D0     		beq	.L693
 7998              	.L686:
 7999              		.loc 1 2417 25 discriminator 4 view .LVU2314
 8000 0044 3062     		str	r0, [r6, #32]
2418:TOOL/cJSON.c  ****         if (!newitem->string)
 8001              		.loc 1 2418 9 is_stmt 1 discriminator 4 view .LVU2315
 8002              		.loc 1 2418 12 is_stmt 0 discriminator 4 view .LVU2316
 8003 0046 B0B1     		cbz	r0, .L683
 8004              	.L685:
2419:TOOL/cJSON.c  ****         {
2420:TOOL/cJSON.c  ****             goto fail;
2421:TOOL/cJSON.c  ****         }
2422:TOOL/cJSON.c  ****     }
2423:TOOL/cJSON.c  ****     /* If non-recursive, then we're done! */
2424:TOOL/cJSON.c  ****     if (!recurse)
 8005              		.loc 1 2424 5 is_stmt 1 view .LVU2317
 8006              		.loc 1 2424 8 is_stmt 0 view .LVU2318
 8007 0048 D5B1     		cbz	r5, .L681
2425:TOOL/cJSON.c  ****     {
2426:TOOL/cJSON.c  ****         return newitem;
2427:TOOL/cJSON.c  ****     }
2428:TOOL/cJSON.c  ****     /* Walk the ->next chain for the child. */
2429:TOOL/cJSON.c  ****     child = item->child;
 8008              		.loc 1 2429 5 is_stmt 1 view .LVU2319
 8009              		.loc 1 2429 11 is_stmt 0 view .LVU2320
 8010 004a A568     		ldr	r5, [r4, #8]
 8011              	.LVL752:
2430:TOOL/cJSON.c  ****     while (child != NULL)
 8012              		.loc 1 2430 5 is_stmt 1 view .LVU2321
2389:TOOL/cJSON.c  ****     cJSON *newchild = NULL;
 8013              		.loc 1 2389 12 is_stmt 0 view .LVU2322
 8014 004c 0024     		movs	r4, #0
 8015              	.LVL753:
 8016              		.loc 1 2430 11 view .LVU2323
 8017 004e 06E0     		b	.L687
 8018              	.LVL754:
 8019              	.L693:
2417:TOOL/cJSON.c  ****         if (!newitem->string)
 8020              		.loc 1 2417 84 discriminator 2 view .LVU2324
 8021 0050 0D49     		ldr	r1, .L694
 8022 0052 FFF7FEFF 		bl	cJSON_strdup
 8023              	.LVL755:
 8024 0056 F5E7     		b	.L686
 8025              	.LVL756:
 8026              	.L688:
2431:TOOL/cJSON.c  ****     {
2432:TOOL/cJSON.c  ****         newchild = cJSON_Duplicate(child, true); /* Duplicate (with recurse) each item in the ->nex
2433:TOOL/cJSON.c  ****         if (!newchild)
2434:TOOL/cJSON.c  ****         {
2435:TOOL/cJSON.c  ****             goto fail;
2436:TOOL/cJSON.c  ****         }
ARM GAS  /var/folders/ww/n4ctlbrs3x70633t9y2ks63c0000gn/T//ccTX1xk7.s 			page 211


2437:TOOL/cJSON.c  ****         if (next != NULL)
2438:TOOL/cJSON.c  ****         {
2439:TOOL/cJSON.c  ****             /* If newitem->child already set, then crosswire ->prev and ->next and move on */
2440:TOOL/cJSON.c  ****             next->next = newchild;
2441:TOOL/cJSON.c  ****             newchild->prev = next;
2442:TOOL/cJSON.c  ****             next = newchild;
2443:TOOL/cJSON.c  ****         }
2444:TOOL/cJSON.c  ****         else
2445:TOOL/cJSON.c  ****         {
2446:TOOL/cJSON.c  ****             /* Set newitem->child and move to it */
2447:TOOL/cJSON.c  ****             newitem->child = newchild;
 8027              		.loc 1 2447 13 is_stmt 1 view .LVU2325
 8028              		.loc 1 2447 28 is_stmt 0 view .LVU2326
 8029 0058 B060     		str	r0, [r6, #8]
2448:TOOL/cJSON.c  ****             next = newchild;
 8030              		.loc 1 2448 13 is_stmt 1 view .LVU2327
 8031              	.LVL757:
 8032              	.L689:
2449:TOOL/cJSON.c  ****         }
2450:TOOL/cJSON.c  ****         child = child->next;
 8033              		.loc 1 2450 9 view .LVU2328
 8034              		.loc 1 2450 15 is_stmt 0 view .LVU2329
 8035 005a 2D68     		ldr	r5, [r5]
 8036              	.LVL758:
 8037              		.loc 1 2450 15 view .LVU2330
 8038 005c 1C46     		mov	r4, r3
 8039              	.LVL759:
 8040              	.L687:
2430:TOOL/cJSON.c  ****     {
 8041              		.loc 1 2430 11 view .LVU2331
 8042 005e 7DB1     		cbz	r5, .L681
2432:TOOL/cJSON.c  ****         if (!newchild)
 8043              		.loc 1 2432 9 is_stmt 1 view .LVU2332
2432:TOOL/cJSON.c  ****         if (!newchild)
 8044              		.loc 1 2432 20 is_stmt 0 view .LVU2333
 8045 0060 0121     		movs	r1, #1
 8046 0062 2846     		mov	r0, r5
 8047 0064 FFF7FEFF 		bl	cJSON_Duplicate
 8048              	.LVL760:
2433:TOOL/cJSON.c  ****         {
 8049              		.loc 1 2433 9 is_stmt 1 view .LVU2334
2433:TOOL/cJSON.c  ****         {
 8050              		.loc 1 2433 12 is_stmt 0 view .LVU2335
 8051 0068 0346     		mov	r3, r0
 8052 006a 20B1     		cbz	r0, .L683
2437:TOOL/cJSON.c  ****         {
 8053              		.loc 1 2437 9 is_stmt 1 view .LVU2336
2437:TOOL/cJSON.c  ****         {
 8054              		.loc 1 2437 12 is_stmt 0 view .LVU2337
 8055 006c 002C     		cmp	r4, #0
 8056 006e F3D0     		beq	.L688
2440:TOOL/cJSON.c  ****             newchild->prev = next;
 8057              		.loc 1 2440 13 is_stmt 1 view .LVU2338
2440:TOOL/cJSON.c  ****             newchild->prev = next;
 8058              		.loc 1 2440 24 is_stmt 0 view .LVU2339
 8059 0070 2060     		str	r0, [r4]
2441:TOOL/cJSON.c  ****             next = newchild;
ARM GAS  /var/folders/ww/n4ctlbrs3x70633t9y2ks63c0000gn/T//ccTX1xk7.s 			page 212


 8060              		.loc 1 2441 13 is_stmt 1 view .LVU2340
2441:TOOL/cJSON.c  ****             next = newchild;
 8061              		.loc 1 2441 28 is_stmt 0 view .LVU2341
 8062 0072 4460     		str	r4, [r0, #4]
2442:TOOL/cJSON.c  ****         }
 8063              		.loc 1 2442 13 is_stmt 1 view .LVU2342
 8064              	.LVL761:
2442:TOOL/cJSON.c  ****         }
 8065              		.loc 1 2442 13 is_stmt 0 view .LVU2343
 8066 0074 F1E7     		b	.L689
 8067              	.LVL762:
 8068              	.L683:
2451:TOOL/cJSON.c  ****     }
2452:TOOL/cJSON.c  **** 
2453:TOOL/cJSON.c  ****     return newitem;
2454:TOOL/cJSON.c  **** 
2455:TOOL/cJSON.c  **** fail:
2456:TOOL/cJSON.c  ****     if (newitem != NULL)
 8069              		.loc 1 2456 5 is_stmt 1 view .LVU2344
 8070              		.loc 1 2456 8 is_stmt 0 view .LVU2345
 8071 0076 1EB1     		cbz	r6, .L681
2457:TOOL/cJSON.c  ****     {
2458:TOOL/cJSON.c  ****         cJSON_Delete(newitem);
 8072              		.loc 1 2458 9 is_stmt 1 view .LVU2346
 8073 0078 3046     		mov	r0, r6
 8074 007a FFF7FEFF 		bl	cJSON_Delete
 8075              	.LVL763:
2459:TOOL/cJSON.c  ****     }
2460:TOOL/cJSON.c  **** 
2461:TOOL/cJSON.c  ****     return NULL;
 8076              		.loc 1 2461 12 is_stmt 0 view .LVU2347
 8077 007e 0026     		movs	r6, #0
 8078              	.LVL764:
 8079              	.L681:
2462:TOOL/cJSON.c  **** }
 8080              		.loc 1 2462 1 view .LVU2348
 8081 0080 3046     		mov	r0, r6
 8082 0082 70BD     		pop	{r4, r5, r6, pc}
 8083              	.LVL765:
 8084              	.L691:
2461:TOOL/cJSON.c  **** }
 8085              		.loc 1 2461 12 view .LVU2349
 8086 0084 0646     		mov	r6, r0
 8087 0086 FBE7     		b	.L681
 8088              	.L695:
 8089              		.align	2
 8090              	.L694:
 8091 0088 00000000 		.word	.LANCHOR2
 8092              		.cfi_endproc
 8093              	.LFE144:
 8095              		.section	.text.cJSON_Minify,"ax",%progbits
 8096              		.align	1
 8097              		.global	cJSON_Minify
 8098              		.syntax unified
 8099              		.thumb
 8100              		.thumb_func
 8101              		.fpu softvfp
ARM GAS  /var/folders/ww/n4ctlbrs3x70633t9y2ks63c0000gn/T//ccTX1xk7.s 			page 213


 8103              	cJSON_Minify:
 8104              	.LVL766:
 8105              	.LFB145:
2463:TOOL/cJSON.c  **** 
2464:TOOL/cJSON.c  **** CJSON_PUBLIC(void) cJSON_Minify(char *json)
2465:TOOL/cJSON.c  **** {
 8106              		.loc 1 2465 1 is_stmt 1 view -0
 8107              		.cfi_startproc
 8108              		@ args = 0, pretend = 0, frame = 0
 8109              		@ frame_needed = 0, uses_anonymous_args = 0
 8110              		@ link register save eliminated.
2466:TOOL/cJSON.c  ****     unsigned char *into = (unsigned char*)json;
 8111              		.loc 1 2466 5 view .LVU2351
2467:TOOL/cJSON.c  **** 
2468:TOOL/cJSON.c  ****     if (json == NULL)
 8112              		.loc 1 2468 5 view .LVU2352
 8113              		.loc 1 2468 8 is_stmt 0 view .LVU2353
 8114 0000 0346     		mov	r3, r0
 8115 0002 0028     		cmp	r0, #0
 8116 0004 52D0     		beq	.L696
2466:TOOL/cJSON.c  ****     unsigned char *into = (unsigned char*)json;
 8117              		.loc 1 2466 20 view .LVU2354
 8118 0006 0146     		mov	r1, r0
 8119 0008 00E0     		b	.L698
 8120              	.LVL767:
 8121              	.L718:
2469:TOOL/cJSON.c  ****     {
2470:TOOL/cJSON.c  ****         return;
2471:TOOL/cJSON.c  ****     }
2472:TOOL/cJSON.c  **** 
2473:TOOL/cJSON.c  ****     while (*json)
2474:TOOL/cJSON.c  ****     {
2475:TOOL/cJSON.c  ****         if (*json == ' ')
2476:TOOL/cJSON.c  ****         {
2477:TOOL/cJSON.c  ****             json++;
 8122              		.loc 1 2477 13 is_stmt 1 view .LVU2355
 8123              		.loc 1 2477 17 is_stmt 0 view .LVU2356
 8124 000a 0133     		adds	r3, r3, #1
 8125              	.LVL768:
 8126              	.L698:
2473:TOOL/cJSON.c  ****     {
 8127              		.loc 1 2473 12 view .LVU2357
 8128 000c 1A78     		ldrb	r2, [r3]	@ zero_extendqisi2
2473:TOOL/cJSON.c  ****     {
 8129              		.loc 1 2473 11 view .LVU2358
 8130 000e 002A     		cmp	r2, #0
 8131 0010 4AD0     		beq	.L717
2475:TOOL/cJSON.c  ****         {
 8132              		.loc 1 2475 9 is_stmt 1 view .LVU2359
2475:TOOL/cJSON.c  ****         {
 8133              		.loc 1 2475 12 is_stmt 0 view .LVU2360
 8134 0012 202A     		cmp	r2, #32
 8135 0014 F9D0     		beq	.L718
2478:TOOL/cJSON.c  ****         }
2479:TOOL/cJSON.c  ****         else if (*json == '\t')
 8136              		.loc 1 2479 14 is_stmt 1 view .LVU2361
 8137              		.loc 1 2479 17 is_stmt 0 view .LVU2362
ARM GAS  /var/folders/ww/n4ctlbrs3x70633t9y2ks63c0000gn/T//ccTX1xk7.s 			page 214


 8138 0016 092A     		cmp	r2, #9
 8139 0018 0DD0     		beq	.L719
2480:TOOL/cJSON.c  ****         {
2481:TOOL/cJSON.c  ****             /* Whitespace characters. */
2482:TOOL/cJSON.c  ****             json++;
2483:TOOL/cJSON.c  ****         }
2484:TOOL/cJSON.c  ****         else if (*json == '\r')
 8140              		.loc 1 2484 14 is_stmt 1 view .LVU2363
 8141              		.loc 1 2484 17 is_stmt 0 view .LVU2364
 8142 001a 0D2A     		cmp	r2, #13
 8143 001c 0DD0     		beq	.L720
2485:TOOL/cJSON.c  ****         {
2486:TOOL/cJSON.c  ****             json++;
2487:TOOL/cJSON.c  ****         }
2488:TOOL/cJSON.c  ****         else if (*json=='\n')
 8144              		.loc 1 2488 14 is_stmt 1 view .LVU2365
 8145              		.loc 1 2488 17 is_stmt 0 view .LVU2366
 8146 001e 0A2A     		cmp	r2, #10
 8147 0020 0DD0     		beq	.L721
2489:TOOL/cJSON.c  ****         {
2490:TOOL/cJSON.c  ****             json++;
2491:TOOL/cJSON.c  ****         }
2492:TOOL/cJSON.c  ****         else if ((*json == '/') && (json[1] == '/'))
 8148              		.loc 1 2492 14 is_stmt 1 view .LVU2367
 8149              		.loc 1 2492 17 is_stmt 0 view .LVU2368
 8150 0022 2F2A     		cmp	r2, #47
 8151 0024 0DD0     		beq	.L722
 8152              	.L704:
2493:TOOL/cJSON.c  ****         {
2494:TOOL/cJSON.c  ****             /* double-slash comments, to end of line. */
2495:TOOL/cJSON.c  ****             while (*json && (*json != '\n'))
2496:TOOL/cJSON.c  ****             {
2497:TOOL/cJSON.c  ****                 json++;
2498:TOOL/cJSON.c  ****             }
2499:TOOL/cJSON.c  ****         }
2500:TOOL/cJSON.c  ****         else if ((*json == '/') && (json[1] == '*'))
 8153              		.loc 1 2500 14 is_stmt 1 view .LVU2369
 8154              		.loc 1 2500 17 is_stmt 0 view .LVU2370
 8155 0026 2F2A     		cmp	r2, #47
 8156 0028 16D0     		beq	.L723
 8157              	.L707:
2501:TOOL/cJSON.c  ****         {
2502:TOOL/cJSON.c  ****             /* multiline comments. */
2503:TOOL/cJSON.c  ****             while (*json && !((*json == '*') && (json[1] == '/')))
2504:TOOL/cJSON.c  ****             {
2505:TOOL/cJSON.c  ****                 json++;
2506:TOOL/cJSON.c  ****             }
2507:TOOL/cJSON.c  ****             json += 2;
2508:TOOL/cJSON.c  ****         }
2509:TOOL/cJSON.c  ****         else if (*json == '\"')
 8158              		.loc 1 2509 14 is_stmt 1 view .LVU2371
 8159              		.loc 1 2509 17 is_stmt 0 view .LVU2372
 8160 002a 222A     		cmp	r2, #34
 8161 002c 22D0     		beq	.L724
2510:TOOL/cJSON.c  ****         {
2511:TOOL/cJSON.c  ****             /* string literals, which are \" sensitive. */
2512:TOOL/cJSON.c  ****             *into++ = (unsigned char)*json++;
ARM GAS  /var/folders/ww/n4ctlbrs3x70633t9y2ks63c0000gn/T//ccTX1xk7.s 			page 215


2513:TOOL/cJSON.c  ****             while (*json && (*json != '\"'))
2514:TOOL/cJSON.c  ****             {
2515:TOOL/cJSON.c  ****                 if (*json == '\\')
2516:TOOL/cJSON.c  ****                 {
2517:TOOL/cJSON.c  ****                     *into++ = (unsigned char)*json++;
2518:TOOL/cJSON.c  ****                 }
2519:TOOL/cJSON.c  ****                 *into++ = (unsigned char)*json++;
2520:TOOL/cJSON.c  ****             }
2521:TOOL/cJSON.c  ****             *into++ = (unsigned char)*json++;
2522:TOOL/cJSON.c  ****         }
2523:TOOL/cJSON.c  ****         else
2524:TOOL/cJSON.c  ****         {
2525:TOOL/cJSON.c  ****             /* All other characters. */
2526:TOOL/cJSON.c  ****             *into++ = (unsigned char)*json++;
 8162              		.loc 1 2526 13 is_stmt 1 view .LVU2373
 8163              		.loc 1 2526 43 is_stmt 0 view .LVU2374
 8164 002e 0133     		adds	r3, r3, #1
 8165              	.LVL769:
 8166              		.loc 1 2526 21 view .LVU2375
 8167 0030 01F8012B 		strb	r2, [r1], #1
 8168              	.LVL770:
 8169              		.loc 1 2526 21 view .LVU2376
 8170 0034 EAE7     		b	.L698
 8171              	.LVL771:
 8172              	.L719:
2482:TOOL/cJSON.c  ****         }
 8173              		.loc 1 2482 13 is_stmt 1 view .LVU2377
2482:TOOL/cJSON.c  ****         }
 8174              		.loc 1 2482 17 is_stmt 0 view .LVU2378
 8175 0036 0133     		adds	r3, r3, #1
 8176              	.LVL772:
2482:TOOL/cJSON.c  ****         }
 8177              		.loc 1 2482 17 view .LVU2379
 8178 0038 E8E7     		b	.L698
 8179              	.L720:
2486:TOOL/cJSON.c  ****         }
 8180              		.loc 1 2486 13 is_stmt 1 view .LVU2380
2486:TOOL/cJSON.c  ****         }
 8181              		.loc 1 2486 17 is_stmt 0 view .LVU2381
 8182 003a 0133     		adds	r3, r3, #1
 8183              	.LVL773:
2486:TOOL/cJSON.c  ****         }
 8184              		.loc 1 2486 17 view .LVU2382
 8185 003c E6E7     		b	.L698
 8186              	.L721:
2490:TOOL/cJSON.c  ****         }
 8187              		.loc 1 2490 13 is_stmt 1 view .LVU2383
2490:TOOL/cJSON.c  ****         }
 8188              		.loc 1 2490 17 is_stmt 0 view .LVU2384
 8189 003e 0133     		adds	r3, r3, #1
 8190              	.LVL774:
2490:TOOL/cJSON.c  ****         }
 8191              		.loc 1 2490 17 view .LVU2385
 8192 0040 E4E7     		b	.L698
 8193              	.L722:
2492:TOOL/cJSON.c  ****         {
 8194              		.loc 1 2492 41 discriminator 1 view .LVU2386
ARM GAS  /var/folders/ww/n4ctlbrs3x70633t9y2ks63c0000gn/T//ccTX1xk7.s 			page 216


 8195 0042 5878     		ldrb	r0, [r3, #1]	@ zero_extendqisi2
2492:TOOL/cJSON.c  ****         {
 8196              		.loc 1 2492 33 discriminator 1 view .LVU2387
 8197 0044 2F28     		cmp	r0, #47
 8198 0046 EED1     		bne	.L704
 8199 0048 00E0     		b	.L705
 8200              	.L706:
2497:TOOL/cJSON.c  ****             }
 8201              		.loc 1 2497 17 is_stmt 1 view .LVU2388
2497:TOOL/cJSON.c  ****             }
 8202              		.loc 1 2497 21 is_stmt 0 view .LVU2389
 8203 004a 0133     		adds	r3, r3, #1
 8204              	.LVL775:
 8205              	.L705:
2495:TOOL/cJSON.c  ****             {
 8206              		.loc 1 2495 20 view .LVU2390
 8207 004c 1A78     		ldrb	r2, [r3]	@ zero_extendqisi2
2495:TOOL/cJSON.c  ****             {
 8208              		.loc 1 2495 19 view .LVU2391
 8209 004e 002A     		cmp	r2, #0
 8210 0050 DCD0     		beq	.L698
2495:TOOL/cJSON.c  ****             {
 8211              		.loc 1 2495 26 discriminator 1 view .LVU2392
 8212 0052 0A2A     		cmp	r2, #10
 8213 0054 F9D1     		bne	.L706
 8214 0056 D9E7     		b	.L698
 8215              	.L723:
2500:TOOL/cJSON.c  ****         {
 8216              		.loc 1 2500 41 discriminator 1 view .LVU2393
 8217 0058 5878     		ldrb	r0, [r3, #1]	@ zero_extendqisi2
2500:TOOL/cJSON.c  ****         {
 8218              		.loc 1 2500 33 discriminator 1 view .LVU2394
 8219 005a 2A28     		cmp	r0, #42
 8220 005c E5D1     		bne	.L707
 8221 005e 00E0     		b	.L708
 8222              	.L710:
2505:TOOL/cJSON.c  ****             }
 8223              		.loc 1 2505 17 is_stmt 1 view .LVU2395
2505:TOOL/cJSON.c  ****             }
 8224              		.loc 1 2505 21 is_stmt 0 view .LVU2396
 8225 0060 0133     		adds	r3, r3, #1
 8226              	.LVL776:
 8227              	.L708:
2503:TOOL/cJSON.c  ****             {
 8228              		.loc 1 2503 20 view .LVU2397
 8229 0062 1A78     		ldrb	r2, [r3]	@ zero_extendqisi2
2503:TOOL/cJSON.c  ****             {
 8230              		.loc 1 2503 19 view .LVU2398
 8231 0064 22B1     		cbz	r2, .L709
2503:TOOL/cJSON.c  ****             {
 8232              		.loc 1 2503 26 discriminator 1 view .LVU2399
 8233 0066 2A2A     		cmp	r2, #42
 8234 0068 FAD1     		bne	.L710
2503:TOOL/cJSON.c  ****             {
 8235              		.loc 1 2503 54 discriminator 2 view .LVU2400
 8236 006a 5A78     		ldrb	r2, [r3, #1]	@ zero_extendqisi2
2503:TOOL/cJSON.c  ****             {
ARM GAS  /var/folders/ww/n4ctlbrs3x70633t9y2ks63c0000gn/T//ccTX1xk7.s 			page 217


 8237              		.loc 1 2503 29 discriminator 2 view .LVU2401
 8238 006c 2F2A     		cmp	r2, #47
 8239 006e F7D1     		bne	.L710
 8240              	.L709:
2507:TOOL/cJSON.c  ****         }
 8241              		.loc 1 2507 13 is_stmt 1 view .LVU2402
2507:TOOL/cJSON.c  ****         }
 8242              		.loc 1 2507 18 is_stmt 0 view .LVU2403
 8243 0070 0233     		adds	r3, r3, #2
 8244              	.LVL777:
2507:TOOL/cJSON.c  ****         }
 8245              		.loc 1 2507 18 view .LVU2404
 8246 0072 CBE7     		b	.L698
 8247              	.L724:
2512:TOOL/cJSON.c  ****             while (*json && (*json != '\"'))
 8248              		.loc 1 2512 13 is_stmt 1 view .LVU2405
2512:TOOL/cJSON.c  ****             while (*json && (*json != '\"'))
 8249              		.loc 1 2512 43 is_stmt 0 view .LVU2406
 8250 0074 0133     		adds	r3, r3, #1
 8251              	.LVL778:
2512:TOOL/cJSON.c  ****             while (*json && (*json != '\"'))
 8252              		.loc 1 2512 21 view .LVU2407
 8253 0076 01F8012B 		strb	r2, [r1], #1
 8254              	.LVL779:
2513:TOOL/cJSON.c  ****             {
 8255              		.loc 1 2513 13 is_stmt 1 view .LVU2408
2513:TOOL/cJSON.c  ****             {
 8256              		.loc 1 2513 19 is_stmt 0 view .LVU2409
 8257 007a 05E0     		b	.L712
 8258              	.LVL780:
 8259              	.L713:
2519:TOOL/cJSON.c  ****             }
 8260              		.loc 1 2519 17 is_stmt 1 view .LVU2410
2519:TOOL/cJSON.c  ****             }
 8261              		.loc 1 2519 22 is_stmt 0 view .LVU2411
 8262 007c 0A46     		mov	r2, r1
2519:TOOL/cJSON.c  ****             }
 8263              		.loc 1 2519 27 view .LVU2412
 8264 007e 13F8011B 		ldrb	r1, [r3], #1	@ zero_extendqisi2
 8265              	.LVL781:
2519:TOOL/cJSON.c  ****             }
 8266              		.loc 1 2519 25 view .LVU2413
 8267 0082 02F8011B 		strb	r1, [r2], #1
 8268              	.LVL782:
2519:TOOL/cJSON.c  ****             }
 8269              		.loc 1 2519 22 view .LVU2414
 8270 0086 1146     		mov	r1, r2
 8271              	.LVL783:
 8272              	.L712:
2513:TOOL/cJSON.c  ****             {
 8273              		.loc 1 2513 20 view .LVU2415
 8274 0088 1878     		ldrb	r0, [r3]	@ zero_extendqisi2
2513:TOOL/cJSON.c  ****             {
 8275              		.loc 1 2513 19 view .LVU2416
 8276 008a 48B1     		cbz	r0, .L714
2513:TOOL/cJSON.c  ****             {
 8277              		.loc 1 2513 26 discriminator 1 view .LVU2417
ARM GAS  /var/folders/ww/n4ctlbrs3x70633t9y2ks63c0000gn/T//ccTX1xk7.s 			page 218


 8278 008c 2228     		cmp	r0, #34
 8279 008e 07D0     		beq	.L714
2515:TOOL/cJSON.c  ****                 {
 8280              		.loc 1 2515 17 is_stmt 1 view .LVU2418
2515:TOOL/cJSON.c  ****                 {
 8281              		.loc 1 2515 20 is_stmt 0 view .LVU2419
 8282 0090 5C28     		cmp	r0, #92
 8283 0092 F3D1     		bne	.L713
2517:TOOL/cJSON.c  ****                 }
 8284              		.loc 1 2517 21 is_stmt 1 view .LVU2420
2517:TOOL/cJSON.c  ****                 }
 8285              		.loc 1 2517 51 is_stmt 0 view .LVU2421
 8286 0094 0133     		adds	r3, r3, #1
 8287              	.LVL784:
2517:TOOL/cJSON.c  ****                 }
 8288              		.loc 1 2517 26 view .LVU2422
 8289 0096 0A46     		mov	r2, r1
2517:TOOL/cJSON.c  ****                 }
 8290              		.loc 1 2517 29 view .LVU2423
 8291 0098 02F8010B 		strb	r0, [r2], #1
2517:TOOL/cJSON.c  ****                 }
 8292              		.loc 1 2517 26 view .LVU2424
 8293 009c 1146     		mov	r1, r2
 8294              	.LVL785:
2517:TOOL/cJSON.c  ****                 }
 8295              		.loc 1 2517 26 view .LVU2425
 8296 009e EDE7     		b	.L713
 8297              	.LVL786:
 8298              	.L714:
2521:TOOL/cJSON.c  ****         }
 8299              		.loc 1 2521 13 is_stmt 1 view .LVU2426
2521:TOOL/cJSON.c  ****         }
 8300              		.loc 1 2521 43 is_stmt 0 view .LVU2427
 8301 00a0 0133     		adds	r3, r3, #1
 8302              	.LVL787:
2521:TOOL/cJSON.c  ****         }
 8303              		.loc 1 2521 21 view .LVU2428
 8304 00a2 01F8010B 		strb	r0, [r1], #1
 8305              	.LVL788:
2521:TOOL/cJSON.c  ****         }
 8306              		.loc 1 2521 21 view .LVU2429
 8307 00a6 B1E7     		b	.L698
 8308              	.LVL789:
 8309              	.L717:
2527:TOOL/cJSON.c  ****         }
2528:TOOL/cJSON.c  ****     }
2529:TOOL/cJSON.c  **** 
2530:TOOL/cJSON.c  ****     /* and null-terminate. */
2531:TOOL/cJSON.c  ****     *into = '\0';
 8310              		.loc 1 2531 5 is_stmt 1 view .LVU2430
 8311              		.loc 1 2531 11 is_stmt 0 view .LVU2431
 8312 00a8 0023     		movs	r3, #0
 8313              	.LVL790:
 8314              		.loc 1 2531 11 view .LVU2432
 8315 00aa 0B70     		strb	r3, [r1]
 8316              	.LVL791:
 8317              	.L696:
ARM GAS  /var/folders/ww/n4ctlbrs3x70633t9y2ks63c0000gn/T//ccTX1xk7.s 			page 219


2532:TOOL/cJSON.c  **** }
 8318              		.loc 1 2532 1 view .LVU2433
 8319 00ac 7047     		bx	lr
 8320              		.cfi_endproc
 8321              	.LFE145:
 8323              		.section	.text.cJSON_IsInvalid,"ax",%progbits
 8324              		.align	1
 8325              		.global	cJSON_IsInvalid
 8326              		.syntax unified
 8327              		.thumb
 8328              		.thumb_func
 8329              		.fpu softvfp
 8331              	cJSON_IsInvalid:
 8332              	.LVL792:
 8333              	.LFB146:
2533:TOOL/cJSON.c  **** 
2534:TOOL/cJSON.c  **** CJSON_PUBLIC(cJSON_bool) cJSON_IsInvalid(const cJSON * const item)
2535:TOOL/cJSON.c  **** {
 8334              		.loc 1 2535 1 is_stmt 1 view -0
 8335              		.cfi_startproc
 8336              		@ args = 0, pretend = 0, frame = 0
 8337              		@ frame_needed = 0, uses_anonymous_args = 0
 8338              		@ link register save eliminated.
2536:TOOL/cJSON.c  ****     if (item == NULL)
 8339              		.loc 1 2536 5 view .LVU2435
 8340              		.loc 1 2536 8 is_stmt 0 view .LVU2436
 8341 0000 20B1     		cbz	r0, .L727
2537:TOOL/cJSON.c  ****     {
2538:TOOL/cJSON.c  ****         return false;
2539:TOOL/cJSON.c  ****     }
2540:TOOL/cJSON.c  **** 
2541:TOOL/cJSON.c  ****     return (item->type & 0xFF) == cJSON_Invalid;
 8342              		.loc 1 2541 5 is_stmt 1 view .LVU2437
 8343              		.loc 1 2541 24 is_stmt 0 view .LVU2438
 8344 0002 007B     		ldrb	r0, [r0, #12]	@ zero_extendqisi2
 8345              	.LVL793:
 8346              		.loc 1 2541 32 view .LVU2439
 8347 0004 B0FA80F0 		clz	r0, r0
 8348 0008 4009     		lsrs	r0, r0, #5
 8349 000a 7047     		bx	lr
 8350              	.LVL794:
 8351              	.L727:
2538:TOOL/cJSON.c  ****     }
 8352              		.loc 1 2538 16 view .LVU2440
 8353 000c 0020     		movs	r0, #0
 8354              	.LVL795:
2542:TOOL/cJSON.c  **** }
 8355              		.loc 1 2542 1 view .LVU2441
 8356 000e 7047     		bx	lr
 8357              		.cfi_endproc
 8358              	.LFE146:
 8360              		.section	.text.cJSON_IsFalse,"ax",%progbits
 8361              		.align	1
 8362              		.global	cJSON_IsFalse
 8363              		.syntax unified
 8364              		.thumb
 8365              		.thumb_func
ARM GAS  /var/folders/ww/n4ctlbrs3x70633t9y2ks63c0000gn/T//ccTX1xk7.s 			page 220


 8366              		.fpu softvfp
 8368              	cJSON_IsFalse:
 8369              	.LVL796:
 8370              	.LFB147:
2543:TOOL/cJSON.c  **** 
2544:TOOL/cJSON.c  **** CJSON_PUBLIC(cJSON_bool) cJSON_IsFalse(const cJSON * const item)
2545:TOOL/cJSON.c  **** {
 8371              		.loc 1 2545 1 is_stmt 1 view -0
 8372              		.cfi_startproc
 8373              		@ args = 0, pretend = 0, frame = 0
 8374              		@ frame_needed = 0, uses_anonymous_args = 0
 8375              		@ link register save eliminated.
2546:TOOL/cJSON.c  ****     if (item == NULL)
 8376              		.loc 1 2546 5 view .LVU2443
 8377              		.loc 1 2546 8 is_stmt 0 view .LVU2444
 8378 0000 28B1     		cbz	r0, .L730
2547:TOOL/cJSON.c  ****     {
2548:TOOL/cJSON.c  ****         return false;
2549:TOOL/cJSON.c  ****     }
2550:TOOL/cJSON.c  **** 
2551:TOOL/cJSON.c  ****     return (item->type & 0xFF) == cJSON_False;
 8379              		.loc 1 2551 5 is_stmt 1 view .LVU2445
 8380              		.loc 1 2551 24 is_stmt 0 view .LVU2446
 8381 0002 007B     		ldrb	r0, [r0, #12]	@ zero_extendqisi2
 8382              	.LVL797:
 8383              		.loc 1 2551 32 view .LVU2447
 8384 0004 0128     		cmp	r0, #1
 8385 0006 14BF     		ite	ne
 8386 0008 0020     		movne	r0, #0
 8387 000a 0120     		moveq	r0, #1
 8388 000c 7047     		bx	lr
 8389              	.LVL798:
 8390              	.L730:
2548:TOOL/cJSON.c  ****     }
 8391              		.loc 1 2548 16 view .LVU2448
 8392 000e 0020     		movs	r0, #0
 8393              	.LVL799:
2552:TOOL/cJSON.c  **** }
 8394              		.loc 1 2552 1 view .LVU2449
 8395 0010 7047     		bx	lr
 8396              		.cfi_endproc
 8397              	.LFE147:
 8399              		.section	.text.cJSON_IsTrue,"ax",%progbits
 8400              		.align	1
 8401              		.global	cJSON_IsTrue
 8402              		.syntax unified
 8403              		.thumb
 8404              		.thumb_func
 8405              		.fpu softvfp
 8407              	cJSON_IsTrue:
 8408              	.LVL800:
 8409              	.LFB148:
2553:TOOL/cJSON.c  **** 
2554:TOOL/cJSON.c  **** CJSON_PUBLIC(cJSON_bool) cJSON_IsTrue(const cJSON * const item)
2555:TOOL/cJSON.c  **** {
 8410              		.loc 1 2555 1 is_stmt 1 view -0
 8411              		.cfi_startproc
ARM GAS  /var/folders/ww/n4ctlbrs3x70633t9y2ks63c0000gn/T//ccTX1xk7.s 			page 221


 8412              		@ args = 0, pretend = 0, frame = 0
 8413              		@ frame_needed = 0, uses_anonymous_args = 0
 8414              		@ link register save eliminated.
2556:TOOL/cJSON.c  ****     if (item == NULL)
 8415              		.loc 1 2556 5 view .LVU2451
 8416              		.loc 1 2556 8 is_stmt 0 view .LVU2452
 8417 0000 28B1     		cbz	r0, .L733
2557:TOOL/cJSON.c  ****     {
2558:TOOL/cJSON.c  ****         return false;
2559:TOOL/cJSON.c  ****     }
2560:TOOL/cJSON.c  **** 
2561:TOOL/cJSON.c  ****     return (item->type & 0xff) == cJSON_True;
 8418              		.loc 1 2561 5 is_stmt 1 view .LVU2453
 8419              		.loc 1 2561 24 is_stmt 0 view .LVU2454
 8420 0002 007B     		ldrb	r0, [r0, #12]	@ zero_extendqisi2
 8421              	.LVL801:
 8422              		.loc 1 2561 32 view .LVU2455
 8423 0004 0228     		cmp	r0, #2
 8424 0006 14BF     		ite	ne
 8425 0008 0020     		movne	r0, #0
 8426 000a 0120     		moveq	r0, #1
 8427 000c 7047     		bx	lr
 8428              	.LVL802:
 8429              	.L733:
2558:TOOL/cJSON.c  ****     }
 8430              		.loc 1 2558 16 view .LVU2456
 8431 000e 0020     		movs	r0, #0
 8432              	.LVL803:
2562:TOOL/cJSON.c  **** }
 8433              		.loc 1 2562 1 view .LVU2457
 8434 0010 7047     		bx	lr
 8435              		.cfi_endproc
 8436              	.LFE148:
 8438              		.section	.text.cJSON_IsBool,"ax",%progbits
 8439              		.align	1
 8440              		.global	cJSON_IsBool
 8441              		.syntax unified
 8442              		.thumb
 8443              		.thumb_func
 8444              		.fpu softvfp
 8446              	cJSON_IsBool:
 8447              	.LVL804:
 8448              	.LFB149:
2563:TOOL/cJSON.c  **** 
2564:TOOL/cJSON.c  **** 
2565:TOOL/cJSON.c  **** CJSON_PUBLIC(cJSON_bool) cJSON_IsBool(const cJSON * const item)
2566:TOOL/cJSON.c  **** {
 8449              		.loc 1 2566 1 is_stmt 1 view -0
 8450              		.cfi_startproc
 8451              		@ args = 0, pretend = 0, frame = 0
 8452              		@ frame_needed = 0, uses_anonymous_args = 0
 8453              		@ link register save eliminated.
2567:TOOL/cJSON.c  ****     if (item == NULL)
 8454              		.loc 1 2567 5 view .LVU2459
 8455              		.loc 1 2567 8 is_stmt 0 view .LVU2460
 8456 0000 28B1     		cbz	r0, .L736
2568:TOOL/cJSON.c  ****     {
ARM GAS  /var/folders/ww/n4ctlbrs3x70633t9y2ks63c0000gn/T//ccTX1xk7.s 			page 222


2569:TOOL/cJSON.c  ****         return false;
2570:TOOL/cJSON.c  ****     }
2571:TOOL/cJSON.c  **** 
2572:TOOL/cJSON.c  ****     return (item->type & (cJSON_True | cJSON_False)) != 0;
 8457              		.loc 1 2572 5 is_stmt 1 view .LVU2461
 8458              		.loc 1 2572 17 is_stmt 0 view .LVU2462
 8459 0002 C068     		ldr	r0, [r0, #12]
 8460              	.LVL805:
 8461              		.loc 1 2572 54 view .LVU2463
 8462 0004 10F00300 		ands	r0, r0, #3
 8463 0008 18BF     		it	ne
 8464 000a 0120     		movne	r0, #1
 8465 000c 7047     		bx	lr
 8466              	.LVL806:
 8467              	.L736:
2569:TOOL/cJSON.c  ****     }
 8468              		.loc 1 2569 16 view .LVU2464
 8469 000e 0020     		movs	r0, #0
 8470              	.LVL807:
2573:TOOL/cJSON.c  **** }
 8471              		.loc 1 2573 1 view .LVU2465
 8472 0010 7047     		bx	lr
 8473              		.cfi_endproc
 8474              	.LFE149:
 8476              		.section	.text.cJSON_IsNull,"ax",%progbits
 8477              		.align	1
 8478              		.global	cJSON_IsNull
 8479              		.syntax unified
 8480              		.thumb
 8481              		.thumb_func
 8482              		.fpu softvfp
 8484              	cJSON_IsNull:
 8485              	.LVL808:
 8486              	.LFB150:
2574:TOOL/cJSON.c  **** CJSON_PUBLIC(cJSON_bool) cJSON_IsNull(const cJSON * const item)
2575:TOOL/cJSON.c  **** {
 8487              		.loc 1 2575 1 is_stmt 1 view -0
 8488              		.cfi_startproc
 8489              		@ args = 0, pretend = 0, frame = 0
 8490              		@ frame_needed = 0, uses_anonymous_args = 0
 8491              		@ link register save eliminated.
2576:TOOL/cJSON.c  ****     if (item == NULL)
 8492              		.loc 1 2576 5 view .LVU2467
 8493              		.loc 1 2576 8 is_stmt 0 view .LVU2468
 8494 0000 28B1     		cbz	r0, .L739
2577:TOOL/cJSON.c  ****     {
2578:TOOL/cJSON.c  ****         return false;
2579:TOOL/cJSON.c  ****     }
2580:TOOL/cJSON.c  **** 
2581:TOOL/cJSON.c  ****     return (item->type & 0xFF) == cJSON_NULL;
 8495              		.loc 1 2581 5 is_stmt 1 view .LVU2469
 8496              		.loc 1 2581 24 is_stmt 0 view .LVU2470
 8497 0002 007B     		ldrb	r0, [r0, #12]	@ zero_extendqisi2
 8498              	.LVL809:
 8499              		.loc 1 2581 32 view .LVU2471
 8500 0004 0428     		cmp	r0, #4
 8501 0006 14BF     		ite	ne
ARM GAS  /var/folders/ww/n4ctlbrs3x70633t9y2ks63c0000gn/T//ccTX1xk7.s 			page 223


 8502 0008 0020     		movne	r0, #0
 8503 000a 0120     		moveq	r0, #1
 8504 000c 7047     		bx	lr
 8505              	.LVL810:
 8506              	.L739:
2578:TOOL/cJSON.c  ****     }
 8507              		.loc 1 2578 16 view .LVU2472
 8508 000e 0020     		movs	r0, #0
 8509              	.LVL811:
2582:TOOL/cJSON.c  **** }
 8510              		.loc 1 2582 1 view .LVU2473
 8511 0010 7047     		bx	lr
 8512              		.cfi_endproc
 8513              	.LFE150:
 8515              		.section	.text.cJSON_IsNumber,"ax",%progbits
 8516              		.align	1
 8517              		.global	cJSON_IsNumber
 8518              		.syntax unified
 8519              		.thumb
 8520              		.thumb_func
 8521              		.fpu softvfp
 8523              	cJSON_IsNumber:
 8524              	.LVL812:
 8525              	.LFB151:
2583:TOOL/cJSON.c  **** 
2584:TOOL/cJSON.c  **** CJSON_PUBLIC(cJSON_bool) cJSON_IsNumber(const cJSON * const item)
2585:TOOL/cJSON.c  **** {
 8526              		.loc 1 2585 1 is_stmt 1 view -0
 8527              		.cfi_startproc
 8528              		@ args = 0, pretend = 0, frame = 0
 8529              		@ frame_needed = 0, uses_anonymous_args = 0
 8530              		@ link register save eliminated.
2586:TOOL/cJSON.c  ****     if (item == NULL)
 8531              		.loc 1 2586 5 view .LVU2475
 8532              		.loc 1 2586 8 is_stmt 0 view .LVU2476
 8533 0000 28B1     		cbz	r0, .L742
2587:TOOL/cJSON.c  ****     {
2588:TOOL/cJSON.c  ****         return false;
2589:TOOL/cJSON.c  ****     }
2590:TOOL/cJSON.c  **** 
2591:TOOL/cJSON.c  ****     return (item->type & 0xFF) == cJSON_Number;
 8534              		.loc 1 2591 5 is_stmt 1 view .LVU2477
 8535              		.loc 1 2591 24 is_stmt 0 view .LVU2478
 8536 0002 007B     		ldrb	r0, [r0, #12]	@ zero_extendqisi2
 8537              	.LVL813:
 8538              		.loc 1 2591 32 view .LVU2479
 8539 0004 0828     		cmp	r0, #8
 8540 0006 14BF     		ite	ne
 8541 0008 0020     		movne	r0, #0
 8542 000a 0120     		moveq	r0, #1
 8543 000c 7047     		bx	lr
 8544              	.LVL814:
 8545              	.L742:
2588:TOOL/cJSON.c  ****     }
 8546              		.loc 1 2588 16 view .LVU2480
 8547 000e 0020     		movs	r0, #0
 8548              	.LVL815:
ARM GAS  /var/folders/ww/n4ctlbrs3x70633t9y2ks63c0000gn/T//ccTX1xk7.s 			page 224


2592:TOOL/cJSON.c  **** }
 8549              		.loc 1 2592 1 view .LVU2481
 8550 0010 7047     		bx	lr
 8551              		.cfi_endproc
 8552              	.LFE151:
 8554              		.section	.text.cJSON_IsString,"ax",%progbits
 8555              		.align	1
 8556              		.global	cJSON_IsString
 8557              		.syntax unified
 8558              		.thumb
 8559              		.thumb_func
 8560              		.fpu softvfp
 8562              	cJSON_IsString:
 8563              	.LVL816:
 8564              	.LFB152:
2593:TOOL/cJSON.c  **** 
2594:TOOL/cJSON.c  **** CJSON_PUBLIC(cJSON_bool) cJSON_IsString(const cJSON * const item)
2595:TOOL/cJSON.c  **** {
 8565              		.loc 1 2595 1 is_stmt 1 view -0
 8566              		.cfi_startproc
 8567              		@ args = 0, pretend = 0, frame = 0
 8568              		@ frame_needed = 0, uses_anonymous_args = 0
 8569              		@ link register save eliminated.
2596:TOOL/cJSON.c  ****     if (item == NULL)
 8570              		.loc 1 2596 5 view .LVU2483
 8571              		.loc 1 2596 8 is_stmt 0 view .LVU2484
 8572 0000 28B1     		cbz	r0, .L745
2597:TOOL/cJSON.c  ****     {
2598:TOOL/cJSON.c  ****         return false;
2599:TOOL/cJSON.c  ****     }
2600:TOOL/cJSON.c  **** 
2601:TOOL/cJSON.c  ****     return (item->type & 0xFF) == cJSON_String;
 8573              		.loc 1 2601 5 is_stmt 1 view .LVU2485
 8574              		.loc 1 2601 24 is_stmt 0 view .LVU2486
 8575 0002 007B     		ldrb	r0, [r0, #12]	@ zero_extendqisi2
 8576              	.LVL817:
 8577              		.loc 1 2601 32 view .LVU2487
 8578 0004 1028     		cmp	r0, #16
 8579 0006 14BF     		ite	ne
 8580 0008 0020     		movne	r0, #0
 8581 000a 0120     		moveq	r0, #1
 8582 000c 7047     		bx	lr
 8583              	.LVL818:
 8584              	.L745:
2598:TOOL/cJSON.c  ****     }
 8585              		.loc 1 2598 16 view .LVU2488
 8586 000e 0020     		movs	r0, #0
 8587              	.LVL819:
2602:TOOL/cJSON.c  **** }
 8588              		.loc 1 2602 1 view .LVU2489
 8589 0010 7047     		bx	lr
 8590              		.cfi_endproc
 8591              	.LFE152:
 8593              		.section	.text.cJSON_IsArray,"ax",%progbits
 8594              		.align	1
 8595              		.global	cJSON_IsArray
 8596              		.syntax unified
ARM GAS  /var/folders/ww/n4ctlbrs3x70633t9y2ks63c0000gn/T//ccTX1xk7.s 			page 225


 8597              		.thumb
 8598              		.thumb_func
 8599              		.fpu softvfp
 8601              	cJSON_IsArray:
 8602              	.LVL820:
 8603              	.LFB153:
2603:TOOL/cJSON.c  **** 
2604:TOOL/cJSON.c  **** CJSON_PUBLIC(cJSON_bool) cJSON_IsArray(const cJSON * const item)
2605:TOOL/cJSON.c  **** {
 8604              		.loc 1 2605 1 is_stmt 1 view -0
 8605              		.cfi_startproc
 8606              		@ args = 0, pretend = 0, frame = 0
 8607              		@ frame_needed = 0, uses_anonymous_args = 0
 8608              		@ link register save eliminated.
2606:TOOL/cJSON.c  ****     if (item == NULL)
 8609              		.loc 1 2606 5 view .LVU2491
 8610              		.loc 1 2606 8 is_stmt 0 view .LVU2492
 8611 0000 28B1     		cbz	r0, .L748
2607:TOOL/cJSON.c  ****     {
2608:TOOL/cJSON.c  ****         return false;
2609:TOOL/cJSON.c  ****     }
2610:TOOL/cJSON.c  **** 
2611:TOOL/cJSON.c  ****     return (item->type & 0xFF) == cJSON_Array;
 8612              		.loc 1 2611 5 is_stmt 1 view .LVU2493
 8613              		.loc 1 2611 24 is_stmt 0 view .LVU2494
 8614 0002 007B     		ldrb	r0, [r0, #12]	@ zero_extendqisi2
 8615              	.LVL821:
 8616              		.loc 1 2611 32 view .LVU2495
 8617 0004 2028     		cmp	r0, #32
 8618 0006 14BF     		ite	ne
 8619 0008 0020     		movne	r0, #0
 8620 000a 0120     		moveq	r0, #1
 8621 000c 7047     		bx	lr
 8622              	.LVL822:
 8623              	.L748:
2608:TOOL/cJSON.c  ****     }
 8624              		.loc 1 2608 16 view .LVU2496
 8625 000e 0020     		movs	r0, #0
 8626              	.LVL823:
2612:TOOL/cJSON.c  **** }
 8627              		.loc 1 2612 1 view .LVU2497
 8628 0010 7047     		bx	lr
 8629              		.cfi_endproc
 8630              	.LFE153:
 8632              		.section	.text.cJSON_IsObject,"ax",%progbits
 8633              		.align	1
 8634              		.global	cJSON_IsObject
 8635              		.syntax unified
 8636              		.thumb
 8637              		.thumb_func
 8638              		.fpu softvfp
 8640              	cJSON_IsObject:
 8641              	.LVL824:
 8642              	.LFB154:
2613:TOOL/cJSON.c  **** 
2614:TOOL/cJSON.c  **** CJSON_PUBLIC(cJSON_bool) cJSON_IsObject(const cJSON * const item)
2615:TOOL/cJSON.c  **** {
ARM GAS  /var/folders/ww/n4ctlbrs3x70633t9y2ks63c0000gn/T//ccTX1xk7.s 			page 226


 8643              		.loc 1 2615 1 is_stmt 1 view -0
 8644              		.cfi_startproc
 8645              		@ args = 0, pretend = 0, frame = 0
 8646              		@ frame_needed = 0, uses_anonymous_args = 0
 8647              		@ link register save eliminated.
2616:TOOL/cJSON.c  ****     if (item == NULL)
 8648              		.loc 1 2616 5 view .LVU2499
 8649              		.loc 1 2616 8 is_stmt 0 view .LVU2500
 8650 0000 28B1     		cbz	r0, .L751
2617:TOOL/cJSON.c  ****     {
2618:TOOL/cJSON.c  ****         return false;
2619:TOOL/cJSON.c  ****     }
2620:TOOL/cJSON.c  **** 
2621:TOOL/cJSON.c  ****     return (item->type & 0xFF) == cJSON_Object;
 8651              		.loc 1 2621 5 is_stmt 1 view .LVU2501
 8652              		.loc 1 2621 24 is_stmt 0 view .LVU2502
 8653 0002 007B     		ldrb	r0, [r0, #12]	@ zero_extendqisi2
 8654              	.LVL825:
 8655              		.loc 1 2621 32 view .LVU2503
 8656 0004 4028     		cmp	r0, #64
 8657 0006 14BF     		ite	ne
 8658 0008 0020     		movne	r0, #0
 8659 000a 0120     		moveq	r0, #1
 8660 000c 7047     		bx	lr
 8661              	.LVL826:
 8662              	.L751:
2618:TOOL/cJSON.c  ****     }
 8663              		.loc 1 2618 16 view .LVU2504
 8664 000e 0020     		movs	r0, #0
 8665              	.LVL827:
2622:TOOL/cJSON.c  **** }
 8666              		.loc 1 2622 1 view .LVU2505
 8667 0010 7047     		bx	lr
 8668              		.cfi_endproc
 8669              	.LFE154:
 8671              		.section	.text.cJSON_IsRaw,"ax",%progbits
 8672              		.align	1
 8673              		.global	cJSON_IsRaw
 8674              		.syntax unified
 8675              		.thumb
 8676              		.thumb_func
 8677              		.fpu softvfp
 8679              	cJSON_IsRaw:
 8680              	.LVL828:
 8681              	.LFB155:
2623:TOOL/cJSON.c  **** 
2624:TOOL/cJSON.c  **** CJSON_PUBLIC(cJSON_bool) cJSON_IsRaw(const cJSON * const item)
2625:TOOL/cJSON.c  **** {
 8682              		.loc 1 2625 1 is_stmt 1 view -0
 8683              		.cfi_startproc
 8684              		@ args = 0, pretend = 0, frame = 0
 8685              		@ frame_needed = 0, uses_anonymous_args = 0
 8686              		@ link register save eliminated.
2626:TOOL/cJSON.c  ****     if (item == NULL)
 8687              		.loc 1 2626 5 view .LVU2507
 8688              		.loc 1 2626 8 is_stmt 0 view .LVU2508
 8689 0000 28B1     		cbz	r0, .L754
ARM GAS  /var/folders/ww/n4ctlbrs3x70633t9y2ks63c0000gn/T//ccTX1xk7.s 			page 227


2627:TOOL/cJSON.c  ****     {
2628:TOOL/cJSON.c  ****         return false;
2629:TOOL/cJSON.c  ****     }
2630:TOOL/cJSON.c  **** 
2631:TOOL/cJSON.c  ****     return (item->type & 0xFF) == cJSON_Raw;
 8690              		.loc 1 2631 5 is_stmt 1 view .LVU2509
 8691              		.loc 1 2631 24 is_stmt 0 view .LVU2510
 8692 0002 007B     		ldrb	r0, [r0, #12]	@ zero_extendqisi2
 8693              	.LVL829:
 8694              		.loc 1 2631 32 view .LVU2511
 8695 0004 8028     		cmp	r0, #128
 8696 0006 14BF     		ite	ne
 8697 0008 0020     		movne	r0, #0
 8698 000a 0120     		moveq	r0, #1
 8699 000c 7047     		bx	lr
 8700              	.LVL830:
 8701              	.L754:
2628:TOOL/cJSON.c  ****     }
 8702              		.loc 1 2628 16 view .LVU2512
 8703 000e 0020     		movs	r0, #0
 8704              	.LVL831:
2632:TOOL/cJSON.c  **** }
 8705              		.loc 1 2632 1 view .LVU2513
 8706 0010 7047     		bx	lr
 8707              		.cfi_endproc
 8708              	.LFE155:
 8710              		.section	.text.cJSON_Compare,"ax",%progbits
 8711              		.align	1
 8712              		.global	cJSON_Compare
 8713              		.syntax unified
 8714              		.thumb
 8715              		.thumb_func
 8716              		.fpu softvfp
 8718              	cJSON_Compare:
 8719              	.LVL832:
 8720              	.LFB156:
2633:TOOL/cJSON.c  **** 
2634:TOOL/cJSON.c  **** CJSON_PUBLIC(cJSON_bool) cJSON_Compare(const cJSON * const a, const cJSON * const b, const cJSON_bo
2635:TOOL/cJSON.c  **** {
 8721              		.loc 1 2635 1 is_stmt 1 view -0
 8722              		.cfi_startproc
 8723              		@ args = 0, pretend = 0, frame = 0
 8724              		@ frame_needed = 0, uses_anonymous_args = 0
 8725              		.loc 1 2635 1 is_stmt 0 view .LVU2515
 8726 0000 2DE9F843 		push	{r3, r4, r5, r6, r7, r8, r9, lr}
 8727              	.LCFI110:
 8728              		.cfi_def_cfa_offset 32
 8729              		.cfi_offset 3, -32
 8730              		.cfi_offset 4, -28
 8731              		.cfi_offset 5, -24
 8732              		.cfi_offset 6, -20
 8733              		.cfi_offset 7, -16
 8734              		.cfi_offset 8, -12
 8735              		.cfi_offset 9, -8
 8736              		.cfi_offset 14, -4
2636:TOOL/cJSON.c  ****     if ((a == NULL) || (b == NULL) || ((a->type & 0xFF) != (b->type & 0xFF)) || cJSON_IsInvalid(a))
 8737              		.loc 1 2636 5 is_stmt 1 view .LVU2516
ARM GAS  /var/folders/ww/n4ctlbrs3x70633t9y2ks63c0000gn/T//ccTX1xk7.s 			page 228


 8738              		.loc 1 2636 8 is_stmt 0 view .LVU2517
 8739 0004 0028     		cmp	r0, #0
 8740 0006 00F08D80 		beq	.L773
 8741 000a 8046     		mov	r8, r0
 8742              		.loc 1 2636 21 discriminator 1 view .LVU2518
 8743 000c 0029     		cmp	r1, #0
 8744 000e 00F08B80 		beq	.L774
 8745              		.loc 1 2636 42 discriminator 2 view .LVU2519
 8746 0012 C468     		ldr	r4, [r0, #12]
 8747              		.loc 1 2636 62 discriminator 2 view .LVU2520
 8748 0014 CB68     		ldr	r3, [r1, #12]
 8749              		.loc 1 2636 57 discriminator 2 view .LVU2521
 8750 0016 6340     		eors	r3, r3, r4
 8751              		.loc 1 2636 36 discriminator 2 view .LVU2522
 8752 0018 13F0FF05 		ands	r5, r3, #255
 8753 001c 40F08680 		bne	.L775
 8754 0020 9146     		mov	r9, r2
 8755 0022 0E46     		mov	r6, r1
 8756              		.loc 1 2636 81 discriminator 3 view .LVU2523
 8757 0024 FFF7FEFF 		bl	cJSON_IsInvalid
 8758              	.LVL833:
 8759              		.loc 1 2636 78 discriminator 3 view .LVU2524
 8760 0028 0746     		mov	r7, r0
 8761 002a 0028     		cmp	r0, #0
 8762 002c 40F08280 		bne	.L776
2637:TOOL/cJSON.c  ****     {
2638:TOOL/cJSON.c  ****         return false;
2639:TOOL/cJSON.c  ****     }
2640:TOOL/cJSON.c  **** 
2641:TOOL/cJSON.c  ****     /* check if type is valid */
2642:TOOL/cJSON.c  ****     switch (a->type & 0xFF)
 8763              		.loc 1 2642 5 is_stmt 1 view .LVU2525
 8764              		.loc 1 2642 21 is_stmt 0 view .LVU2526
 8765 0030 E4B2     		uxtb	r4, r4
 8766              		.loc 1 2642 5 view .LVU2527
 8767 0032 082C     		cmp	r4, #8
 8768 0034 0ED0     		beq	.L757
 8769 0036 07DD     		ble	.L786
 8770 0038 202C     		cmp	r4, #32
 8771 003a 0BD0     		beq	.L757
 8772 003c 28DD     		ble	.L787
 8773 003e 402C     		cmp	r4, #64
 8774 0040 08D0     		beq	.L757
 8775 0042 802C     		cmp	r4, #128
 8776 0044 73D1     		bne	.L755
 8777 0046 05E0     		b	.L757
 8778              	.L786:
 8779 0048 002C     		cmp	r4, #0
 8780 004a 70D0     		beq	.L755
 8781 004c 022C     		cmp	r4, #2
 8782 004e 01DD     		ble	.L757
 8783 0050 042C     		cmp	r4, #4
 8784 0052 6CD1     		bne	.L755
 8785              	.L757:
2643:TOOL/cJSON.c  ****     {
2644:TOOL/cJSON.c  ****         case cJSON_False:
2645:TOOL/cJSON.c  ****         case cJSON_True:
ARM GAS  /var/folders/ww/n4ctlbrs3x70633t9y2ks63c0000gn/T//ccTX1xk7.s 			page 229


2646:TOOL/cJSON.c  ****         case cJSON_NULL:
2647:TOOL/cJSON.c  ****         case cJSON_Number:
2648:TOOL/cJSON.c  ****         case cJSON_String:
2649:TOOL/cJSON.c  ****         case cJSON_Raw:
2650:TOOL/cJSON.c  ****         case cJSON_Array:
2651:TOOL/cJSON.c  ****         case cJSON_Object:
2652:TOOL/cJSON.c  ****             break;
 8786              		.loc 1 2652 13 is_stmt 1 view .LVU2528
2653:TOOL/cJSON.c  **** 
2654:TOOL/cJSON.c  ****         default:
2655:TOOL/cJSON.c  ****             return false;
2656:TOOL/cJSON.c  ****     }
2657:TOOL/cJSON.c  **** 
2658:TOOL/cJSON.c  ****     /* identical objects are equal */
2659:TOOL/cJSON.c  ****     if (a == b)
 8787              		.loc 1 2659 5 view .LVU2529
 8788              		.loc 1 2659 8 is_stmt 0 view .LVU2530
 8789 0054 B045     		cmp	r8, r6
 8790 0056 6FD0     		beq	.L777
2660:TOOL/cJSON.c  ****     {
2661:TOOL/cJSON.c  ****         return true;
2662:TOOL/cJSON.c  ****     }
2663:TOOL/cJSON.c  **** 
2664:TOOL/cJSON.c  ****     switch (a->type & 0xFF)
 8791              		.loc 1 2664 5 is_stmt 1 view .LVU2531
 8792 0058 082C     		cmp	r4, #8
 8793 005a 36D0     		beq	.L760
 8794 005c 1BDD     		ble	.L788
 8795 005e 202C     		cmp	r4, #32
 8796 0060 3CD0     		beq	.L762
 8797 0062 20DD     		ble	.L789
 8798 0064 402C     		cmp	r4, #64
 8799 0066 2DD1     		bne	.L790
 8800              	.LBB20:
2665:TOOL/cJSON.c  ****     {
2666:TOOL/cJSON.c  ****         /* in these cases and equal type is enough */
2667:TOOL/cJSON.c  ****         case cJSON_False:
2668:TOOL/cJSON.c  ****         case cJSON_True:
2669:TOOL/cJSON.c  ****         case cJSON_NULL:
2670:TOOL/cJSON.c  ****             return true;
2671:TOOL/cJSON.c  **** 
2672:TOOL/cJSON.c  ****         case cJSON_Number:
2673:TOOL/cJSON.c  ****             if (a->valuedouble == b->valuedouble)
2674:TOOL/cJSON.c  ****             {
2675:TOOL/cJSON.c  ****                 return true;
2676:TOOL/cJSON.c  ****             }
2677:TOOL/cJSON.c  ****             return false;
2678:TOOL/cJSON.c  **** 
2679:TOOL/cJSON.c  ****         case cJSON_String:
2680:TOOL/cJSON.c  ****         case cJSON_Raw:
2681:TOOL/cJSON.c  ****             if ((a->valuestring == NULL) || (b->valuestring == NULL))
2682:TOOL/cJSON.c  ****             {
2683:TOOL/cJSON.c  ****                 return false;
2684:TOOL/cJSON.c  ****             }
2685:TOOL/cJSON.c  ****             if (strcmp(a->valuestring, b->valuestring) == 0)
2686:TOOL/cJSON.c  ****             {
2687:TOOL/cJSON.c  ****                 return true;
ARM GAS  /var/folders/ww/n4ctlbrs3x70633t9y2ks63c0000gn/T//ccTX1xk7.s 			page 230


2688:TOOL/cJSON.c  ****             }
2689:TOOL/cJSON.c  **** 
2690:TOOL/cJSON.c  ****             return false;
2691:TOOL/cJSON.c  **** 
2692:TOOL/cJSON.c  ****         case cJSON_Array:
2693:TOOL/cJSON.c  ****         {
2694:TOOL/cJSON.c  ****             cJSON *a_element = a->child;
2695:TOOL/cJSON.c  ****             cJSON *b_element = b->child;
2696:TOOL/cJSON.c  **** 
2697:TOOL/cJSON.c  ****             for (; (a_element != NULL) && (b_element != NULL);)
2698:TOOL/cJSON.c  ****             {
2699:TOOL/cJSON.c  ****                 if (!cJSON_Compare(a_element, b_element, case_sensitive))
2700:TOOL/cJSON.c  ****                 {
2701:TOOL/cJSON.c  ****                     return false;
2702:TOOL/cJSON.c  ****                 }
2703:TOOL/cJSON.c  **** 
2704:TOOL/cJSON.c  ****                 a_element = a_element->next;
2705:TOOL/cJSON.c  ****                 b_element = b_element->next;
2706:TOOL/cJSON.c  ****             }
2707:TOOL/cJSON.c  **** 
2708:TOOL/cJSON.c  ****             /* one of the arrays is longer than the other */
2709:TOOL/cJSON.c  ****             if (a_element != b_element) {
2710:TOOL/cJSON.c  ****                 return false;
2711:TOOL/cJSON.c  ****             }
2712:TOOL/cJSON.c  **** 
2713:TOOL/cJSON.c  ****             return true;
2714:TOOL/cJSON.c  ****         }
2715:TOOL/cJSON.c  **** 
2716:TOOL/cJSON.c  ****         case cJSON_Object:
2717:TOOL/cJSON.c  ****         {
2718:TOOL/cJSON.c  ****             cJSON *a_element = NULL;
 8801              		.loc 1 2718 13 discriminator 1 view .LVU2532
 8802              	.LVL834:
2719:TOOL/cJSON.c  ****             cJSON *b_element = NULL;
 8803              		.loc 1 2719 13 discriminator 1 view .LVU2533
2720:TOOL/cJSON.c  ****             cJSON_ArrayForEach(a_element, a)
 8804              		.loc 1 2720 13 discriminator 1 view .LVU2534
 8805 0068 D8F80840 		ldr	r4, [r8, #8]
 8806              	.LVL835:
 8807              	.L769:
 8808              		.loc 1 2720 13 is_stmt 0 discriminator 5 view .LVU2535
 8809 006c 002C     		cmp	r4, #0
 8810 006e 47D0     		beq	.L791
2721:TOOL/cJSON.c  ****             {
2722:TOOL/cJSON.c  ****                 /* TODO This has O(n^2) runtime, which is horrible! */
2723:TOOL/cJSON.c  ****                 b_element = get_object_item(b, a_element->string, case_sensitive);
 8811              		.loc 1 2723 17 is_stmt 1 view .LVU2536
 8812              		.loc 1 2723 29 is_stmt 0 view .LVU2537
 8813 0070 4A46     		mov	r2, r9
 8814 0072 216A     		ldr	r1, [r4, #32]
 8815 0074 3046     		mov	r0, r6
 8816 0076 FFF7FEFF 		bl	get_object_item
 8817              	.LVL836:
2724:TOOL/cJSON.c  ****                 if (b_element == NULL)
 8818              		.loc 1 2724 17 is_stmt 1 view .LVU2538
 8819              		.loc 1 2724 20 is_stmt 0 view .LVU2539
 8820 007a 0146     		mov	r1, r0
ARM GAS  /var/folders/ww/n4ctlbrs3x70633t9y2ks63c0000gn/T//ccTX1xk7.s 			page 231


 8821 007c 0028     		cmp	r0, #0
 8822 007e 56D0     		beq	.L755
2725:TOOL/cJSON.c  ****                 {
2726:TOOL/cJSON.c  ****                     return false;
2727:TOOL/cJSON.c  ****                 }
2728:TOOL/cJSON.c  **** 
2729:TOOL/cJSON.c  ****                 if (!cJSON_Compare(a_element, b_element, case_sensitive))
 8823              		.loc 1 2729 17 is_stmt 1 view .LVU2540
 8824              		.loc 1 2729 22 is_stmt 0 view .LVU2541
 8825 0080 4A46     		mov	r2, r9
 8826 0082 2046     		mov	r0, r4
 8827              	.LVL837:
 8828              		.loc 1 2729 22 view .LVU2542
 8829 0084 FFF7FEFF 		bl	cJSON_Compare
 8830              	.LVL838:
 8831              		.loc 1 2729 20 view .LVU2543
 8832 0088 0028     		cmp	r0, #0
 8833 008a 5BD0     		beq	.L783
2720:TOOL/cJSON.c  ****             {
 8834              		.loc 1 2720 13 discriminator 6 view .LVU2544
 8835 008c 2468     		ldr	r4, [r4]
 8836              	.LVL839:
2720:TOOL/cJSON.c  ****             {
 8837              		.loc 1 2720 13 discriminator 6 view .LVU2545
 8838 008e EDE7     		b	.L769
 8839              	.LVL840:
 8840              	.L787:
2720:TOOL/cJSON.c  ****             {
 8841              		.loc 1 2720 13 discriminator 6 view .LVU2546
 8842              	.LBE20:
2642:TOOL/cJSON.c  ****     {
 8843              		.loc 1 2642 5 view .LVU2547
 8844 0090 102C     		cmp	r4, #16
 8845 0092 4CD1     		bne	.L755
 8846 0094 DEE7     		b	.L757
 8847              	.L788:
2664:TOOL/cJSON.c  ****     {
 8848              		.loc 1 2664 5 view .LVU2548
 8849 0096 002C     		cmp	r4, #0
 8850 0098 49D0     		beq	.L755
 8851 009a 022C     		cmp	r4, #2
 8852 009c 4EDD     		ble	.L778
 8853 009e 042C     		cmp	r4, #4
 8854 00a0 45D1     		bne	.L755
2670:TOOL/cJSON.c  **** 
 8855              		.loc 1 2670 20 view .LVU2549
 8856 00a2 0127     		movs	r7, #1
 8857 00a4 43E0     		b	.L755
 8858              	.L789:
2664:TOOL/cJSON.c  ****     {
 8859              		.loc 1 2664 5 view .LVU2550
 8860 00a6 102C     		cmp	r4, #16
 8861 00a8 41D1     		bne	.L755
 8862              	.L764:
2681:TOOL/cJSON.c  ****             {
 8863              		.loc 1 2681 13 is_stmt 1 view .LVU2551
2681:TOOL/cJSON.c  ****             {
ARM GAS  /var/folders/ww/n4ctlbrs3x70633t9y2ks63c0000gn/T//ccTX1xk7.s 			page 232


 8864              		.loc 1 2681 19 is_stmt 0 view .LVU2552
 8865 00aa D8F81000 		ldr	r0, [r8, #16]
2681:TOOL/cJSON.c  ****             {
 8866              		.loc 1 2681 16 view .LVU2553
 8867 00ae 0028     		cmp	r0, #0
 8868 00b0 3DD0     		beq	.L755
2681:TOOL/cJSON.c  ****             {
 8869              		.loc 1 2681 47 discriminator 1 view .LVU2554
 8870 00b2 3169     		ldr	r1, [r6, #16]
2681:TOOL/cJSON.c  ****             {
 8871              		.loc 1 2681 42 discriminator 1 view .LVU2555
 8872 00b4 0029     		cmp	r1, #0
 8873 00b6 3AD0     		beq	.L755
2685:TOOL/cJSON.c  ****             {
 8874              		.loc 1 2685 13 is_stmt 1 view .LVU2556
2685:TOOL/cJSON.c  ****             {
 8875              		.loc 1 2685 17 is_stmt 0 view .LVU2557
 8876 00b8 FFF7FEFF 		bl	strcmp
 8877              	.LVL841:
2685:TOOL/cJSON.c  ****             {
 8878              		.loc 1 2685 16 view .LVU2558
 8879 00bc 0028     		cmp	r0, #0
 8880 00be 36D1     		bne	.L755
2687:TOOL/cJSON.c  ****             }
 8881              		.loc 1 2687 24 view .LVU2559
 8882 00c0 0127     		movs	r7, #1
 8883 00c2 34E0     		b	.L755
 8884              	.L790:
2664:TOOL/cJSON.c  ****     {
 8885              		.loc 1 2664 5 view .LVU2560
 8886 00c4 802C     		cmp	r4, #128
 8887 00c6 F0D0     		beq	.L764
 8888 00c8 31E0     		b	.L755
 8889              	.L760:
2673:TOOL/cJSON.c  ****             {
 8890              		.loc 1 2673 13 is_stmt 1 view .LVU2561
2673:TOOL/cJSON.c  ****             {
 8891              		.loc 1 2673 16 is_stmt 0 view .LVU2562
 8892 00ca D6E90623 		ldrd	r2, [r6, #24]
 8893 00ce D8E90601 		ldrd	r0, [r8, #24]
 8894 00d2 FFF7FEFF 		bl	__aeabi_dcmpeq
 8895              	.LVL842:
 8896 00d6 50B3     		cbz	r0, .L755
2675:TOOL/cJSON.c  ****             }
 8897              		.loc 1 2675 24 view .LVU2563
 8898 00d8 0127     		movs	r7, #1
 8899 00da 28E0     		b	.L755
 8900              	.L762:
 8901              	.LBB21:
2694:TOOL/cJSON.c  ****             cJSON *b_element = b->child;
 8902              		.loc 1 2694 13 is_stmt 1 view .LVU2564
2694:TOOL/cJSON.c  ****             cJSON *b_element = b->child;
 8903              		.loc 1 2694 20 is_stmt 0 view .LVU2565
 8904 00dc D8F80840 		ldr	r4, [r8, #8]
 8905              	.LVL843:
2695:TOOL/cJSON.c  **** 
 8906              		.loc 1 2695 13 is_stmt 1 view .LVU2566
ARM GAS  /var/folders/ww/n4ctlbrs3x70633t9y2ks63c0000gn/T//ccTX1xk7.s 			page 233


2695:TOOL/cJSON.c  **** 
 8907              		.loc 1 2695 20 is_stmt 0 view .LVU2567
 8908 00e0 B568     		ldr	r5, [r6, #8]
 8909              	.LVL844:
2697:TOOL/cJSON.c  ****             {
 8910              		.loc 1 2697 13 is_stmt 1 view .LVU2568
 8911              	.L766:
2697:TOOL/cJSON.c  ****             {
 8912              		.loc 1 2697 13 is_stmt 0 view .LVU2569
 8913 00e2 4CB1     		cbz	r4, .L767
2697:TOOL/cJSON.c  ****             {
 8914              		.loc 1 2697 40 discriminator 1 view .LVU2570
 8915 00e4 45B1     		cbz	r5, .L767
2699:TOOL/cJSON.c  ****                 {
 8916              		.loc 1 2699 17 is_stmt 1 view .LVU2571
2699:TOOL/cJSON.c  ****                 {
 8917              		.loc 1 2699 22 is_stmt 0 view .LVU2572
 8918 00e6 4A46     		mov	r2, r9
 8919 00e8 2946     		mov	r1, r5
 8920 00ea 2046     		mov	r0, r4
 8921 00ec FFF7FEFF 		bl	cJSON_Compare
 8922              	.LVL845:
2699:TOOL/cJSON.c  ****                 {
 8923              		.loc 1 2699 20 view .LVU2573
 8924 00f0 30B3     		cbz	r0, .L782
2704:TOOL/cJSON.c  ****                 b_element = b_element->next;
 8925              		.loc 1 2704 17 is_stmt 1 view .LVU2574
2704:TOOL/cJSON.c  ****                 b_element = b_element->next;
 8926              		.loc 1 2704 27 is_stmt 0 view .LVU2575
 8927 00f2 2468     		ldr	r4, [r4]
 8928              	.LVL846:
2705:TOOL/cJSON.c  ****             }
 8929              		.loc 1 2705 17 is_stmt 1 view .LVU2576
2705:TOOL/cJSON.c  ****             }
 8930              		.loc 1 2705 27 is_stmt 0 view .LVU2577
 8931 00f4 2D68     		ldr	r5, [r5]
 8932              	.LVL847:
2705:TOOL/cJSON.c  ****             }
 8933              		.loc 1 2705 27 view .LVU2578
 8934 00f6 F4E7     		b	.L766
 8935              	.L767:
2709:TOOL/cJSON.c  ****                 return false;
 8936              		.loc 1 2709 13 is_stmt 1 view .LVU2579
2709:TOOL/cJSON.c  ****                 return false;
 8937              		.loc 1 2709 16 is_stmt 0 view .LVU2580
 8938 00f8 AC42     		cmp	r4, r5
 8939 00fa 18D1     		bne	.L755
2713:TOOL/cJSON.c  ****         }
 8940              		.loc 1 2713 20 view .LVU2581
 8941 00fc 0127     		movs	r7, #1
 8942 00fe 16E0     		b	.L755
 8943              	.LVL848:
 8944              	.L791:
2713:TOOL/cJSON.c  ****         }
 8945              		.loc 1 2713 20 view .LVU2582
 8946              	.LBE21:
 8947              	.LBB22:
ARM GAS  /var/folders/ww/n4ctlbrs3x70633t9y2ks63c0000gn/T//ccTX1xk7.s 			page 234


2730:TOOL/cJSON.c  ****                 {
2731:TOOL/cJSON.c  ****                     return false;
2732:TOOL/cJSON.c  ****                 }
2733:TOOL/cJSON.c  ****             }
2734:TOOL/cJSON.c  **** 
2735:TOOL/cJSON.c  ****             /* doing this twice, once on a and b to prevent true comparison if a subset of b
2736:TOOL/cJSON.c  ****              * TODO: Do this the proper way, this is just a fix for now */
2737:TOOL/cJSON.c  ****             cJSON_ArrayForEach(b_element, b)
 8948              		.loc 1 2737 13 is_stmt 1 discriminator 1 view .LVU2583
 8949 0100 B468     		ldr	r4, [r6, #8]
 8950              	.LVL849:
 8951              	.L771:
 8952              		.loc 1 2737 13 is_stmt 0 discriminator 5 view .LVU2584
 8953 0102 6CB1     		cbz	r4, .L792
2738:TOOL/cJSON.c  ****             {
2739:TOOL/cJSON.c  ****                 a_element = get_object_item(a, b_element->string, case_sensitive);
 8954              		.loc 1 2739 17 is_stmt 1 view .LVU2585
 8955              		.loc 1 2739 29 is_stmt 0 view .LVU2586
 8956 0104 4A46     		mov	r2, r9
 8957 0106 216A     		ldr	r1, [r4, #32]
 8958 0108 4046     		mov	r0, r8
 8959 010a FFF7FEFF 		bl	get_object_item
 8960              	.LVL850:
2740:TOOL/cJSON.c  ****                 if (a_element == NULL)
 8961              		.loc 1 2740 17 is_stmt 1 view .LVU2587
 8962              		.loc 1 2740 20 is_stmt 0 view .LVU2588
 8963 010e 0146     		mov	r1, r0
 8964 0110 68B1     		cbz	r0, .L755
2741:TOOL/cJSON.c  ****                 {
2742:TOOL/cJSON.c  ****                     return false;
2743:TOOL/cJSON.c  ****                 }
2744:TOOL/cJSON.c  **** 
2745:TOOL/cJSON.c  ****                 if (!cJSON_Compare(b_element, a_element, case_sensitive))
 8965              		.loc 1 2745 17 is_stmt 1 view .LVU2589
 8966              		.loc 1 2745 22 is_stmt 0 view .LVU2590
 8967 0112 4A46     		mov	r2, r9
 8968 0114 2046     		mov	r0, r4
 8969              	.LVL851:
 8970              		.loc 1 2745 22 view .LVU2591
 8971 0116 FFF7FEFF 		bl	cJSON_Compare
 8972              	.LVL852:
 8973              		.loc 1 2745 20 view .LVU2592
 8974 011a A8B1     		cbz	r0, .L784
2737:TOOL/cJSON.c  ****             {
 8975              		.loc 1 2737 13 discriminator 6 view .LVU2593
 8976 011c 2468     		ldr	r4, [r4]
 8977              	.LVL853:
2737:TOOL/cJSON.c  ****             {
 8978              		.loc 1 2737 13 discriminator 6 view .LVU2594
 8979 011e F0E7     		b	.L771
 8980              	.L792:
2746:TOOL/cJSON.c  ****                 {
2747:TOOL/cJSON.c  ****                     return false;
2748:TOOL/cJSON.c  ****                 }
2749:TOOL/cJSON.c  ****             }
2750:TOOL/cJSON.c  **** 
2751:TOOL/cJSON.c  ****             return true;
ARM GAS  /var/folders/ww/n4ctlbrs3x70633t9y2ks63c0000gn/T//ccTX1xk7.s 			page 235


 8981              		.loc 1 2751 20 view .LVU2595
 8982 0120 0127     		movs	r7, #1
 8983 0122 04E0     		b	.L755
 8984              	.LVL854:
 8985              	.L773:
 8986              		.loc 1 2751 20 view .LVU2596
 8987              	.LBE22:
2638:TOOL/cJSON.c  ****     }
 8988              		.loc 1 2638 16 view .LVU2597
 8989 0124 0027     		movs	r7, #0
 8990 0126 02E0     		b	.L755
 8991              	.L774:
2638:TOOL/cJSON.c  ****     }
 8992              		.loc 1 2638 16 view .LVU2598
 8993 0128 0027     		movs	r7, #0
 8994 012a 00E0     		b	.L755
 8995              	.L775:
 8996 012c 0027     		movs	r7, #0
 8997              	.LVL855:
 8998              	.L755:
2752:TOOL/cJSON.c  ****         }
2753:TOOL/cJSON.c  **** 
2754:TOOL/cJSON.c  ****         default:
2755:TOOL/cJSON.c  ****             return false;
2756:TOOL/cJSON.c  ****     }
2757:TOOL/cJSON.c  **** }
 8999              		.loc 1 2757 1 view .LVU2599
 9000 012e 3846     		mov	r0, r7
 9001 0130 BDE8F883 		pop	{r3, r4, r5, r6, r7, r8, r9, pc}
 9002              	.LVL856:
 9003              	.L776:
2638:TOOL/cJSON.c  ****     }
 9004              		.loc 1 2638 16 view .LVU2600
 9005 0134 2F46     		mov	r7, r5
 9006 0136 FAE7     		b	.L755
 9007              	.L777:
2661:TOOL/cJSON.c  ****     }
 9008              		.loc 1 2661 16 view .LVU2601
 9009 0138 0127     		movs	r7, #1
 9010 013a F8E7     		b	.L755
 9011              	.L778:
2670:TOOL/cJSON.c  **** 
 9012              		.loc 1 2670 20 view .LVU2602
 9013 013c 0127     		movs	r7, #1
 9014 013e F6E7     		b	.L755
 9015              	.LVL857:
 9016              	.L782:
 9017              	.LBB23:
2701:TOOL/cJSON.c  ****                 }
 9018              		.loc 1 2701 28 view .LVU2603
 9019 0140 0746     		mov	r7, r0
 9020 0142 F4E7     		b	.L755
 9021              	.LVL858:
 9022              	.L783:
2701:TOOL/cJSON.c  ****                 }
 9023              		.loc 1 2701 28 view .LVU2604
 9024              	.LBE23:
ARM GAS  /var/folders/ww/n4ctlbrs3x70633t9y2ks63c0000gn/T//ccTX1xk7.s 			page 236


 9025              	.LBB24:
2731:TOOL/cJSON.c  ****                 }
 9026              		.loc 1 2731 28 view .LVU2605
 9027 0144 0746     		mov	r7, r0
 9028 0146 F2E7     		b	.L755
 9029              	.LVL859:
 9030              	.L784:
2747:TOOL/cJSON.c  ****                 }
 9031              		.loc 1 2747 28 view .LVU2606
 9032 0148 0746     		mov	r7, r0
 9033 014a F0E7     		b	.L755
 9034              	.LBE24:
 9035              		.cfi_endproc
 9036              	.LFE156:
 9038              		.section	.text.cJSON_malloc,"ax",%progbits
 9039              		.align	1
 9040              		.global	cJSON_malloc
 9041              		.syntax unified
 9042              		.thumb
 9043              		.thumb_func
 9044              		.fpu softvfp
 9046              	cJSON_malloc:
 9047              	.LVL860:
 9048              	.LFB157:
2758:TOOL/cJSON.c  **** 
2759:TOOL/cJSON.c  **** CJSON_PUBLIC(void *) cJSON_malloc(size_t size)
2760:TOOL/cJSON.c  **** {
 9049              		.loc 1 2760 1 is_stmt 1 view -0
 9050              		.cfi_startproc
 9051              		@ args = 0, pretend = 0, frame = 0
 9052              		@ frame_needed = 0, uses_anonymous_args = 0
 9053              		.loc 1 2760 1 is_stmt 0 view .LVU2608
 9054 0000 08B5     		push	{r3, lr}
 9055              	.LCFI111:
 9056              		.cfi_def_cfa_offset 8
 9057              		.cfi_offset 3, -8
 9058              		.cfi_offset 14, -4
2761:TOOL/cJSON.c  ****     return global_hooks.allocate(size);
 9059              		.loc 1 2761 5 is_stmt 1 view .LVU2609
 9060              		.loc 1 2761 24 is_stmt 0 view .LVU2610
 9061 0002 024B     		ldr	r3, .L795
 9062 0004 1B68     		ldr	r3, [r3]
 9063              		.loc 1 2761 12 view .LVU2611
 9064 0006 9847     		blx	r3
 9065              	.LVL861:
2762:TOOL/cJSON.c  **** }
 9066              		.loc 1 2762 1 view .LVU2612
 9067 0008 08BD     		pop	{r3, pc}
 9068              	.L796:
 9069 000a 00BF     		.align	2
 9070              	.L795:
 9071 000c 00000000 		.word	.LANCHOR2
 9072              		.cfi_endproc
 9073              	.LFE157:
 9075              		.section	.text.cJSON_free,"ax",%progbits
 9076              		.align	1
 9077              		.global	cJSON_free
ARM GAS  /var/folders/ww/n4ctlbrs3x70633t9y2ks63c0000gn/T//ccTX1xk7.s 			page 237


 9078              		.syntax unified
 9079              		.thumb
 9080              		.thumb_func
 9081              		.fpu softvfp
 9083              	cJSON_free:
 9084              	.LVL862:
 9085              	.LFB158:
2763:TOOL/cJSON.c  **** 
2764:TOOL/cJSON.c  **** CJSON_PUBLIC(void) cJSON_free(void *object)
2765:TOOL/cJSON.c  **** {
 9086              		.loc 1 2765 1 is_stmt 1 view -0
 9087              		.cfi_startproc
 9088              		@ args = 0, pretend = 0, frame = 0
 9089              		@ frame_needed = 0, uses_anonymous_args = 0
 9090              		.loc 1 2765 1 is_stmt 0 view .LVU2614
 9091 0000 08B5     		push	{r3, lr}
 9092              	.LCFI112:
 9093              		.cfi_def_cfa_offset 8
 9094              		.cfi_offset 3, -8
 9095              		.cfi_offset 14, -4
2766:TOOL/cJSON.c  ****     global_hooks.deallocate(object);
 9096              		.loc 1 2766 5 is_stmt 1 view .LVU2615
 9097              		.loc 1 2766 17 is_stmt 0 view .LVU2616
 9098 0002 024B     		ldr	r3, .L799
 9099 0004 5B68     		ldr	r3, [r3, #4]
 9100              		.loc 1 2766 5 view .LVU2617
 9101 0006 9847     		blx	r3
 9102              	.LVL863:
2767:TOOL/cJSON.c  **** }
 9103              		.loc 1 2767 1 view .LVU2618
 9104 0008 08BD     		pop	{r3, pc}
 9105              	.L800:
 9106 000a 00BF     		.align	2
 9107              	.L799:
 9108 000c 00000000 		.word	.LANCHOR2
 9109              		.cfi_endproc
 9110              	.LFE158:
 9112              		.section	.text.replace_item_in_object,"ax",%progbits
 9113              		.align	1
 9114              		.syntax unified
 9115              		.thumb
 9116              		.thumb_func
 9117              		.fpu softvfp
 9119              	replace_item_in_object:
 9120              	.LVL864:
 9121              	.LFB128:
2084:TOOL/cJSON.c  ****     if ((replacement == NULL) || (string == NULL))
 9122              		.loc 1 2084 1 is_stmt 1 view -0
 9123              		.cfi_startproc
 9124              		@ args = 0, pretend = 0, frame = 0
 9125              		@ frame_needed = 0, uses_anonymous_args = 0
2085:TOOL/cJSON.c  ****     {
 9126              		.loc 1 2085 5 view .LVU2620
2085:TOOL/cJSON.c  ****     {
 9127              		.loc 1 2085 8 is_stmt 0 view .LVU2621
 9128 0000 12B3     		cbz	r2, .L804
2084:TOOL/cJSON.c  ****     if ((replacement == NULL) || (string == NULL))
ARM GAS  /var/folders/ww/n4ctlbrs3x70633t9y2ks63c0000gn/T//ccTX1xk7.s 			page 238


 9129              		.loc 1 2084 1 discriminator 1 view .LVU2622
 9130 0002 F8B5     		push	{r3, r4, r5, r6, r7, lr}
 9131              	.LCFI113:
 9132              		.cfi_def_cfa_offset 24
 9133              		.cfi_offset 3, -24
 9134              		.cfi_offset 4, -20
 9135              		.cfi_offset 5, -16
 9136              		.cfi_offset 6, -12
 9137              		.cfi_offset 7, -8
 9138              		.cfi_offset 14, -4
 9139 0004 1446     		mov	r4, r2
2085:TOOL/cJSON.c  ****     {
 9140              		.loc 1 2085 31 discriminator 1 view .LVU2623
 9141 0006 09B3     		cbz	r1, .L805
 9142 0008 1F46     		mov	r7, r3
 9143 000a 0E46     		mov	r6, r1
 9144 000c 0546     		mov	r5, r0
2091:TOOL/cJSON.c  ****     {
 9145              		.loc 1 2091 5 is_stmt 1 view .LVU2624
2091:TOOL/cJSON.c  ****     {
 9146              		.loc 1 2091 22 is_stmt 0 view .LVU2625
 9147 000e D368     		ldr	r3, [r2, #12]
 9148              	.LVL865:
2091:TOOL/cJSON.c  ****     {
 9149              		.loc 1 2091 8 view .LVU2626
 9150 0010 13F4007F 		tst	r3, #512
 9151 0014 03D1     		bne	.L803
2091:TOOL/cJSON.c  ****     {
 9152              		.loc 1 2091 67 discriminator 1 view .LVU2627
 9153 0016 106A     		ldr	r0, [r2, #32]
 9154              	.LVL866:
2091:TOOL/cJSON.c  ****     {
 9155              		.loc 1 2091 52 discriminator 1 view .LVU2628
 9156 0018 08B1     		cbz	r0, .L803
2093:TOOL/cJSON.c  ****     }
 9157              		.loc 1 2093 9 is_stmt 1 view .LVU2629
 9158 001a FFF7FEFF 		bl	cJSON_free
 9159              	.LVL867:
 9160              	.L803:
2095:TOOL/cJSON.c  ****     replacement->type &= ~cJSON_StringIsConst;
 9161              		.loc 1 2095 5 view .LVU2630
2095:TOOL/cJSON.c  ****     replacement->type &= ~cJSON_StringIsConst;
 9162              		.loc 1 2095 34 is_stmt 0 view .LVU2631
 9163 001e 0C49     		ldr	r1, .L810
 9164 0020 3046     		mov	r0, r6
 9165 0022 FFF7FEFF 		bl	cJSON_strdup
 9166              	.LVL868:
2095:TOOL/cJSON.c  ****     replacement->type &= ~cJSON_StringIsConst;
 9167              		.loc 1 2095 25 view .LVU2632
 9168 0026 2062     		str	r0, [r4, #32]
2096:TOOL/cJSON.c  **** 
 9169              		.loc 1 2096 5 is_stmt 1 view .LVU2633
2096:TOOL/cJSON.c  **** 
 9170              		.loc 1 2096 23 is_stmt 0 view .LVU2634
 9171 0028 E268     		ldr	r2, [r4, #12]
 9172 002a 22F40072 		bic	r2, r2, #512
 9173 002e E260     		str	r2, [r4, #12]
ARM GAS  /var/folders/ww/n4ctlbrs3x70633t9y2ks63c0000gn/T//ccTX1xk7.s 			page 239


2098:TOOL/cJSON.c  **** 
 9174              		.loc 1 2098 5 is_stmt 1 view .LVU2635
 9175 0030 3A46     		mov	r2, r7
 9176 0032 3146     		mov	r1, r6
 9177 0034 2846     		mov	r0, r5
 9178 0036 FFF7FEFF 		bl	get_object_item
 9179              	.LVL869:
 9180 003a 2246     		mov	r2, r4
 9181 003c 0146     		mov	r1, r0
 9182 003e 2846     		mov	r0, r5
 9183 0040 FFF7FEFF 		bl	cJSON_ReplaceItemViaPointer
 9184              	.LVL870:
2100:TOOL/cJSON.c  **** }
 9185              		.loc 1 2100 5 view .LVU2636
2100:TOOL/cJSON.c  **** }
 9186              		.loc 1 2100 12 is_stmt 0 view .LVU2637
 9187 0044 0120     		movs	r0, #1
 9188              	.LVL871:
 9189              	.L801:
2101:TOOL/cJSON.c  **** 
 9190              		.loc 1 2101 1 view .LVU2638
 9191 0046 F8BD     		pop	{r3, r4, r5, r6, r7, pc}
 9192              	.LVL872:
 9193              	.L804:
 9194              	.LCFI114:
 9195              		.cfi_def_cfa_offset 0
 9196              		.cfi_restore 3
 9197              		.cfi_restore 4
 9198              		.cfi_restore 5
 9199              		.cfi_restore 6
 9200              		.cfi_restore 7
 9201              		.cfi_restore 14
2087:TOOL/cJSON.c  ****     }
 9202              		.loc 1 2087 16 view .LVU2639
 9203 0048 0020     		movs	r0, #0
 9204              	.LVL873:
2101:TOOL/cJSON.c  **** 
 9205              		.loc 1 2101 1 view .LVU2640
 9206 004a 7047     		bx	lr
 9207              	.LVL874:
 9208              	.L805:
 9209              	.LCFI115:
 9210              		.cfi_def_cfa_offset 24
 9211              		.cfi_offset 3, -24
 9212              		.cfi_offset 4, -20
 9213              		.cfi_offset 5, -16
 9214              		.cfi_offset 6, -12
 9215              		.cfi_offset 7, -8
 9216              		.cfi_offset 14, -4
2087:TOOL/cJSON.c  ****     }
 9217              		.loc 1 2087 16 view .LVU2641
 9218 004c 0020     		movs	r0, #0
 9219              	.LVL875:
2087:TOOL/cJSON.c  ****     }
 9220              		.loc 1 2087 16 view .LVU2642
 9221 004e FAE7     		b	.L801
 9222              	.L811:
ARM GAS  /var/folders/ww/n4ctlbrs3x70633t9y2ks63c0000gn/T//ccTX1xk7.s 			page 240


 9223              		.align	2
 9224              	.L810:
 9225 0050 00000000 		.word	.LANCHOR2
 9226              		.cfi_endproc
 9227              	.LFE128:
 9229              		.section	.text.cJSON_ReplaceItemInObject,"ax",%progbits
 9230              		.align	1
 9231              		.global	cJSON_ReplaceItemInObject
 9232              		.syntax unified
 9233              		.thumb
 9234              		.thumb_func
 9235              		.fpu softvfp
 9237              	cJSON_ReplaceItemInObject:
 9238              	.LVL876:
 9239              	.LFB129:
2104:TOOL/cJSON.c  ****     replace_item_in_object(object, string, newitem, false);
 9240              		.loc 1 2104 1 is_stmt 1 view -0
 9241              		.cfi_startproc
 9242              		@ args = 0, pretend = 0, frame = 0
 9243              		@ frame_needed = 0, uses_anonymous_args = 0
2104:TOOL/cJSON.c  ****     replace_item_in_object(object, string, newitem, false);
 9244              		.loc 1 2104 1 is_stmt 0 view .LVU2644
 9245 0000 08B5     		push	{r3, lr}
 9246              	.LCFI116:
 9247              		.cfi_def_cfa_offset 8
 9248              		.cfi_offset 3, -8
 9249              		.cfi_offset 14, -4
2105:TOOL/cJSON.c  **** }
 9250              		.loc 1 2105 5 is_stmt 1 view .LVU2645
 9251 0002 0023     		movs	r3, #0
 9252 0004 FFF7FEFF 		bl	replace_item_in_object
 9253              	.LVL877:
2106:TOOL/cJSON.c  **** 
 9254              		.loc 1 2106 1 is_stmt 0 view .LVU2646
 9255 0008 08BD     		pop	{r3, pc}
 9256              		.cfi_endproc
 9257              	.LFE129:
 9259              		.section	.text.cJSON_ReplaceItemInObjectCaseSensitive,"ax",%progbits
 9260              		.align	1
 9261              		.global	cJSON_ReplaceItemInObjectCaseSensitive
 9262              		.syntax unified
 9263              		.thumb
 9264              		.thumb_func
 9265              		.fpu softvfp
 9267              	cJSON_ReplaceItemInObjectCaseSensitive:
 9268              	.LVL878:
 9269              	.LFB130:
2109:TOOL/cJSON.c  ****     replace_item_in_object(object, string, newitem, true);
 9270              		.loc 1 2109 1 is_stmt 1 view -0
 9271              		.cfi_startproc
 9272              		@ args = 0, pretend = 0, frame = 0
 9273              		@ frame_needed = 0, uses_anonymous_args = 0
2109:TOOL/cJSON.c  ****     replace_item_in_object(object, string, newitem, true);
 9274              		.loc 1 2109 1 is_stmt 0 view .LVU2648
 9275 0000 08B5     		push	{r3, lr}
 9276              	.LCFI117:
 9277              		.cfi_def_cfa_offset 8
ARM GAS  /var/folders/ww/n4ctlbrs3x70633t9y2ks63c0000gn/T//ccTX1xk7.s 			page 241


 9278              		.cfi_offset 3, -8
 9279              		.cfi_offset 14, -4
2110:TOOL/cJSON.c  **** }
 9280              		.loc 1 2110 5 is_stmt 1 view .LVU2649
 9281 0002 0123     		movs	r3, #1
 9282 0004 FFF7FEFF 		bl	replace_item_in_object
 9283              	.LVL879:
2111:TOOL/cJSON.c  **** 
 9284              		.loc 1 2111 1 is_stmt 0 view .LVU2650
 9285 0008 08BD     		pop	{r3, pc}
 9286              		.cfi_endproc
 9287              	.LFE130:
 9289              		.section	.bss.global_error,"aw",%nobits
 9290              		.align	2
 9291              		.set	.LANCHOR0,. + 0
 9294              	global_error:
 9295 0000 00000000 		.space	8
 9295      00000000 
 9296              		.section	.bss.version.7904,"aw",%nobits
 9297              		.align	2
 9298              		.set	.LANCHOR1,. + 0
 9301              	version.7904:
 9302 0000 00000000 		.space	15
 9302      00000000 
 9302      00000000 
 9302      000000
 9303              		.section	.data.global_hooks,"aw"
 9304              		.align	2
 9305              		.set	.LANCHOR2,. + 0
 9308              	global_hooks:
 9309 0000 00000000 		.word	internal_malloc
 9310 0004 00000000 		.word	internal_free
 9311 0008 00000000 		.word	internal_realloc
 9312              		.section	.rodata.cJSON_Version.str1.4,"aMS",%progbits,1
 9313              		.align	2
 9314              	.LC9:
 9315 0000 25692E25 		.ascii	"%i.%i.%i\000"
 9315      692E2569 
 9315      00
 9316              		.section	.rodata.print_number.str1.4,"aMS",%progbits,1
 9317              		.align	2
 9318              	.LC3:
 9319 0000 6E756C6C 		.ascii	"null\000"
 9319      00
 9320 0005 000000   		.space	3
 9321              	.LC4:
 9322 0008 25312E31 		.ascii	"%1.15g\000"
 9322      356700
 9323 000f 00       		.space	1
 9324              	.LC5:
 9325 0010 256C6700 		.ascii	"%lg\000"
 9326              	.LC6:
 9327 0014 25312E31 		.ascii	"%1.17g\000"
 9327      376700
 9328              		.section	.rodata.print_string_ptr.str1.4,"aMS",%progbits,1
 9329              		.align	2
 9330              	.LC1:
ARM GAS  /var/folders/ww/n4ctlbrs3x70633t9y2ks63c0000gn/T//ccTX1xk7.s 			page 242


 9331 0000 222200   		.ascii	"\"\"\000"
 9332 0003 00       		.space	1
 9333              	.LC2:
 9334 0004 75253034 		.ascii	"u%04x\000"
 9334      7800
 9335              		.section	.rodata.print_value.str1.4,"aMS",%progbits,1
 9336              		.align	2
 9337              	.LC7:
 9338 0000 66616C73 		.ascii	"false\000"
 9338      6500
 9339 0006 0000     		.space	2
 9340              	.LC8:
 9341 0008 74727565 		.ascii	"true\000"
 9341      00
 9342              		.section	.rodata.skip_utf8_bom.str1.4,"aMS",%progbits,1
 9343              		.align	2
 9344              	.LC0:
 9345 0000 EFBBBF00 		.ascii	"\357\273\277\000"
 9346              		.text
 9347              	.Letext0:
 9348              		.file 2 "/Users/shuuyou/gcc-arm-none-eabi/lib/gcc/arm-none-eabi/8.3.1/include/stddef.h"
 9349              		.file 3 "/Users/shuuyou/gcc-arm-none-eabi/arm-none-eabi/include/machine/_default_types.h"
 9350              		.file 4 "/Users/shuuyou/gcc-arm-none-eabi/arm-none-eabi/include/sys/_types.h"
 9351              		.file 5 "/Users/shuuyou/gcc-arm-none-eabi/arm-none-eabi/include/sys/reent.h"
 9352              		.file 6 "/Users/shuuyou/gcc-arm-none-eabi/arm-none-eabi/include/sys/lock.h"
 9353              		.file 7 "/Users/shuuyou/gcc-arm-none-eabi/arm-none-eabi/include/sys/_stdint.h"
 9354              		.file 8 "/Users/shuuyou/gcc-arm-none-eabi/arm-none-eabi/include/math.h"
 9355              		.file 9 "/Users/shuuyou/gcc-arm-none-eabi/arm-none-eabi/include/stdlib.h"
 9356              		.file 10 "/Users/shuuyou/gcc-arm-none-eabi/arm-none-eabi/include/ctype.h"
 9357              		.file 11 "Inc/core_cm3.h"
 9358              		.file 12 "Inc/stm32l152xe.h"
 9359              		.file 13 "APP/inc/Public.h"
 9360              		.file 14 "RML1028B/RML1028B.h"
 9361              		.file 15 "HARDWARE/inc/Temputer.h"
 9362              		.file 16 "HARDWARE/inc/Adc.h"
 9363              		.file 17 "HARDWARE/inc/Timer.h"
 9364              		.file 18 "HARDWARE/inc/Control.h"
 9365              		.file 19 "TOOL/inc/TaskManger.h"
 9366              		.file 20 "DISPALY/inc/DispManger.h"
 9367              		.file 21 "TOOL/inc/CrcUtil.h"
 9368              		.file 22 "APP/inc/VolPro.h"
 9369              		.file 23 "APP/inc/FreqPro.h"
 9370              		.file 24 "APP/inc/ParasCheckPro.h"
 9371              		.file 25 "APP/inc/TemputerPro.h"
 9372              		.file 26 "TOOL/inc/malloc.h"
 9373              		.file 27 "TOOL/inc/cJSON.h"
 9374              		.file 28 "/Users/shuuyou/gcc-arm-none-eabi/arm-none-eabi/include/string.h"
 9375              		.file 29 "<built-in>"
 9376              		.file 30 "/Users/shuuyou/gcc-arm-none-eabi/arm-none-eabi/include/stdio.h"
ARM GAS  /var/folders/ww/n4ctlbrs3x70633t9y2ks63c0000gn/T//ccTX1xk7.s 			page 243


DEFINED SYMBOLS
                            *ABS*:0000000000000000 cJSON.c
/var/folders/ww/n4ctlbrs3x70633t9y2ks63c0000gn/T//ccTX1xk7.s:16     .text.case_insensitive_strcmp:0000000000000000 $t
/var/folders/ww/n4ctlbrs3x70633t9y2ks63c0000gn/T//ccTX1xk7.s:23     .text.case_insensitive_strcmp:0000000000000000 case_insensitive_strcmp
/var/folders/ww/n4ctlbrs3x70633t9y2ks63c0000gn/T//ccTX1xk7.s:154    .text.case_insensitive_strcmp:0000000000000054 $d
/var/folders/ww/n4ctlbrs3x70633t9y2ks63c0000gn/T//ccTX1xk7.s:159    .text.get_decimal_point:0000000000000000 $t
/var/folders/ww/n4ctlbrs3x70633t9y2ks63c0000gn/T//ccTX1xk7.s:165    .text.get_decimal_point:0000000000000000 get_decimal_point
/var/folders/ww/n4ctlbrs3x70633t9y2ks63c0000gn/T//ccTX1xk7.s:180    .text.parse_hex4:0000000000000000 $t
/var/folders/ww/n4ctlbrs3x70633t9y2ks63c0000gn/T//ccTX1xk7.s:186    .text.parse_hex4:0000000000000000 parse_hex4
/var/folders/ww/n4ctlbrs3x70633t9y2ks63c0000gn/T//ccTX1xk7.s:304    .text.utf16_literal_to_utf8:0000000000000000 $t
/var/folders/ww/n4ctlbrs3x70633t9y2ks63c0000gn/T//ccTX1xk7.s:310    .text.utf16_literal_to_utf8:0000000000000000 utf16_literal_to_utf8
/var/folders/ww/n4ctlbrs3x70633t9y2ks63c0000gn/T//ccTX1xk7.s:598    .text.utf16_literal_to_utf8:00000000000000e4 $d
/var/folders/ww/n4ctlbrs3x70633t9y2ks63c0000gn/T//ccTX1xk7.s:603    .text.parse_string:0000000000000000 $t
/var/folders/ww/n4ctlbrs3x70633t9y2ks63c0000gn/T//ccTX1xk7.s:609    .text.parse_string:0000000000000000 parse_string
/var/folders/ww/n4ctlbrs3x70633t9y2ks63c0000gn/T//ccTX1xk7.s:782    .text.parse_string:000000000000009c $d
/var/folders/ww/n4ctlbrs3x70633t9y2ks63c0000gn/T//ccTX1xk7.s:866    .text.parse_string:00000000000000f0 $t
/var/folders/ww/n4ctlbrs3x70633t9y2ks63c0000gn/T//ccTX1xk7.s:1046   .text.buffer_skip_whitespace:0000000000000000 $t
/var/folders/ww/n4ctlbrs3x70633t9y2ks63c0000gn/T//ccTX1xk7.s:1052   .text.buffer_skip_whitespace:0000000000000000 buffer_skip_whitespace
/var/folders/ww/n4ctlbrs3x70633t9y2ks63c0000gn/T//ccTX1xk7.s:1116   .text.get_array_item:0000000000000000 $t
/var/folders/ww/n4ctlbrs3x70633t9y2ks63c0000gn/T//ccTX1xk7.s:1122   .text.get_array_item:0000000000000000 get_array_item
/var/folders/ww/n4ctlbrs3x70633t9y2ks63c0000gn/T//ccTX1xk7.s:1165   .text.suffix_object:0000000000000000 $t
/var/folders/ww/n4ctlbrs3x70633t9y2ks63c0000gn/T//ccTX1xk7.s:1171   .text.suffix_object:0000000000000000 suffix_object
/var/folders/ww/n4ctlbrs3x70633t9y2ks63c0000gn/T//ccTX1xk7.s:1191   .text.internal_realloc:0000000000000000 $t
/var/folders/ww/n4ctlbrs3x70633t9y2ks63c0000gn/T//ccTX1xk7.s:1197   .text.internal_realloc:0000000000000000 internal_realloc
/var/folders/ww/n4ctlbrs3x70633t9y2ks63c0000gn/T//ccTX1xk7.s:1220   .text.internal_free:0000000000000000 $t
/var/folders/ww/n4ctlbrs3x70633t9y2ks63c0000gn/T//ccTX1xk7.s:1226   .text.internal_free:0000000000000000 internal_free
/var/folders/ww/n4ctlbrs3x70633t9y2ks63c0000gn/T//ccTX1xk7.s:1248   .text.internal_malloc:0000000000000000 $t
/var/folders/ww/n4ctlbrs3x70633t9y2ks63c0000gn/T//ccTX1xk7.s:1254   .text.internal_malloc:0000000000000000 internal_malloc
/var/folders/ww/n4ctlbrs3x70633t9y2ks63c0000gn/T//ccTX1xk7.s:1277   .text.update_offset:0000000000000000 $t
/var/folders/ww/n4ctlbrs3x70633t9y2ks63c0000gn/T//ccTX1xk7.s:1283   .text.update_offset:0000000000000000 update_offset
/var/folders/ww/n4ctlbrs3x70633t9y2ks63c0000gn/T//ccTX1xk7.s:1339   .text.cJSON_New_Item:0000000000000000 $t
/var/folders/ww/n4ctlbrs3x70633t9y2ks63c0000gn/T//ccTX1xk7.s:1345   .text.cJSON_New_Item:0000000000000000 cJSON_New_Item
/var/folders/ww/n4ctlbrs3x70633t9y2ks63c0000gn/T//ccTX1xk7.s:1386   .text.skip_utf8_bom:0000000000000000 $t
/var/folders/ww/n4ctlbrs3x70633t9y2ks63c0000gn/T//ccTX1xk7.s:1392   .text.skip_utf8_bom:0000000000000000 skip_utf8_bom
/var/folders/ww/n4ctlbrs3x70633t9y2ks63c0000gn/T//ccTX1xk7.s:1460   .text.skip_utf8_bom:0000000000000034 $d
/var/folders/ww/n4ctlbrs3x70633t9y2ks63c0000gn/T//ccTX1xk7.s:1468   .text.parse_number:0000000000000000 $t
/var/folders/ww/n4ctlbrs3x70633t9y2ks63c0000gn/T//ccTX1xk7.s:1474   .text.parse_number:0000000000000000 parse_number
/var/folders/ww/n4ctlbrs3x70633t9y2ks63c0000gn/T//ccTX1xk7.s:1556   .text.parse_number:0000000000000054 $d
/var/folders/ww/n4ctlbrs3x70633t9y2ks63c0000gn/T//ccTX1xk7.s:1615   .text.parse_number:0000000000000140 $t
/var/folders/ww/n4ctlbrs3x70633t9y2ks63c0000gn/T//ccTX1xk7.s:1740   .text.parse_number:00000000000001c8 $d
/var/folders/ww/n4ctlbrs3x70633t9y2ks63c0000gn/T//ccTX1xk7.s:1747   .text.ensure:0000000000000000 $t
/var/folders/ww/n4ctlbrs3x70633t9y2ks63c0000gn/T//ccTX1xk7.s:1753   .text.ensure:0000000000000000 ensure
/var/folders/ww/n4ctlbrs3x70633t9y2ks63c0000gn/T//ccTX1xk7.s:1972   .text.cJSON_strdup:0000000000000000 $t
/var/folders/ww/n4ctlbrs3x70633t9y2ks63c0000gn/T//ccTX1xk7.s:1978   .text.cJSON_strdup:0000000000000000 cJSON_strdup
/var/folders/ww/n4ctlbrs3x70633t9y2ks63c0000gn/T//ccTX1xk7.s:2040   .text.create_reference:0000000000000000 $t
/var/folders/ww/n4ctlbrs3x70633t9y2ks63c0000gn/T//ccTX1xk7.s:2046   .text.create_reference:0000000000000000 create_reference
/var/folders/ww/n4ctlbrs3x70633t9y2ks63c0000gn/T//ccTX1xk7.s:2133   .text.print_string_ptr:0000000000000000 $t
/var/folders/ww/n4ctlbrs3x70633t9y2ks63c0000gn/T//ccTX1xk7.s:2139   .text.print_string_ptr:0000000000000000 print_string_ptr
/var/folders/ww/n4ctlbrs3x70633t9y2ks63c0000gn/T//ccTX1xk7.s:2485   .text.print_string_ptr:0000000000000120 $d
/var/folders/ww/n4ctlbrs3x70633t9y2ks63c0000gn/T//ccTX1xk7.s:2491   .text.print_string:0000000000000000 $t
/var/folders/ww/n4ctlbrs3x70633t9y2ks63c0000gn/T//ccTX1xk7.s:2497   .text.print_string:0000000000000000 print_string
/var/folders/ww/n4ctlbrs3x70633t9y2ks63c0000gn/T//ccTX1xk7.s:2525   .text.print_number:0000000000000000 $t
/var/folders/ww/n4ctlbrs3x70633t9y2ks63c0000gn/T//ccTX1xk7.s:2531   .text.print_number:0000000000000000 print_number
/var/folders/ww/n4ctlbrs3x70633t9y2ks63c0000gn/T//ccTX1xk7.s:2742   .text.print_number:00000000000000c4 $d
/var/folders/ww/n4ctlbrs3x70633t9y2ks63c0000gn/T//ccTX1xk7.s:2750   .text.print_value:0000000000000000 $t
/var/folders/ww/n4ctlbrs3x70633t9y2ks63c0000gn/T//ccTX1xk7.s:2756   .text.print_value:0000000000000000 print_value
/var/folders/ww/n4ctlbrs3x70633t9y2ks63c0000gn/T//ccTX1xk7.s:3234   .text.print_array:0000000000000000 print_array
ARM GAS  /var/folders/ww/n4ctlbrs3x70633t9y2ks63c0000gn/T//ccTX1xk7.s 			page 244


/var/folders/ww/n4ctlbrs3x70633t9y2ks63c0000gn/T//ccTX1xk7.s:3442   .text.print_object:0000000000000000 print_object
/var/folders/ww/n4ctlbrs3x70633t9y2ks63c0000gn/T//ccTX1xk7.s:3037   .text.print_value:00000000000000fc $d
/var/folders/ww/n4ctlbrs3x70633t9y2ks63c0000gn/T//ccTX1xk7.s:3045   .text.print:0000000000000000 $t
/var/folders/ww/n4ctlbrs3x70633t9y2ks63c0000gn/T//ccTX1xk7.s:3051   .text.print:0000000000000000 print
/var/folders/ww/n4ctlbrs3x70633t9y2ks63c0000gn/T//ccTX1xk7.s:3228   .text.print_array:0000000000000000 $t
/var/folders/ww/n4ctlbrs3x70633t9y2ks63c0000gn/T//ccTX1xk7.s:3436   .text.print_object:0000000000000000 $t
/var/folders/ww/n4ctlbrs3x70633t9y2ks63c0000gn/T//ccTX1xk7.s:3852   .text.get_object_item:0000000000000000 $t
/var/folders/ww/n4ctlbrs3x70633t9y2ks63c0000gn/T//ccTX1xk7.s:3858   .text.get_object_item:0000000000000000 get_object_item
/var/folders/ww/n4ctlbrs3x70633t9y2ks63c0000gn/T//ccTX1xk7.s:3940   .text.cJSON_GetErrorPtr:0000000000000000 $t
/var/folders/ww/n4ctlbrs3x70633t9y2ks63c0000gn/T//ccTX1xk7.s:3947   .text.cJSON_GetErrorPtr:0000000000000000 cJSON_GetErrorPtr
/var/folders/ww/n4ctlbrs3x70633t9y2ks63c0000gn/T//ccTX1xk7.s:3966   .text.cJSON_GetErrorPtr:000000000000000c $d
/var/folders/ww/n4ctlbrs3x70633t9y2ks63c0000gn/T//ccTX1xk7.s:3971   .text.cJSON_Version:0000000000000000 $t
/var/folders/ww/n4ctlbrs3x70633t9y2ks63c0000gn/T//ccTX1xk7.s:3978   .text.cJSON_Version:0000000000000000 cJSON_Version
/var/folders/ww/n4ctlbrs3x70633t9y2ks63c0000gn/T//ccTX1xk7.s:4014   .text.cJSON_Version:000000000000001c $d
/var/folders/ww/n4ctlbrs3x70633t9y2ks63c0000gn/T//ccTX1xk7.s:4020   .text.cJSON_InitHooks:0000000000000000 $t
/var/folders/ww/n4ctlbrs3x70633t9y2ks63c0000gn/T//ccTX1xk7.s:4027   .text.cJSON_InitHooks:0000000000000000 cJSON_InitHooks
/var/folders/ww/n4ctlbrs3x70633t9y2ks63c0000gn/T//ccTX1xk7.s:4116   .text.cJSON_InitHooks:0000000000000050 $d
/var/folders/ww/n4ctlbrs3x70633t9y2ks63c0000gn/T//ccTX1xk7.s:4124   .text.cJSON_Delete:0000000000000000 $t
/var/folders/ww/n4ctlbrs3x70633t9y2ks63c0000gn/T//ccTX1xk7.s:4131   .text.cJSON_Delete:0000000000000000 cJSON_Delete
/var/folders/ww/n4ctlbrs3x70633t9y2ks63c0000gn/T//ccTX1xk7.s:4233   .text.cJSON_Delete:0000000000000050 $d
/var/folders/ww/n4ctlbrs3x70633t9y2ks63c0000gn/T//ccTX1xk7.s:4238   .text.parse_object:0000000000000000 $t
/var/folders/ww/n4ctlbrs3x70633t9y2ks63c0000gn/T//ccTX1xk7.s:4244   .text.parse_object:0000000000000000 parse_object
/var/folders/ww/n4ctlbrs3x70633t9y2ks63c0000gn/T//ccTX1xk7.s:4575   .text.parse_value:0000000000000000 parse_value
/var/folders/ww/n4ctlbrs3x70633t9y2ks63c0000gn/T//ccTX1xk7.s:4569   .text.parse_value:0000000000000000 $t
/var/folders/ww/n4ctlbrs3x70633t9y2ks63c0000gn/T//ccTX1xk7.s:4836   .text.parse_array:0000000000000000 parse_array
/var/folders/ww/n4ctlbrs3x70633t9y2ks63c0000gn/T//ccTX1xk7.s:4823   .text.parse_value:00000000000000fc $d
/var/folders/ww/n4ctlbrs3x70633t9y2ks63c0000gn/T//ccTX1xk7.s:4830   .text.parse_array:0000000000000000 $t
/var/folders/ww/n4ctlbrs3x70633t9y2ks63c0000gn/T//ccTX1xk7.s:5104   .text.cJSON_SetNumberHelper:0000000000000000 $t
/var/folders/ww/n4ctlbrs3x70633t9y2ks63c0000gn/T//ccTX1xk7.s:5111   .text.cJSON_SetNumberHelper:0000000000000000 cJSON_SetNumberHelper
/var/folders/ww/n4ctlbrs3x70633t9y2ks63c0000gn/T//ccTX1xk7.s:5183   .text.cJSON_SetNumberHelper:0000000000000050 $d
/var/folders/ww/n4ctlbrs3x70633t9y2ks63c0000gn/T//ccTX1xk7.s:5190   .text.cJSON_ParseWithOpts:0000000000000000 $t
/var/folders/ww/n4ctlbrs3x70633t9y2ks63c0000gn/T//ccTX1xk7.s:5197   .text.cJSON_ParseWithOpts:0000000000000000 cJSON_ParseWithOpts
/var/folders/ww/n4ctlbrs3x70633t9y2ks63c0000gn/T//ccTX1xk7.s:5409   .text.cJSON_ParseWithOpts:00000000000000bc $d
/var/folders/ww/n4ctlbrs3x70633t9y2ks63c0000gn/T//ccTX1xk7.s:5415   .text.cJSON_Parse:0000000000000000 $t
/var/folders/ww/n4ctlbrs3x70633t9y2ks63c0000gn/T//ccTX1xk7.s:5422   .text.cJSON_Parse:0000000000000000 cJSON_Parse
/var/folders/ww/n4ctlbrs3x70633t9y2ks63c0000gn/T//ccTX1xk7.s:5447   .text.cJSON_Print:0000000000000000 $t
/var/folders/ww/n4ctlbrs3x70633t9y2ks63c0000gn/T//ccTX1xk7.s:5454   .text.cJSON_Print:0000000000000000 cJSON_Print
/var/folders/ww/n4ctlbrs3x70633t9y2ks63c0000gn/T//ccTX1xk7.s:5478   .text.cJSON_Print:000000000000000c $d
/var/folders/ww/n4ctlbrs3x70633t9y2ks63c0000gn/T//ccTX1xk7.s:5483   .text.cJSON_PrintUnformatted:0000000000000000 $t
/var/folders/ww/n4ctlbrs3x70633t9y2ks63c0000gn/T//ccTX1xk7.s:5490   .text.cJSON_PrintUnformatted:0000000000000000 cJSON_PrintUnformatted
/var/folders/ww/n4ctlbrs3x70633t9y2ks63c0000gn/T//ccTX1xk7.s:5514   .text.cJSON_PrintUnformatted:000000000000000c $d
/var/folders/ww/n4ctlbrs3x70633t9y2ks63c0000gn/T//ccTX1xk7.s:5519   .text.cJSON_PrintBuffered:0000000000000000 $t
/var/folders/ww/n4ctlbrs3x70633t9y2ks63c0000gn/T//ccTX1xk7.s:5526   .text.cJSON_PrintBuffered:0000000000000000 cJSON_PrintBuffered
/var/folders/ww/n4ctlbrs3x70633t9y2ks63c0000gn/T//ccTX1xk7.s:5638   .text.cJSON_PrintBuffered:000000000000005c $d
/var/folders/ww/n4ctlbrs3x70633t9y2ks63c0000gn/T//ccTX1xk7.s:5643   .text.cJSON_PrintPreallocated:0000000000000000 $t
/var/folders/ww/n4ctlbrs3x70633t9y2ks63c0000gn/T//ccTX1xk7.s:5650   .text.cJSON_PrintPreallocated:0000000000000000 cJSON_PrintPreallocated
/var/folders/ww/n4ctlbrs3x70633t9y2ks63c0000gn/T//ccTX1xk7.s:5739   .text.cJSON_PrintPreallocated:0000000000000048 $d
/var/folders/ww/n4ctlbrs3x70633t9y2ks63c0000gn/T//ccTX1xk7.s:5744   .text.cJSON_GetArraySize:0000000000000000 $t
/var/folders/ww/n4ctlbrs3x70633t9y2ks63c0000gn/T//ccTX1xk7.s:5751   .text.cJSON_GetArraySize:0000000000000000 cJSON_GetArraySize
/var/folders/ww/n4ctlbrs3x70633t9y2ks63c0000gn/T//ccTX1xk7.s:5800   .text.cJSON_GetArrayItem:0000000000000000 $t
/var/folders/ww/n4ctlbrs3x70633t9y2ks63c0000gn/T//ccTX1xk7.s:5807   .text.cJSON_GetArrayItem:0000000000000000 cJSON_GetArrayItem
/var/folders/ww/n4ctlbrs3x70633t9y2ks63c0000gn/T//ccTX1xk7.s:5846   .text.cJSON_GetObjectItem:0000000000000000 $t
/var/folders/ww/n4ctlbrs3x70633t9y2ks63c0000gn/T//ccTX1xk7.s:5853   .text.cJSON_GetObjectItem:0000000000000000 cJSON_GetObjectItem
/var/folders/ww/n4ctlbrs3x70633t9y2ks63c0000gn/T//ccTX1xk7.s:5877   .text.cJSON_GetObjectItemCaseSensitive:0000000000000000 $t
/var/folders/ww/n4ctlbrs3x70633t9y2ks63c0000gn/T//ccTX1xk7.s:5884   .text.cJSON_GetObjectItemCaseSensitive:0000000000000000 cJSON_GetObjectItemCaseSensitive
/var/folders/ww/n4ctlbrs3x70633t9y2ks63c0000gn/T//ccTX1xk7.s:5908   .text.cJSON_HasObjectItem:0000000000000000 $t
/var/folders/ww/n4ctlbrs3x70633t9y2ks63c0000gn/T//ccTX1xk7.s:5915   .text.cJSON_HasObjectItem:0000000000000000 cJSON_HasObjectItem
ARM GAS  /var/folders/ww/n4ctlbrs3x70633t9y2ks63c0000gn/T//ccTX1xk7.s 			page 245


/var/folders/ww/n4ctlbrs3x70633t9y2ks63c0000gn/T//ccTX1xk7.s:5941   .text.cJSON_AddItemToArray:0000000000000000 $t
/var/folders/ww/n4ctlbrs3x70633t9y2ks63c0000gn/T//ccTX1xk7.s:5948   .text.cJSON_AddItemToArray:0000000000000000 cJSON_AddItemToArray
/var/folders/ww/n4ctlbrs3x70633t9y2ks63c0000gn/T//ccTX1xk7.s:5997   .text.cJSON_AddItemToObjectCS:0000000000000000 $t
/var/folders/ww/n4ctlbrs3x70633t9y2ks63c0000gn/T//ccTX1xk7.s:6004   .text.cJSON_AddItemToObjectCS:0000000000000000 cJSON_AddItemToObjectCS
/var/folders/ww/n4ctlbrs3x70633t9y2ks63c0000gn/T//ccTX1xk7.s:6075   .text.cJSON_AddItemToObjectCS:0000000000000034 $d
/var/folders/ww/n4ctlbrs3x70633t9y2ks63c0000gn/T//ccTX1xk7.s:6080   .text.cJSON_AddItemToObject:0000000000000000 $t
/var/folders/ww/n4ctlbrs3x70633t9y2ks63c0000gn/T//ccTX1xk7.s:6087   .text.cJSON_AddItemToObject:0000000000000000 cJSON_AddItemToObject
/var/folders/ww/n4ctlbrs3x70633t9y2ks63c0000gn/T//ccTX1xk7.s:6144   .text.cJSON_AddItemToObject:0000000000000028 $d
/var/folders/ww/n4ctlbrs3x70633t9y2ks63c0000gn/T//ccTX1xk7.s:6149   .text.cJSON_AddItemReferenceToArray:0000000000000000 $t
/var/folders/ww/n4ctlbrs3x70633t9y2ks63c0000gn/T//ccTX1xk7.s:6156   .text.cJSON_AddItemReferenceToArray:0000000000000000 cJSON_AddItemReferenceToArray
/var/folders/ww/n4ctlbrs3x70633t9y2ks63c0000gn/T//ccTX1xk7.s:6199   .text.cJSON_AddItemReferenceToArray:000000000000001c $d
/var/folders/ww/n4ctlbrs3x70633t9y2ks63c0000gn/T//ccTX1xk7.s:6204   .text.cJSON_AddItemReferenceToObject:0000000000000000 $t
/var/folders/ww/n4ctlbrs3x70633t9y2ks63c0000gn/T//ccTX1xk7.s:6211   .text.cJSON_AddItemReferenceToObject:0000000000000000 cJSON_AddItemReferenceToObject
/var/folders/ww/n4ctlbrs3x70633t9y2ks63c0000gn/T//ccTX1xk7.s:6264   .text.cJSON_AddItemReferenceToObject:0000000000000020 $d
/var/folders/ww/n4ctlbrs3x70633t9y2ks63c0000gn/T//ccTX1xk7.s:6269   .text.cJSON_DetachItemViaPointer:0000000000000000 $t
/var/folders/ww/n4ctlbrs3x70633t9y2ks63c0000gn/T//ccTX1xk7.s:6276   .text.cJSON_DetachItemViaPointer:0000000000000000 cJSON_DetachItemViaPointer
/var/folders/ww/n4ctlbrs3x70633t9y2ks63c0000gn/T//ccTX1xk7.s:6352   .text.cJSON_DetachItemFromArray:0000000000000000 $t
/var/folders/ww/n4ctlbrs3x70633t9y2ks63c0000gn/T//ccTX1xk7.s:6359   .text.cJSON_DetachItemFromArray:0000000000000000 cJSON_DetachItemFromArray
/var/folders/ww/n4ctlbrs3x70633t9y2ks63c0000gn/T//ccTX1xk7.s:6404   .text.cJSON_DeleteItemFromArray:0000000000000000 $t
/var/folders/ww/n4ctlbrs3x70633t9y2ks63c0000gn/T//ccTX1xk7.s:6411   .text.cJSON_DeleteItemFromArray:0000000000000000 cJSON_DeleteItemFromArray
/var/folders/ww/n4ctlbrs3x70633t9y2ks63c0000gn/T//ccTX1xk7.s:6436   .text.cJSON_DetachItemFromObject:0000000000000000 $t
/var/folders/ww/n4ctlbrs3x70633t9y2ks63c0000gn/T//ccTX1xk7.s:6443   .text.cJSON_DetachItemFromObject:0000000000000000 cJSON_DetachItemFromObject
/var/folders/ww/n4ctlbrs3x70633t9y2ks63c0000gn/T//ccTX1xk7.s:6476   .text.cJSON_DetachItemFromObjectCaseSensitive:0000000000000000 $t
/var/folders/ww/n4ctlbrs3x70633t9y2ks63c0000gn/T//ccTX1xk7.s:6483   .text.cJSON_DetachItemFromObjectCaseSensitive:0000000000000000 cJSON_DetachItemFromObjectCaseSensitive
/var/folders/ww/n4ctlbrs3x70633t9y2ks63c0000gn/T//ccTX1xk7.s:6516   .text.cJSON_DeleteItemFromObject:0000000000000000 $t
/var/folders/ww/n4ctlbrs3x70633t9y2ks63c0000gn/T//ccTX1xk7.s:6523   .text.cJSON_DeleteItemFromObject:0000000000000000 cJSON_DeleteItemFromObject
/var/folders/ww/n4ctlbrs3x70633t9y2ks63c0000gn/T//ccTX1xk7.s:6548   .text.cJSON_DeleteItemFromObjectCaseSensitive:0000000000000000 $t
/var/folders/ww/n4ctlbrs3x70633t9y2ks63c0000gn/T//ccTX1xk7.s:6555   .text.cJSON_DeleteItemFromObjectCaseSensitive:0000000000000000 cJSON_DeleteItemFromObjectCaseSensitive
/var/folders/ww/n4ctlbrs3x70633t9y2ks63c0000gn/T//ccTX1xk7.s:6580   .text.cJSON_InsertItemInArray:0000000000000000 $t
/var/folders/ww/n4ctlbrs3x70633t9y2ks63c0000gn/T//ccTX1xk7.s:6587   .text.cJSON_InsertItemInArray:0000000000000000 cJSON_InsertItemInArray
/var/folders/ww/n4ctlbrs3x70633t9y2ks63c0000gn/T//ccTX1xk7.s:6674   .text.cJSON_ReplaceItemViaPointer:0000000000000000 $t
/var/folders/ww/n4ctlbrs3x70633t9y2ks63c0000gn/T//ccTX1xk7.s:6681   .text.cJSON_ReplaceItemViaPointer:0000000000000000 cJSON_ReplaceItemViaPointer
/var/folders/ww/n4ctlbrs3x70633t9y2ks63c0000gn/T//ccTX1xk7.s:6803   .text.cJSON_ReplaceItemInArray:0000000000000000 $t
/var/folders/ww/n4ctlbrs3x70633t9y2ks63c0000gn/T//ccTX1xk7.s:6810   .text.cJSON_ReplaceItemInArray:0000000000000000 cJSON_ReplaceItemInArray
/var/folders/ww/n4ctlbrs3x70633t9y2ks63c0000gn/T//ccTX1xk7.s:6857   .text.cJSON_CreateNull:0000000000000000 $t
/var/folders/ww/n4ctlbrs3x70633t9y2ks63c0000gn/T//ccTX1xk7.s:6864   .text.cJSON_CreateNull:0000000000000000 cJSON_CreateNull
/var/folders/ww/n4ctlbrs3x70633t9y2ks63c0000gn/T//ccTX1xk7.s:6900   .text.cJSON_CreateNull:0000000000000014 $d
/var/folders/ww/n4ctlbrs3x70633t9y2ks63c0000gn/T//ccTX1xk7.s:6905   .text.cJSON_CreateTrue:0000000000000000 $t
/var/folders/ww/n4ctlbrs3x70633t9y2ks63c0000gn/T//ccTX1xk7.s:6912   .text.cJSON_CreateTrue:0000000000000000 cJSON_CreateTrue
/var/folders/ww/n4ctlbrs3x70633t9y2ks63c0000gn/T//ccTX1xk7.s:6948   .text.cJSON_CreateTrue:0000000000000014 $d
/var/folders/ww/n4ctlbrs3x70633t9y2ks63c0000gn/T//ccTX1xk7.s:6953   .text.cJSON_CreateFalse:0000000000000000 $t
/var/folders/ww/n4ctlbrs3x70633t9y2ks63c0000gn/T//ccTX1xk7.s:6960   .text.cJSON_CreateFalse:0000000000000000 cJSON_CreateFalse
/var/folders/ww/n4ctlbrs3x70633t9y2ks63c0000gn/T//ccTX1xk7.s:6996   .text.cJSON_CreateFalse:0000000000000014 $d
/var/folders/ww/n4ctlbrs3x70633t9y2ks63c0000gn/T//ccTX1xk7.s:7001   .text.cJSON_CreateBool:0000000000000000 $t
/var/folders/ww/n4ctlbrs3x70633t9y2ks63c0000gn/T//ccTX1xk7.s:7008   .text.cJSON_CreateBool:0000000000000000 cJSON_CreateBool
/var/folders/ww/n4ctlbrs3x70633t9y2ks63c0000gn/T//ccTX1xk7.s:7055   .text.cJSON_CreateBool:000000000000001c $d
/var/folders/ww/n4ctlbrs3x70633t9y2ks63c0000gn/T//ccTX1xk7.s:7060   .text.cJSON_CreateNumber:0000000000000000 $t
/var/folders/ww/n4ctlbrs3x70633t9y2ks63c0000gn/T//ccTX1xk7.s:7067   .text.cJSON_CreateNumber:0000000000000000 cJSON_CreateNumber
/var/folders/ww/n4ctlbrs3x70633t9y2ks63c0000gn/T//ccTX1xk7.s:7152   .text.cJSON_CreateNumber:0000000000000058 $d
/var/folders/ww/n4ctlbrs3x70633t9y2ks63c0000gn/T//ccTX1xk7.s:7160   .text.cJSON_CreateString:0000000000000000 $t
/var/folders/ww/n4ctlbrs3x70633t9y2ks63c0000gn/T//ccTX1xk7.s:7167   .text.cJSON_CreateString:0000000000000000 cJSON_CreateString
/var/folders/ww/n4ctlbrs3x70633t9y2ks63c0000gn/T//ccTX1xk7.s:7233   .text.cJSON_CreateString:0000000000000030 $d
/var/folders/ww/n4ctlbrs3x70633t9y2ks63c0000gn/T//ccTX1xk7.s:7238   .text.cJSON_CreateRaw:0000000000000000 $t
/var/folders/ww/n4ctlbrs3x70633t9y2ks63c0000gn/T//ccTX1xk7.s:7245   .text.cJSON_CreateRaw:0000000000000000 cJSON_CreateRaw
/var/folders/ww/n4ctlbrs3x70633t9y2ks63c0000gn/T//ccTX1xk7.s:7311   .text.cJSON_CreateRaw:0000000000000030 $d
/var/folders/ww/n4ctlbrs3x70633t9y2ks63c0000gn/T//ccTX1xk7.s:7316   .text.cJSON_CreateArray:0000000000000000 $t
/var/folders/ww/n4ctlbrs3x70633t9y2ks63c0000gn/T//ccTX1xk7.s:7323   .text.cJSON_CreateArray:0000000000000000 cJSON_CreateArray
ARM GAS  /var/folders/ww/n4ctlbrs3x70633t9y2ks63c0000gn/T//ccTX1xk7.s 			page 246


/var/folders/ww/n4ctlbrs3x70633t9y2ks63c0000gn/T//ccTX1xk7.s:7359   .text.cJSON_CreateArray:0000000000000014 $d
/var/folders/ww/n4ctlbrs3x70633t9y2ks63c0000gn/T//ccTX1xk7.s:7364   .text.cJSON_CreateObject:0000000000000000 $t
/var/folders/ww/n4ctlbrs3x70633t9y2ks63c0000gn/T//ccTX1xk7.s:7371   .text.cJSON_CreateObject:0000000000000000 cJSON_CreateObject
/var/folders/ww/n4ctlbrs3x70633t9y2ks63c0000gn/T//ccTX1xk7.s:7407   .text.cJSON_CreateObject:0000000000000014 $d
/var/folders/ww/n4ctlbrs3x70633t9y2ks63c0000gn/T//ccTX1xk7.s:7413   .text.cJSON_CreateIntArray:0000000000000000 $t
/var/folders/ww/n4ctlbrs3x70633t9y2ks63c0000gn/T//ccTX1xk7.s:7420   .text.cJSON_CreateIntArray:0000000000000000 cJSON_CreateIntArray
/var/folders/ww/n4ctlbrs3x70633t9y2ks63c0000gn/T//ccTX1xk7.s:7538   .text.cJSON_CreateFloatArray:0000000000000000 $t
/var/folders/ww/n4ctlbrs3x70633t9y2ks63c0000gn/T//ccTX1xk7.s:7545   .text.cJSON_CreateFloatArray:0000000000000000 cJSON_CreateFloatArray
/var/folders/ww/n4ctlbrs3x70633t9y2ks63c0000gn/T//ccTX1xk7.s:7662   .text.cJSON_CreateDoubleArray:0000000000000000 $t
/var/folders/ww/n4ctlbrs3x70633t9y2ks63c0000gn/T//ccTX1xk7.s:7669   .text.cJSON_CreateDoubleArray:0000000000000000 cJSON_CreateDoubleArray
/var/folders/ww/n4ctlbrs3x70633t9y2ks63c0000gn/T//ccTX1xk7.s:7786   .text.cJSON_CreateStringArray:0000000000000000 $t
/var/folders/ww/n4ctlbrs3x70633t9y2ks63c0000gn/T//ccTX1xk7.s:7793   .text.cJSON_CreateStringArray:0000000000000000 cJSON_CreateStringArray
/var/folders/ww/n4ctlbrs3x70633t9y2ks63c0000gn/T//ccTX1xk7.s:7908   .text.cJSON_Duplicate:0000000000000000 $t
/var/folders/ww/n4ctlbrs3x70633t9y2ks63c0000gn/T//ccTX1xk7.s:7915   .text.cJSON_Duplicate:0000000000000000 cJSON_Duplicate
/var/folders/ww/n4ctlbrs3x70633t9y2ks63c0000gn/T//ccTX1xk7.s:8091   .text.cJSON_Duplicate:0000000000000088 $d
/var/folders/ww/n4ctlbrs3x70633t9y2ks63c0000gn/T//ccTX1xk7.s:8096   .text.cJSON_Minify:0000000000000000 $t
/var/folders/ww/n4ctlbrs3x70633t9y2ks63c0000gn/T//ccTX1xk7.s:8103   .text.cJSON_Minify:0000000000000000 cJSON_Minify
/var/folders/ww/n4ctlbrs3x70633t9y2ks63c0000gn/T//ccTX1xk7.s:8324   .text.cJSON_IsInvalid:0000000000000000 $t
/var/folders/ww/n4ctlbrs3x70633t9y2ks63c0000gn/T//ccTX1xk7.s:8331   .text.cJSON_IsInvalid:0000000000000000 cJSON_IsInvalid
/var/folders/ww/n4ctlbrs3x70633t9y2ks63c0000gn/T//ccTX1xk7.s:8361   .text.cJSON_IsFalse:0000000000000000 $t
/var/folders/ww/n4ctlbrs3x70633t9y2ks63c0000gn/T//ccTX1xk7.s:8368   .text.cJSON_IsFalse:0000000000000000 cJSON_IsFalse
/var/folders/ww/n4ctlbrs3x70633t9y2ks63c0000gn/T//ccTX1xk7.s:8400   .text.cJSON_IsTrue:0000000000000000 $t
/var/folders/ww/n4ctlbrs3x70633t9y2ks63c0000gn/T//ccTX1xk7.s:8407   .text.cJSON_IsTrue:0000000000000000 cJSON_IsTrue
/var/folders/ww/n4ctlbrs3x70633t9y2ks63c0000gn/T//ccTX1xk7.s:8439   .text.cJSON_IsBool:0000000000000000 $t
/var/folders/ww/n4ctlbrs3x70633t9y2ks63c0000gn/T//ccTX1xk7.s:8446   .text.cJSON_IsBool:0000000000000000 cJSON_IsBool
/var/folders/ww/n4ctlbrs3x70633t9y2ks63c0000gn/T//ccTX1xk7.s:8477   .text.cJSON_IsNull:0000000000000000 $t
/var/folders/ww/n4ctlbrs3x70633t9y2ks63c0000gn/T//ccTX1xk7.s:8484   .text.cJSON_IsNull:0000000000000000 cJSON_IsNull
/var/folders/ww/n4ctlbrs3x70633t9y2ks63c0000gn/T//ccTX1xk7.s:8516   .text.cJSON_IsNumber:0000000000000000 $t
/var/folders/ww/n4ctlbrs3x70633t9y2ks63c0000gn/T//ccTX1xk7.s:8523   .text.cJSON_IsNumber:0000000000000000 cJSON_IsNumber
/var/folders/ww/n4ctlbrs3x70633t9y2ks63c0000gn/T//ccTX1xk7.s:8555   .text.cJSON_IsString:0000000000000000 $t
/var/folders/ww/n4ctlbrs3x70633t9y2ks63c0000gn/T//ccTX1xk7.s:8562   .text.cJSON_IsString:0000000000000000 cJSON_IsString
/var/folders/ww/n4ctlbrs3x70633t9y2ks63c0000gn/T//ccTX1xk7.s:8594   .text.cJSON_IsArray:0000000000000000 $t
/var/folders/ww/n4ctlbrs3x70633t9y2ks63c0000gn/T//ccTX1xk7.s:8601   .text.cJSON_IsArray:0000000000000000 cJSON_IsArray
/var/folders/ww/n4ctlbrs3x70633t9y2ks63c0000gn/T//ccTX1xk7.s:8633   .text.cJSON_IsObject:0000000000000000 $t
/var/folders/ww/n4ctlbrs3x70633t9y2ks63c0000gn/T//ccTX1xk7.s:8640   .text.cJSON_IsObject:0000000000000000 cJSON_IsObject
/var/folders/ww/n4ctlbrs3x70633t9y2ks63c0000gn/T//ccTX1xk7.s:8672   .text.cJSON_IsRaw:0000000000000000 $t
/var/folders/ww/n4ctlbrs3x70633t9y2ks63c0000gn/T//ccTX1xk7.s:8679   .text.cJSON_IsRaw:0000000000000000 cJSON_IsRaw
/var/folders/ww/n4ctlbrs3x70633t9y2ks63c0000gn/T//ccTX1xk7.s:8711   .text.cJSON_Compare:0000000000000000 $t
/var/folders/ww/n4ctlbrs3x70633t9y2ks63c0000gn/T//ccTX1xk7.s:8718   .text.cJSON_Compare:0000000000000000 cJSON_Compare
/var/folders/ww/n4ctlbrs3x70633t9y2ks63c0000gn/T//ccTX1xk7.s:9039   .text.cJSON_malloc:0000000000000000 $t
/var/folders/ww/n4ctlbrs3x70633t9y2ks63c0000gn/T//ccTX1xk7.s:9046   .text.cJSON_malloc:0000000000000000 cJSON_malloc
/var/folders/ww/n4ctlbrs3x70633t9y2ks63c0000gn/T//ccTX1xk7.s:9071   .text.cJSON_malloc:000000000000000c $d
/var/folders/ww/n4ctlbrs3x70633t9y2ks63c0000gn/T//ccTX1xk7.s:9076   .text.cJSON_free:0000000000000000 $t
/var/folders/ww/n4ctlbrs3x70633t9y2ks63c0000gn/T//ccTX1xk7.s:9083   .text.cJSON_free:0000000000000000 cJSON_free
/var/folders/ww/n4ctlbrs3x70633t9y2ks63c0000gn/T//ccTX1xk7.s:9108   .text.cJSON_free:000000000000000c $d
/var/folders/ww/n4ctlbrs3x70633t9y2ks63c0000gn/T//ccTX1xk7.s:9113   .text.replace_item_in_object:0000000000000000 $t
/var/folders/ww/n4ctlbrs3x70633t9y2ks63c0000gn/T//ccTX1xk7.s:9119   .text.replace_item_in_object:0000000000000000 replace_item_in_object
/var/folders/ww/n4ctlbrs3x70633t9y2ks63c0000gn/T//ccTX1xk7.s:9225   .text.replace_item_in_object:0000000000000050 $d
/var/folders/ww/n4ctlbrs3x70633t9y2ks63c0000gn/T//ccTX1xk7.s:9230   .text.cJSON_ReplaceItemInObject:0000000000000000 $t
/var/folders/ww/n4ctlbrs3x70633t9y2ks63c0000gn/T//ccTX1xk7.s:9237   .text.cJSON_ReplaceItemInObject:0000000000000000 cJSON_ReplaceItemInObject
/var/folders/ww/n4ctlbrs3x70633t9y2ks63c0000gn/T//ccTX1xk7.s:9260   .text.cJSON_ReplaceItemInObjectCaseSensitive:0000000000000000 $t
/var/folders/ww/n4ctlbrs3x70633t9y2ks63c0000gn/T//ccTX1xk7.s:9267   .text.cJSON_ReplaceItemInObjectCaseSensitive:0000000000000000 cJSON_ReplaceItemInObjectCaseSensitive
/var/folders/ww/n4ctlbrs3x70633t9y2ks63c0000gn/T//ccTX1xk7.s:9290   .bss.global_error:0000000000000000 $d
/var/folders/ww/n4ctlbrs3x70633t9y2ks63c0000gn/T//ccTX1xk7.s:9294   .bss.global_error:0000000000000000 global_error
/var/folders/ww/n4ctlbrs3x70633t9y2ks63c0000gn/T//ccTX1xk7.s:9297   .bss.version.7904:0000000000000000 $d
/var/folders/ww/n4ctlbrs3x70633t9y2ks63c0000gn/T//ccTX1xk7.s:9301   .bss.version.7904:0000000000000000 version.7904
/var/folders/ww/n4ctlbrs3x70633t9y2ks63c0000gn/T//ccTX1xk7.s:9304   .data.global_hooks:0000000000000000 $d
ARM GAS  /var/folders/ww/n4ctlbrs3x70633t9y2ks63c0000gn/T//ccTX1xk7.s 			page 247


/var/folders/ww/n4ctlbrs3x70633t9y2ks63c0000gn/T//ccTX1xk7.s:9308   .data.global_hooks:0000000000000000 global_hooks
/var/folders/ww/n4ctlbrs3x70633t9y2ks63c0000gn/T//ccTX1xk7.s:9313   .rodata.cJSON_Version.str1.4:0000000000000000 $d
/var/folders/ww/n4ctlbrs3x70633t9y2ks63c0000gn/T//ccTX1xk7.s:9317   .rodata.print_number.str1.4:0000000000000000 $d
/var/folders/ww/n4ctlbrs3x70633t9y2ks63c0000gn/T//ccTX1xk7.s:9329   .rodata.print_string_ptr.str1.4:0000000000000000 $d
/var/folders/ww/n4ctlbrs3x70633t9y2ks63c0000gn/T//ccTX1xk7.s:9336   .rodata.print_value.str1.4:0000000000000000 $d
/var/folders/ww/n4ctlbrs3x70633t9y2ks63c0000gn/T//ccTX1xk7.s:9343   .rodata.skip_utf8_bom.str1.4:0000000000000000 $d

UNDEFINED SYMBOLS
_ctype_
myrealloc
myfree
mymalloc
strlen
memset
strncmp
__aeabi_dcmpge
__aeabi_dcmple
__aeabi_d2iz
strtod
memcpy
sprintf
__aeabi_dmul
__aeabi_dcmpeq
sscanf
strcmp
malloc
free
realloc
__aeabi_i2d
__aeabi_f2d
