ARM GAS  /var/folders/ww/n4ctlbrs3x70633t9y2ks63c0000gn/T//ccTX1xk7.s 			page 1


   1              		.cpu cortex-m3
   2              		.eabi_attribute 20, 1
   3              		.eabi_attribute 21, 1
   4              		.eabi_attribute 23, 3
   5              		.eabi_attribute 24, 1
   6              		.eabi_attribute 25, 1
   7              		.eabi_attribute 26, 1
   8              		.eabi_attribute 30, 1
   9              		.eabi_attribute 34, 1
  10              		.eabi_attribute 18, 4
  11              		.file	"cJSON.c"
  12              		.text
  13              	.Ltext0:
  14              		.cfi_sections	.debug_frame
  15              		.section	.text.case_insensitive_strcmp,"ax",%progbits
  16              		.align	1
  17              		.arch armv7-m
  18              		.syntax unified
  19              		.thumb
  20              		.thumb_func
  21              		.fpu softvfp
  23              	case_insensitive_strcmp:
  24              	.LVL0:
  25              	.LFB70:
  26              		.file 1 "TOOL/cJSON.c"
   1:TOOL/cJSON.c  **** /*
   2:TOOL/cJSON.c  ****   Copyright (c) 2009-2017 Dave Gamble and cJSON contributors
   3:TOOL/cJSON.c  **** 
   4:TOOL/cJSON.c  ****   Permission is hereby granted, free of charge, to any person obtaining a copy
   5:TOOL/cJSON.c  ****   of this software and associated documentation files (the "Software"), to deal
   6:TOOL/cJSON.c  ****   in the Software without restriction, including without limitation the rights
   7:TOOL/cJSON.c  ****   to use, copy, modify, merge, publish, distribute, sublicense, and/or sell
   8:TOOL/cJSON.c  ****   copies of the Software, and to permit persons to whom the Software is
   9:TOOL/cJSON.c  ****   furnished to do so, subject to the following conditions:
  10:TOOL/cJSON.c  **** 
  11:TOOL/cJSON.c  ****   The above copyright notice and this permission notice shall be included in
  12:TOOL/cJSON.c  ****   all copies or substantial portions of the Software.
  13:TOOL/cJSON.c  **** 
  14:TOOL/cJSON.c  ****   THE SOFTWARE IS PROVIDED "AS IS", WITHOUT WARRANTY OF ANY KIND, EXPRESS OR
  15:TOOL/cJSON.c  ****   IMPLIED, INCLUDING BUT NOT LIMITED TO THE WARRANTIES OF MERCHANTABILITY,
  16:TOOL/cJSON.c  ****   FITNESS FOR A PARTICULAR PURPOSE AND NONINFRINGEMENT. IN NO EVENT SHALL THE
  17:TOOL/cJSON.c  ****   AUTHORS OR COPYRIGHT HOLDERS BE LIABLE FOR ANY CLAIM, DAMAGES OR OTHER
  18:TOOL/cJSON.c  ****   LIABILITY, WHETHER IN AN ACTION OF CONTRACT, TORT OR OTHERWISE, ARISING FROM,
  19:TOOL/cJSON.c  ****   OUT OF OR IN CONNECTION WITH THE SOFTWARE OR THE USE OR OTHER DEALINGS IN
  20:TOOL/cJSON.c  ****   THE SOFTWARE.
  21:TOOL/cJSON.c  **** */
  22:TOOL/cJSON.c  **** 
  23:TOOL/cJSON.c  **** /* cJSON */
  24:TOOL/cJSON.c  **** /* JSON parser in C. */
  25:TOOL/cJSON.c  **** 
  26:TOOL/cJSON.c  **** /* disable warnings about old C89 functions in MSVC */
  27:TOOL/cJSON.c  **** #if !defined(_CRT_SECURE_NO_DEPRECATE) && defined(_MSC_VER)
  28:TOOL/cJSON.c  **** #define _CRT_SECURE_NO_DEPRECATE
  29:TOOL/cJSON.c  **** #endif
  30:TOOL/cJSON.c  **** 
  31:TOOL/cJSON.c  **** #ifdef __GNUC__
  32:TOOL/cJSON.c  **** #pragma GCC visibility push(default)
ARM GAS  /var/folders/ww/n4ctlbrs3x70633t9y2ks63c0000gn/T//ccTX1xk7.s 			page 2


  33:TOOL/cJSON.c  **** #endif
  34:TOOL/cJSON.c  **** #if defined(_MSC_VER)
  35:TOOL/cJSON.c  **** #pragma warning (push)
  36:TOOL/cJSON.c  **** /* disable warning about single line comments in system headers */
  37:TOOL/cJSON.c  **** #pragma warning (disable : 4001)
  38:TOOL/cJSON.c  **** #endif
  39:TOOL/cJSON.c  **** 
  40:TOOL/cJSON.c  **** #include <string.h>
  41:TOOL/cJSON.c  **** #include <stdio.h>
  42:TOOL/cJSON.c  **** #include <math.h>
  43:TOOL/cJSON.c  **** #include <stdlib.h>
  44:TOOL/cJSON.c  **** #include <float.h>
  45:TOOL/cJSON.c  **** #include <limits.h>
  46:TOOL/cJSON.c  **** #include <ctype.h>
  47:TOOL/cJSON.c  **** #include "malloc.h"	  
  48:TOOL/cJSON.c  **** #ifdef ENABLE_LOCALES
  49:TOOL/cJSON.c  **** #include <locale.h>
  50:TOOL/cJSON.c  **** #endif
  51:TOOL/cJSON.c  **** 
  52:TOOL/cJSON.c  **** #if defined(_MSC_VER)
  53:TOOL/cJSON.c  **** #pragma warning (pop)
  54:TOOL/cJSON.c  **** #endif
  55:TOOL/cJSON.c  **** #ifdef __GNUC__
  56:TOOL/cJSON.c  **** #pragma GCC visibility pop
  57:TOOL/cJSON.c  **** #endif
  58:TOOL/cJSON.c  **** 
  59:TOOL/cJSON.c  **** #include "cJSON.h"
  60:TOOL/cJSON.c  **** 
  61:TOOL/cJSON.c  **** 
  62:TOOL/cJSON.c  **** /* define our own boolean type */
  63:TOOL/cJSON.c  **** #define true ((cJSON_bool)1)
  64:TOOL/cJSON.c  **** #define false ((cJSON_bool)0)
  65:TOOL/cJSON.c  **** 
  66:TOOL/cJSON.c  **** typedef struct {
  67:TOOL/cJSON.c  ****     const unsigned char *json;
  68:TOOL/cJSON.c  ****     size_t position;
  69:TOOL/cJSON.c  **** } error;
  70:TOOL/cJSON.c  **** static error global_error = { NULL, 0 };
  71:TOOL/cJSON.c  **** 
  72:TOOL/cJSON.c  **** CJSON_PUBLIC(const char *) cJSON_GetErrorPtr(void)
  73:TOOL/cJSON.c  **** {
  74:TOOL/cJSON.c  ****     return (const char*) (global_error.json + global_error.position);
  75:TOOL/cJSON.c  **** }
  76:TOOL/cJSON.c  **** 
  77:TOOL/cJSON.c  **** /* This is a safeguard to prevent copy-pasters from using incompatible C and header files */
  78:TOOL/cJSON.c  **** #if (CJSON_VERSION_MAJOR != 1) || (CJSON_VERSION_MINOR != 6) || (CJSON_VERSION_PATCH != 0)
  79:TOOL/cJSON.c  ****     #error cJSON.h and cJSON.c have different versions. Make sure that both have the same.
  80:TOOL/cJSON.c  **** #endif
  81:TOOL/cJSON.c  **** 
  82:TOOL/cJSON.c  **** CJSON_PUBLIC(const char*) cJSON_Version(void)
  83:TOOL/cJSON.c  **** {
  84:TOOL/cJSON.c  ****     static char version[15];
  85:TOOL/cJSON.c  ****     sprintf(version, "%i.%i.%i", CJSON_VERSION_MAJOR, CJSON_VERSION_MINOR, CJSON_VERSION_PATCH);
  86:TOOL/cJSON.c  **** 
  87:TOOL/cJSON.c  ****     return version;
  88:TOOL/cJSON.c  **** }
  89:TOOL/cJSON.c  **** 
ARM GAS  /var/folders/ww/n4ctlbrs3x70633t9y2ks63c0000gn/T//ccTX1xk7.s 			page 3


  90:TOOL/cJSON.c  **** /* Case insensitive string comparison, doesn't consider two NULL pointers equal though */
  91:TOOL/cJSON.c  **** static int case_insensitive_strcmp(const unsigned char *string1, const unsigned char *string2)
  92:TOOL/cJSON.c  **** {
  27              		.loc 1 92 1 view -0
  28              		.cfi_startproc
  29              		@ args = 0, pretend = 0, frame = 0
  30              		@ frame_needed = 0, uses_anonymous_args = 0
  31              		@ link register save eliminated.
  93:TOOL/cJSON.c  ****     if ((string1 == NULL) || (string2 == NULL))
  32              		.loc 1 93 5 view .LVU1
  33              		.loc 1 93 8 is_stmt 0 view .LVU2
  34 0000 10B3     		cbz	r0, .L9
  92:TOOL/cJSON.c  ****     if ((string1 == NULL) || (string2 == NULL))
  35              		.loc 1 92 1 discriminator 1 view .LVU3
  36 0002 30B4     		push	{r4, r5}
  37              	.LCFI0:
  38              		.cfi_def_cfa_offset 8
  39              		.cfi_offset 4, -8
  40              		.cfi_offset 5, -4
  41 0004 0446     		mov	r4, r0
  42              		.loc 1 93 27 discriminator 1 view .LVU4
  43 0006 09B3     		cbz	r1, .L10
  94:TOOL/cJSON.c  ****     {
  95:TOOL/cJSON.c  ****         return 1;
  96:TOOL/cJSON.c  ****     }
  97:TOOL/cJSON.c  **** 
  98:TOOL/cJSON.c  ****     if (string1 == string2)
  44              		.loc 1 98 5 is_stmt 1 view .LVU5
  45              		.loc 1 98 8 is_stmt 0 view .LVU6
  46 0008 8842     		cmp	r0, r1
  47 000a 09D1     		bne	.L3
  99:TOOL/cJSON.c  ****     {
 100:TOOL/cJSON.c  ****         return 0;
  48              		.loc 1 100 16 view .LVU7
  49 000c 0020     		movs	r0, #0
  50              	.LVL1:
  51              		.loc 1 100 16 view .LVU8
  52 000e 19E0     		b	.L1
  53              	.LVL2:
  54              	.L18:
  55              	.LBB2:
 101:TOOL/cJSON.c  ****     }
 102:TOOL/cJSON.c  **** 
 103:TOOL/cJSON.c  ****     for(; tolower(*string1) == tolower(*string2); (void)string1++, string2++)
  56              		.loc 1 103 11 discriminator 2 view .LVU9
  57 0010 02F12005 		add	r5, r2, #32
  58 0014 0CE0     		b	.L5
  59              	.LVL3:
  60              	.L7:
  61              		.loc 1 103 11 discriminator 2 view .LVU10
  62              	.LBE2:
  63              		.loc 1 103 5 discriminator 9 view .LVU11
  64 0016 8542     		cmp	r5, r0
  65 0018 13D1     		bne	.L17
 104:TOOL/cJSON.c  ****     {
 105:TOOL/cJSON.c  ****         if (*string1 == '\0')
  66              		.loc 1 105 9 is_stmt 1 view .LVU12
ARM GAS  /var/folders/ww/n4ctlbrs3x70633t9y2ks63c0000gn/T//ccTX1xk7.s 			page 4


  67              		.loc 1 105 12 is_stmt 0 view .LVU13
  68 001a CAB1     		cbz	r2, .L12
 103:TOOL/cJSON.c  ****     {
  69              		.loc 1 103 51 view .LVU14
  70 001c 0134     		adds	r4, r4, #1
  71              	.LVL4:
 103:TOOL/cJSON.c  ****     {
  72              		.loc 1 103 75 view .LVU15
  73 001e 0131     		adds	r1, r1, #1
  74              	.LVL5:
  75              	.L3:
  76              	.LBB3:
 103:TOOL/cJSON.c  ****     {
  77              		.loc 1 103 11 is_stmt 1 discriminator 1 view .LVU16
  78 0020 2278     		ldrb	r2, [r4]	@ zero_extendqisi2
  79              	.LVL6:
 103:TOOL/cJSON.c  ****     {
  80              		.loc 1 103 11 discriminator 1 view .LVU17
  81 0022 0C4B     		ldr	r3, .L19
  82 0024 D35C     		ldrb	r3, [r2, r3]	@ zero_extendqisi2
  83 0026 03F00303 		and	r3, r3, #3
  84 002a 012B     		cmp	r3, #1
  85 002c F0D0     		beq	.L18
 103:TOOL/cJSON.c  ****     {
  86              		.loc 1 103 11 is_stmt 0 discriminator 3 view .LVU18
  87 002e 1546     		mov	r5, r2
  88              	.L5:
 103:TOOL/cJSON.c  ****     {
  89              		.loc 1 103 11 discriminator 3 view .LVU19
  90              	.LBE3:
  91              	.LBB4:
 103:TOOL/cJSON.c  ****     {
  92              		.loc 1 103 32 is_stmt 1 discriminator 5 view .LVU20
  93 0030 0878     		ldrb	r0, [r1]	@ zero_extendqisi2
  94              	.LVL7:
 103:TOOL/cJSON.c  ****     {
  95              		.loc 1 103 32 discriminator 5 view .LVU21
  96 0032 084B     		ldr	r3, .L19
  97 0034 C35C     		ldrb	r3, [r0, r3]	@ zero_extendqisi2
  98 0036 03F00303 		and	r3, r3, #3
  99 003a 012B     		cmp	r3, #1
 100 003c EBD1     		bne	.L7
 103:TOOL/cJSON.c  ****     {
 101              		.loc 1 103 32 is_stmt 0 discriminator 6 view .LVU22
 102 003e 2030     		adds	r0, r0, #32
 103              	.LVL8:
 103:TOOL/cJSON.c  ****     {
 104              		.loc 1 103 32 discriminator 6 view .LVU23
 105 0040 E9E7     		b	.L7
 106              	.LVL9:
 107              	.L17:
 103:TOOL/cJSON.c  ****     {
 108              		.loc 1 103 32 discriminator 6 view .LVU24
 109              	.LBE4:
 106:TOOL/cJSON.c  ****         {
 107:TOOL/cJSON.c  ****             return 0;
 108:TOOL/cJSON.c  ****         }
ARM GAS  /var/folders/ww/n4ctlbrs3x70633t9y2ks63c0000gn/T//ccTX1xk7.s 			page 5


 109:TOOL/cJSON.c  ****     }
 110:TOOL/cJSON.c  **** 
 111:TOOL/cJSON.c  ****     return tolower(*string1) - tolower(*string2);
 110              		.loc 1 111 5 is_stmt 1 discriminator 8 view .LVU25
 111              		.loc 1 111 12 discriminator 8 view .LVU26
 112              		.loc 1 111 12 discriminator 8 view .LVU27
 113              		.loc 1 111 32 discriminator 8 view .LVU28
 114              		.loc 1 111 32 discriminator 8 view .LVU29
 115              		.loc 1 111 30 is_stmt 0 discriminator 8 view .LVU30
 116 0042 281A     		subs	r0, r5, r0
 117              	.LVL10:
 118              	.L1:
 112:TOOL/cJSON.c  **** }
 119              		.loc 1 112 1 view .LVU31
 120 0044 30BC     		pop	{r4, r5}
 121              	.LCFI1:
 122              		.cfi_restore 5
 123              		.cfi_restore 4
 124              		.cfi_def_cfa_offset 0
 125              	.LVL11:
 126              		.loc 1 112 1 view .LVU32
 127 0046 7047     		bx	lr
 128              	.LVL12:
 129              	.L9:
  95:TOOL/cJSON.c  ****     }
 130              		.loc 1 95 16 view .LVU33
 131 0048 0120     		movs	r0, #1
 132              	.LVL13:
 133              		.loc 1 112 1 view .LVU34
 134 004a 7047     		bx	lr
 135              	.LVL14:
 136              	.L10:
 137              	.LCFI2:
 138              		.cfi_def_cfa_offset 8
 139              		.cfi_offset 4, -8
 140              		.cfi_offset 5, -4
  95:TOOL/cJSON.c  ****     }
 141              		.loc 1 95 16 view .LVU35
 142 004c 0120     		movs	r0, #1
 143              	.LVL15:
  95:TOOL/cJSON.c  ****     }
 144              		.loc 1 95 16 view .LVU36
 145 004e F9E7     		b	.L1
 146              	.LVL16:
 147              	.L12:
 107:TOOL/cJSON.c  ****         }
 148              		.loc 1 107 20 view .LVU37
 149 0050 0020     		movs	r0, #0
 150 0052 F7E7     		b	.L1
 151              	.L20:
 152              		.align	2
 153              	.L19:
 154 0054 01000000 		.word	_ctype_+1
 155              		.cfi_endproc
 156              	.LFE70:
 158              		.section	.text.get_decimal_point,"ax",%progbits
 159              		.align	1
ARM GAS  /var/folders/ww/n4ctlbrs3x70633t9y2ks63c0000gn/T//ccTX1xk7.s 			page 6


 160              		.syntax unified
 161              		.thumb
 162              		.thumb_func
 163              		.fpu softvfp
 165              	get_decimal_point:
 166              	.LFB78:
 113:TOOL/cJSON.c  **** 
 114:TOOL/cJSON.c  **** typedef struct internal_hooks
 115:TOOL/cJSON.c  **** {
 116:TOOL/cJSON.c  ****     void *(*allocate)(size_t size);
 117:TOOL/cJSON.c  ****     void (*deallocate)(void *pointer);
 118:TOOL/cJSON.c  ****     void *(*reallocate)(void *pointer, size_t size);
 119:TOOL/cJSON.c  **** } internal_hooks;
 120:TOOL/cJSON.c  **** 
 121:TOOL/cJSON.c  **** //#if defined(_MSC_VER)
 122:TOOL/cJSON.c  **** /* work around MSVC error C2322: '...' address of dillimport '...' is not static */
 123:TOOL/cJSON.c  **** static void *internal_malloc(size_t size)
 124:TOOL/cJSON.c  **** {
 125:TOOL/cJSON.c  ****     return mymalloc(size);
 126:TOOL/cJSON.c  **** }
 127:TOOL/cJSON.c  **** static void internal_free(void *pointer)
 128:TOOL/cJSON.c  **** {
 129:TOOL/cJSON.c  ****     myfree(pointer);
 130:TOOL/cJSON.c  **** }
 131:TOOL/cJSON.c  **** static void *internal_realloc(void *pointer, size_t size)
 132:TOOL/cJSON.c  **** {
 133:TOOL/cJSON.c  ****     return myrealloc(pointer, size);
 134:TOOL/cJSON.c  **** }
 135:TOOL/cJSON.c  **** //#else
 136:TOOL/cJSON.c  **** //#define internal_malloc malloc
 137:TOOL/cJSON.c  **** //#define internal_free free
 138:TOOL/cJSON.c  **** //#define internal_realloc realloc
 139:TOOL/cJSON.c  **** //#endif
 140:TOOL/cJSON.c  **** 
 141:TOOL/cJSON.c  **** static internal_hooks global_hooks = { internal_malloc, internal_free, internal_realloc };
 142:TOOL/cJSON.c  **** 
 143:TOOL/cJSON.c  **** static unsigned char* cJSON_strdup(const unsigned char* string, const internal_hooks * const hooks)
 144:TOOL/cJSON.c  **** {
 145:TOOL/cJSON.c  ****     size_t length = 0;
 146:TOOL/cJSON.c  ****     unsigned char *copy = NULL;
 147:TOOL/cJSON.c  **** 
 148:TOOL/cJSON.c  ****     if (string == NULL)
 149:TOOL/cJSON.c  ****     {
 150:TOOL/cJSON.c  ****         return NULL;
 151:TOOL/cJSON.c  ****     }
 152:TOOL/cJSON.c  **** 
 153:TOOL/cJSON.c  ****     length = strlen((const char*)string) + sizeof("");
 154:TOOL/cJSON.c  ****     copy = (unsigned char*)hooks->allocate(length);
 155:TOOL/cJSON.c  ****     if (copy == NULL)
 156:TOOL/cJSON.c  ****     {
 157:TOOL/cJSON.c  ****         return NULL;
 158:TOOL/cJSON.c  ****     }
 159:TOOL/cJSON.c  ****     memcpy(copy, string, length);
 160:TOOL/cJSON.c  **** 
 161:TOOL/cJSON.c  ****     return copy;
 162:TOOL/cJSON.c  **** }
 163:TOOL/cJSON.c  **** 
ARM GAS  /var/folders/ww/n4ctlbrs3x70633t9y2ks63c0000gn/T//ccTX1xk7.s 			page 7


 164:TOOL/cJSON.c  **** CJSON_PUBLIC(void) cJSON_InitHooks(cJSON_Hooks* hooks)
 165:TOOL/cJSON.c  **** {
 166:TOOL/cJSON.c  ****     if (hooks == NULL)
 167:TOOL/cJSON.c  ****     {
 168:TOOL/cJSON.c  ****         /* Reset hooks */
 169:TOOL/cJSON.c  ****         global_hooks.allocate = malloc;
 170:TOOL/cJSON.c  ****         global_hooks.deallocate = free;
 171:TOOL/cJSON.c  ****         global_hooks.reallocate = realloc;
 172:TOOL/cJSON.c  ****         return;
 173:TOOL/cJSON.c  ****     }
 174:TOOL/cJSON.c  **** 
 175:TOOL/cJSON.c  ****     global_hooks.allocate = malloc;
 176:TOOL/cJSON.c  ****     if (hooks->malloc_fn != NULL)
 177:TOOL/cJSON.c  ****     {
 178:TOOL/cJSON.c  ****         global_hooks.allocate = hooks->malloc_fn;
 179:TOOL/cJSON.c  ****     }
 180:TOOL/cJSON.c  **** 
 181:TOOL/cJSON.c  ****     global_hooks.deallocate = free;
 182:TOOL/cJSON.c  ****     if (hooks->free_fn != NULL)
 183:TOOL/cJSON.c  ****     {
 184:TOOL/cJSON.c  ****         global_hooks.deallocate = hooks->free_fn;
 185:TOOL/cJSON.c  ****     }
 186:TOOL/cJSON.c  **** 
 187:TOOL/cJSON.c  ****     /* use realloc only if both free and malloc are used */
 188:TOOL/cJSON.c  ****     global_hooks.reallocate = NULL;
 189:TOOL/cJSON.c  ****     if ((global_hooks.allocate == malloc) && (global_hooks.deallocate == free))
 190:TOOL/cJSON.c  ****     {
 191:TOOL/cJSON.c  ****         global_hooks.reallocate = realloc;
 192:TOOL/cJSON.c  ****     }
 193:TOOL/cJSON.c  **** }
 194:TOOL/cJSON.c  **** 
 195:TOOL/cJSON.c  **** /* Internal constructor. */
 196:TOOL/cJSON.c  **** static cJSON *cJSON_New_Item(const internal_hooks * const hooks)
 197:TOOL/cJSON.c  **** {
 198:TOOL/cJSON.c  ****     cJSON* node = (cJSON*)hooks->allocate(sizeof(cJSON));
 199:TOOL/cJSON.c  ****     if (node)
 200:TOOL/cJSON.c  ****     {
 201:TOOL/cJSON.c  ****         memset(node, '\0', sizeof(cJSON));
 202:TOOL/cJSON.c  ****     }
 203:TOOL/cJSON.c  **** 
 204:TOOL/cJSON.c  ****     return node;
 205:TOOL/cJSON.c  **** }
 206:TOOL/cJSON.c  **** 
 207:TOOL/cJSON.c  **** /* Delete a cJSON structure. */
 208:TOOL/cJSON.c  **** CJSON_PUBLIC(void) cJSON_Delete(cJSON *item)
 209:TOOL/cJSON.c  **** {
 210:TOOL/cJSON.c  ****     cJSON *next = NULL;
 211:TOOL/cJSON.c  ****     while (item != NULL)
 212:TOOL/cJSON.c  ****     {
 213:TOOL/cJSON.c  ****         next = item->next;
 214:TOOL/cJSON.c  ****         if (!(item->type & cJSON_IsReference) && (item->child != NULL))
 215:TOOL/cJSON.c  ****         {
 216:TOOL/cJSON.c  ****             cJSON_Delete(item->child);
 217:TOOL/cJSON.c  ****         }
 218:TOOL/cJSON.c  ****         if (!(item->type & cJSON_IsReference) && (item->valuestring != NULL))
 219:TOOL/cJSON.c  ****         {
 220:TOOL/cJSON.c  ****             global_hooks.deallocate(item->valuestring);
ARM GAS  /var/folders/ww/n4ctlbrs3x70633t9y2ks63c0000gn/T//ccTX1xk7.s 			page 8


 221:TOOL/cJSON.c  ****         }
 222:TOOL/cJSON.c  ****         if (!(item->type & cJSON_StringIsConst) && (item->string != NULL))
 223:TOOL/cJSON.c  ****         {
 224:TOOL/cJSON.c  ****             global_hooks.deallocate(item->string);
 225:TOOL/cJSON.c  ****         }
 226:TOOL/cJSON.c  ****         global_hooks.deallocate(item);
 227:TOOL/cJSON.c  ****         item = next;
 228:TOOL/cJSON.c  ****     }
 229:TOOL/cJSON.c  **** }
 230:TOOL/cJSON.c  **** 
 231:TOOL/cJSON.c  **** /* get the decimal point character of the current locale */
 232:TOOL/cJSON.c  **** static unsigned char get_decimal_point(void)
 233:TOOL/cJSON.c  **** {
 167              		.loc 1 233 1 is_stmt 1 view -0
 168              		.cfi_startproc
 169              		@ args = 0, pretend = 0, frame = 0
 170              		@ frame_needed = 0, uses_anonymous_args = 0
 171              		@ link register save eliminated.
 234:TOOL/cJSON.c  **** #ifdef ENABLE_LOCALES
 235:TOOL/cJSON.c  ****     struct lconv *lconv = localeconv();
 236:TOOL/cJSON.c  ****     return (unsigned char) lconv->decimal_point[0];
 237:TOOL/cJSON.c  **** #else
 238:TOOL/cJSON.c  ****     return '.';
 172              		.loc 1 238 5 view .LVU39
 239:TOOL/cJSON.c  **** #endif
 240:TOOL/cJSON.c  **** }
 173              		.loc 1 240 1 is_stmt 0 view .LVU40
 174 0000 2E20     		movs	r0, #46
 175 0002 7047     		bx	lr
 176              		.cfi_endproc
 177              	.LFE78:
 179              		.section	.text.parse_hex4,"ax",%progbits
 180              		.align	1
 181              		.syntax unified
 182              		.thumb
 183              		.thumb_func
 184              		.fpu softvfp
 186              	parse_hex4:
 187              	.LVL17:
 188              	.LFB84:
 241:TOOL/cJSON.c  **** 
 242:TOOL/cJSON.c  **** typedef struct
 243:TOOL/cJSON.c  **** {
 244:TOOL/cJSON.c  ****     const unsigned char *content;
 245:TOOL/cJSON.c  ****     size_t length;
 246:TOOL/cJSON.c  ****     size_t offset;
 247:TOOL/cJSON.c  ****     size_t depth; /* How deeply nested (in arrays/objects) is the input at the current offset. */
 248:TOOL/cJSON.c  ****     internal_hooks hooks;
 249:TOOL/cJSON.c  **** } parse_buffer;
 250:TOOL/cJSON.c  **** 
 251:TOOL/cJSON.c  **** /* check if the given size is left to read in a given parse buffer (starting with 1) */
 252:TOOL/cJSON.c  **** #define can_read(buffer, size) ((buffer != NULL) && (((buffer)->offset + size) <= (buffer)->length)
 253:TOOL/cJSON.c  **** /* check if the buffer can be accessed at the given index (starting with 0) */
 254:TOOL/cJSON.c  **** #define can_access_at_index(buffer, index) ((buffer != NULL) && (((buffer)->offset + index) < (buff
 255:TOOL/cJSON.c  **** #define cannot_access_at_index(buffer, index) (!can_access_at_index(buffer, index))
 256:TOOL/cJSON.c  **** /* get a pointer to the buffer at the position */
 257:TOOL/cJSON.c  **** #define buffer_at_offset(buffer) ((buffer)->content + (buffer)->offset)
ARM GAS  /var/folders/ww/n4ctlbrs3x70633t9y2ks63c0000gn/T//ccTX1xk7.s 			page 9


 258:TOOL/cJSON.c  **** 
 259:TOOL/cJSON.c  **** /* Parse the input text to generate a number, and populate the result into item. */
 260:TOOL/cJSON.c  **** static cJSON_bool parse_number(cJSON * const item, parse_buffer * const input_buffer)
 261:TOOL/cJSON.c  **** {
 262:TOOL/cJSON.c  ****     double number = 0;
 263:TOOL/cJSON.c  ****     unsigned char *after_end = NULL;
 264:TOOL/cJSON.c  ****     unsigned char number_c_string[64];
 265:TOOL/cJSON.c  ****     unsigned char decimal_point = get_decimal_point();
 266:TOOL/cJSON.c  ****     size_t i = 0;
 267:TOOL/cJSON.c  **** 
 268:TOOL/cJSON.c  ****     if ((input_buffer == NULL) || (input_buffer->content == NULL))
 269:TOOL/cJSON.c  ****     {
 270:TOOL/cJSON.c  ****         return false;
 271:TOOL/cJSON.c  ****     }
 272:TOOL/cJSON.c  **** 
 273:TOOL/cJSON.c  ****     /* copy the number into a temporary buffer and replace '.' with the decimal point
 274:TOOL/cJSON.c  ****      * of the current locale (for strtod)
 275:TOOL/cJSON.c  ****      * This also takes care of '\0' not necessarily being available for marking the end of the inpu
 276:TOOL/cJSON.c  ****     for (i = 0; (i < (sizeof(number_c_string) - 1)) && can_access_at_index(input_buffer, i); i++)
 277:TOOL/cJSON.c  ****     {
 278:TOOL/cJSON.c  ****         switch (buffer_at_offset(input_buffer)[i])
 279:TOOL/cJSON.c  ****         {
 280:TOOL/cJSON.c  ****             case '0':
 281:TOOL/cJSON.c  ****             case '1':
 282:TOOL/cJSON.c  ****             case '2':
 283:TOOL/cJSON.c  ****             case '3':
 284:TOOL/cJSON.c  ****             case '4':
 285:TOOL/cJSON.c  ****             case '5':
 286:TOOL/cJSON.c  ****             case '6':
 287:TOOL/cJSON.c  ****             case '7':
 288:TOOL/cJSON.c  ****             case '8':
 289:TOOL/cJSON.c  ****             case '9':
 290:TOOL/cJSON.c  ****             case '+':
 291:TOOL/cJSON.c  ****             case '-':
 292:TOOL/cJSON.c  ****             case 'e':
 293:TOOL/cJSON.c  ****             case 'E':
 294:TOOL/cJSON.c  ****                 number_c_string[i] = buffer_at_offset(input_buffer)[i];
 295:TOOL/cJSON.c  ****                 break;
 296:TOOL/cJSON.c  **** 
 297:TOOL/cJSON.c  ****             case '.':
 298:TOOL/cJSON.c  ****                 number_c_string[i] = decimal_point;
 299:TOOL/cJSON.c  ****                 break;
 300:TOOL/cJSON.c  **** 
 301:TOOL/cJSON.c  ****             default:
 302:TOOL/cJSON.c  ****                 goto loop_end;
 303:TOOL/cJSON.c  ****         }
 304:TOOL/cJSON.c  ****     }
 305:TOOL/cJSON.c  **** loop_end:
 306:TOOL/cJSON.c  ****     number_c_string[i] = '\0';
 307:TOOL/cJSON.c  **** 
 308:TOOL/cJSON.c  ****     number = strtod((const char*)number_c_string, (char**)&after_end);
 309:TOOL/cJSON.c  ****     if (number_c_string == after_end)
 310:TOOL/cJSON.c  ****     {
 311:TOOL/cJSON.c  ****         return false; /* parse_error */
 312:TOOL/cJSON.c  ****     }
 313:TOOL/cJSON.c  **** 
 314:TOOL/cJSON.c  ****     item->valuedouble = number;
ARM GAS  /var/folders/ww/n4ctlbrs3x70633t9y2ks63c0000gn/T//ccTX1xk7.s 			page 10


 315:TOOL/cJSON.c  **** 
 316:TOOL/cJSON.c  ****     /* use saturation in case of overflow */
 317:TOOL/cJSON.c  ****     if (number >= INT_MAX)
 318:TOOL/cJSON.c  ****     {
 319:TOOL/cJSON.c  ****         item->valueint = INT_MAX;
 320:TOOL/cJSON.c  ****     }
 321:TOOL/cJSON.c  ****     else if (number <= INT_MIN)
 322:TOOL/cJSON.c  ****     {
 323:TOOL/cJSON.c  ****         item->valueint = INT_MIN;
 324:TOOL/cJSON.c  ****     }
 325:TOOL/cJSON.c  ****     else
 326:TOOL/cJSON.c  ****     {
 327:TOOL/cJSON.c  ****         item->valueint = (int)number;
 328:TOOL/cJSON.c  ****     }
 329:TOOL/cJSON.c  **** 
 330:TOOL/cJSON.c  ****     item->type = cJSON_Number;
 331:TOOL/cJSON.c  **** 
 332:TOOL/cJSON.c  ****     input_buffer->offset += (size_t)(after_end - number_c_string);
 333:TOOL/cJSON.c  ****     return true;
 334:TOOL/cJSON.c  **** }
 335:TOOL/cJSON.c  **** 
 336:TOOL/cJSON.c  **** /* don't ask me, but the original cJSON_SetNumberValue returns an integer or double */
 337:TOOL/cJSON.c  **** CJSON_PUBLIC(double) cJSON_SetNumberHelper(cJSON *object, double number)
 338:TOOL/cJSON.c  **** {
 339:TOOL/cJSON.c  ****     if (number >= INT_MAX)
 340:TOOL/cJSON.c  ****     {
 341:TOOL/cJSON.c  ****         object->valueint = INT_MAX;
 342:TOOL/cJSON.c  ****     }
 343:TOOL/cJSON.c  ****     else if (number <= INT_MIN)
 344:TOOL/cJSON.c  ****     {
 345:TOOL/cJSON.c  ****         object->valueint = INT_MIN;
 346:TOOL/cJSON.c  ****     }
 347:TOOL/cJSON.c  ****     else
 348:TOOL/cJSON.c  ****     {
 349:TOOL/cJSON.c  ****         object->valueint = (int)number;
 350:TOOL/cJSON.c  ****     }
 351:TOOL/cJSON.c  **** 
 352:TOOL/cJSON.c  ****     return object->valuedouble = number;
 353:TOOL/cJSON.c  **** }
 354:TOOL/cJSON.c  **** 
 355:TOOL/cJSON.c  **** typedef struct
 356:TOOL/cJSON.c  **** {
 357:TOOL/cJSON.c  ****     unsigned char *buffer;
 358:TOOL/cJSON.c  ****     size_t length;
 359:TOOL/cJSON.c  ****     size_t offset;
 360:TOOL/cJSON.c  ****     size_t depth; /* current nesting depth (for formatted printing) */
 361:TOOL/cJSON.c  ****     cJSON_bool noalloc;
 362:TOOL/cJSON.c  ****     cJSON_bool format; /* is this print a formatted print */
 363:TOOL/cJSON.c  ****     internal_hooks hooks;
 364:TOOL/cJSON.c  **** } printbuffer;
 365:TOOL/cJSON.c  **** 
 366:TOOL/cJSON.c  **** /* realloc printbuffer if necessary to have at least "needed" bytes more */
 367:TOOL/cJSON.c  **** static unsigned char* ensure(printbuffer * const p, size_t needed)
 368:TOOL/cJSON.c  **** {
 369:TOOL/cJSON.c  ****     unsigned char *newbuffer = NULL;
 370:TOOL/cJSON.c  ****     size_t newsize = 0;
 371:TOOL/cJSON.c  **** 
ARM GAS  /var/folders/ww/n4ctlbrs3x70633t9y2ks63c0000gn/T//ccTX1xk7.s 			page 11


 372:TOOL/cJSON.c  ****     if ((p == NULL) || (p->buffer == NULL))
 373:TOOL/cJSON.c  ****     {
 374:TOOL/cJSON.c  ****         return NULL;
 375:TOOL/cJSON.c  ****     }
 376:TOOL/cJSON.c  **** 
 377:TOOL/cJSON.c  ****     if ((p->length > 0) && (p->offset >= p->length))
 378:TOOL/cJSON.c  ****     {
 379:TOOL/cJSON.c  ****         /* make sure that offset is valid */
 380:TOOL/cJSON.c  ****         return NULL;
 381:TOOL/cJSON.c  ****     }
 382:TOOL/cJSON.c  **** 
 383:TOOL/cJSON.c  ****     if (needed > INT_MAX)
 384:TOOL/cJSON.c  ****     {
 385:TOOL/cJSON.c  ****         /* sizes bigger than INT_MAX are currently not supported */
 386:TOOL/cJSON.c  ****         return NULL;
 387:TOOL/cJSON.c  ****     }
 388:TOOL/cJSON.c  **** 
 389:TOOL/cJSON.c  ****     needed += p->offset + 1;
 390:TOOL/cJSON.c  ****     if (needed <= p->length)
 391:TOOL/cJSON.c  ****     {
 392:TOOL/cJSON.c  ****         return p->buffer + p->offset;
 393:TOOL/cJSON.c  ****     }
 394:TOOL/cJSON.c  **** 
 395:TOOL/cJSON.c  ****     if (p->noalloc) {
 396:TOOL/cJSON.c  ****         return NULL;
 397:TOOL/cJSON.c  ****     }
 398:TOOL/cJSON.c  **** 
 399:TOOL/cJSON.c  ****     /* calculate new buffer size */
 400:TOOL/cJSON.c  ****     if (needed > (INT_MAX / 2))
 401:TOOL/cJSON.c  ****     {
 402:TOOL/cJSON.c  ****         /* overflow of int, use INT_MAX if possible */
 403:TOOL/cJSON.c  ****         if (needed <= INT_MAX)
 404:TOOL/cJSON.c  ****         {
 405:TOOL/cJSON.c  ****             newsize = INT_MAX;
 406:TOOL/cJSON.c  ****         }
 407:TOOL/cJSON.c  ****         else
 408:TOOL/cJSON.c  ****         {
 409:TOOL/cJSON.c  ****             return NULL;
 410:TOOL/cJSON.c  ****         }
 411:TOOL/cJSON.c  ****     }
 412:TOOL/cJSON.c  ****     else
 413:TOOL/cJSON.c  ****     {
 414:TOOL/cJSON.c  ****         newsize = needed * 2;
 415:TOOL/cJSON.c  ****     }
 416:TOOL/cJSON.c  **** 
 417:TOOL/cJSON.c  ****     if (p->hooks.reallocate != NULL)
 418:TOOL/cJSON.c  ****     {
 419:TOOL/cJSON.c  ****         /* reallocate with realloc if available */
 420:TOOL/cJSON.c  ****         newbuffer = (unsigned char*)p->hooks.reallocate(p->buffer, newsize);
 421:TOOL/cJSON.c  ****         if (newbuffer == NULL)
 422:TOOL/cJSON.c  ****         {
 423:TOOL/cJSON.c  ****             p->hooks.deallocate(p->buffer);
 424:TOOL/cJSON.c  ****             p->length = 0;
 425:TOOL/cJSON.c  ****             p->buffer = NULL;
 426:TOOL/cJSON.c  **** 
 427:TOOL/cJSON.c  ****             return NULL;
 428:TOOL/cJSON.c  ****         }
ARM GAS  /var/folders/ww/n4ctlbrs3x70633t9y2ks63c0000gn/T//ccTX1xk7.s 			page 12


 429:TOOL/cJSON.c  ****     }
 430:TOOL/cJSON.c  ****     else
 431:TOOL/cJSON.c  ****     {
 432:TOOL/cJSON.c  ****         /* otherwise reallocate manually */
 433:TOOL/cJSON.c  ****         newbuffer = (unsigned char*)p->hooks.allocate(newsize);
 434:TOOL/cJSON.c  ****         if (!newbuffer)
 435:TOOL/cJSON.c  ****         {
 436:TOOL/cJSON.c  ****             p->hooks.deallocate(p->buffer);
 437:TOOL/cJSON.c  ****             p->length = 0;
 438:TOOL/cJSON.c  ****             p->buffer = NULL;
 439:TOOL/cJSON.c  **** 
 440:TOOL/cJSON.c  ****             return NULL;
 441:TOOL/cJSON.c  ****         }
 442:TOOL/cJSON.c  ****         if (newbuffer)
 443:TOOL/cJSON.c  ****         {
 444:TOOL/cJSON.c  ****             memcpy(newbuffer, p->buffer, p->offset + 1);
 445:TOOL/cJSON.c  ****         }
 446:TOOL/cJSON.c  ****         p->hooks.deallocate(p->buffer);
 447:TOOL/cJSON.c  ****     }
 448:TOOL/cJSON.c  ****     p->length = newsize;
 449:TOOL/cJSON.c  ****     p->buffer = newbuffer;
 450:TOOL/cJSON.c  **** 
 451:TOOL/cJSON.c  ****     return newbuffer + p->offset;
 452:TOOL/cJSON.c  **** }
 453:TOOL/cJSON.c  **** 
 454:TOOL/cJSON.c  **** /* calculate the new length of the string in a printbuffer and update the offset */
 455:TOOL/cJSON.c  **** static void update_offset(printbuffer * const buffer)
 456:TOOL/cJSON.c  **** {
 457:TOOL/cJSON.c  ****     const unsigned char *buffer_pointer = NULL;
 458:TOOL/cJSON.c  ****     if ((buffer == NULL) || (buffer->buffer == NULL))
 459:TOOL/cJSON.c  ****     {
 460:TOOL/cJSON.c  ****         return;
 461:TOOL/cJSON.c  ****     }
 462:TOOL/cJSON.c  ****     buffer_pointer = buffer->buffer + buffer->offset;
 463:TOOL/cJSON.c  **** 
 464:TOOL/cJSON.c  ****     buffer->offset += strlen((const char*)buffer_pointer);
 465:TOOL/cJSON.c  **** }
 466:TOOL/cJSON.c  **** 
 467:TOOL/cJSON.c  **** /* Render the number nicely from the given item into a string. */
 468:TOOL/cJSON.c  **** static cJSON_bool print_number(const cJSON * const item, printbuffer * const output_buffer)
 469:TOOL/cJSON.c  **** {
 470:TOOL/cJSON.c  ****     unsigned char *output_pointer = NULL;
 471:TOOL/cJSON.c  ****     double d = item->valuedouble;
 472:TOOL/cJSON.c  ****     int length = 0;
 473:TOOL/cJSON.c  ****     size_t i = 0;
 474:TOOL/cJSON.c  ****     unsigned char number_buffer[26]; /* temporary buffer to print the number into */
 475:TOOL/cJSON.c  ****     unsigned char decimal_point = get_decimal_point();
 476:TOOL/cJSON.c  ****     double test;
 477:TOOL/cJSON.c  **** 
 478:TOOL/cJSON.c  ****     if (output_buffer == NULL)
 479:TOOL/cJSON.c  ****     {
 480:TOOL/cJSON.c  ****         return false;
 481:TOOL/cJSON.c  ****     }
 482:TOOL/cJSON.c  **** 
 483:TOOL/cJSON.c  ****     /* This checks for NaN and Infinity */
 484:TOOL/cJSON.c  ****     if ((d * 0) != 0)
 485:TOOL/cJSON.c  ****     {
ARM GAS  /var/folders/ww/n4ctlbrs3x70633t9y2ks63c0000gn/T//ccTX1xk7.s 			page 13


 486:TOOL/cJSON.c  ****         length = sprintf((char*)number_buffer, "null");
 487:TOOL/cJSON.c  ****     }
 488:TOOL/cJSON.c  ****     else
 489:TOOL/cJSON.c  ****     {
 490:TOOL/cJSON.c  ****         /* Try 15 decimal places of precision to avoid nonsignificant nonzero digits */
 491:TOOL/cJSON.c  ****         length = sprintf((char*)number_buffer, "%1.15g", d);
 492:TOOL/cJSON.c  **** 
 493:TOOL/cJSON.c  ****         /* Check whether the original double can be recovered */
 494:TOOL/cJSON.c  ****         if ((sscanf((char*)number_buffer, "%lg", &test) != 1) || ((double)test != d))
 495:TOOL/cJSON.c  ****         {
 496:TOOL/cJSON.c  ****             /* If not, print with 17 decimal places of precision */
 497:TOOL/cJSON.c  ****             length = sprintf((char*)number_buffer, "%1.17g", d);
 498:TOOL/cJSON.c  ****         }
 499:TOOL/cJSON.c  ****     }
 500:TOOL/cJSON.c  **** 
 501:TOOL/cJSON.c  ****     /* sprintf failed or buffer overrun occured */
 502:TOOL/cJSON.c  ****     if ((length < 0) || (length > (int)(sizeof(number_buffer) - 1)))
 503:TOOL/cJSON.c  ****     {
 504:TOOL/cJSON.c  ****         return false;
 505:TOOL/cJSON.c  ****     }
 506:TOOL/cJSON.c  **** 
 507:TOOL/cJSON.c  ****     /* reserve appropriate space in the output */
 508:TOOL/cJSON.c  ****     output_pointer = ensure(output_buffer, (size_t)length);
 509:TOOL/cJSON.c  ****     if (output_pointer == NULL)
 510:TOOL/cJSON.c  ****     {
 511:TOOL/cJSON.c  ****         return false;
 512:TOOL/cJSON.c  ****     }
 513:TOOL/cJSON.c  **** 
 514:TOOL/cJSON.c  ****     /* copy the printed number to the output and replace locale
 515:TOOL/cJSON.c  ****      * dependent decimal point with '.' */
 516:TOOL/cJSON.c  ****     for (i = 0; i < ((size_t)length); i++)
 517:TOOL/cJSON.c  ****     {
 518:TOOL/cJSON.c  ****         if (number_buffer[i] == decimal_point)
 519:TOOL/cJSON.c  ****         {
 520:TOOL/cJSON.c  ****             output_pointer[i] = '.';
 521:TOOL/cJSON.c  ****             continue;
 522:TOOL/cJSON.c  ****         }
 523:TOOL/cJSON.c  **** 
 524:TOOL/cJSON.c  ****         output_pointer[i] = number_buffer[i];
 525:TOOL/cJSON.c  ****     }
 526:TOOL/cJSON.c  ****     output_pointer[i] = '\0';
 527:TOOL/cJSON.c  **** 
 528:TOOL/cJSON.c  ****     output_buffer->offset += (size_t)length;
 529:TOOL/cJSON.c  **** 
 530:TOOL/cJSON.c  ****     return true;
 531:TOOL/cJSON.c  **** }
 532:TOOL/cJSON.c  **** 
 533:TOOL/cJSON.c  **** /* parse 4 digit hexadecimal number */
 534:TOOL/cJSON.c  **** static unsigned parse_hex4(const unsigned char * const input)
 535:TOOL/cJSON.c  **** {
 189              		.loc 1 535 1 is_stmt 1 view -0
 190              		.cfi_startproc
 191              		@ args = 0, pretend = 0, frame = 0
 192              		@ frame_needed = 0, uses_anonymous_args = 0
 193              		@ link register save eliminated.
 536:TOOL/cJSON.c  ****     unsigned int h = 0;
 194              		.loc 1 536 5 view .LVU42
ARM GAS  /var/folders/ww/n4ctlbrs3x70633t9y2ks63c0000gn/T//ccTX1xk7.s 			page 14


 537:TOOL/cJSON.c  ****     size_t i = 0;
 195              		.loc 1 537 5 view .LVU43
 538:TOOL/cJSON.c  **** 
 539:TOOL/cJSON.c  ****     for (i = 0; i < 4; i++)
 196              		.loc 1 539 5 view .LVU44
 197              		.loc 1 539 12 is_stmt 0 view .LVU45
 198 0000 0022     		movs	r2, #0
 536:TOOL/cJSON.c  ****     size_t i = 0;
 199              		.loc 1 536 18 view .LVU46
 200 0002 1346     		mov	r3, r2
 201              	.LVL18:
 202              		.loc 1 539 5 view .LVU47
 203 0004 032A     		cmp	r2, #3
 204 0006 23D8     		bhi	.L35
 535:TOOL/cJSON.c  ****     unsigned int h = 0;
 205              		.loc 1 535 1 view .LVU48
 206 0008 10B4     		push	{r4}
 207              	.LCFI3:
 208              		.cfi_def_cfa_offset 4
 209              		.cfi_offset 4, -4
 210 000a 0CE0     		b	.L29
 211              	.LVL19:
 212              	.L24:
 540:TOOL/cJSON.c  ****     {
 541:TOOL/cJSON.c  ****         /* parse digit */
 542:TOOL/cJSON.c  ****         if ((input[i] >= '0') && (input[i] <= '9'))
 543:TOOL/cJSON.c  ****         {
 544:TOOL/cJSON.c  ****             h += (unsigned int) input[i] - '0';
 545:TOOL/cJSON.c  ****         }
 546:TOOL/cJSON.c  ****         else if ((input[i] >= 'A') && (input[i] <= 'F'))
 213              		.loc 1 546 14 is_stmt 1 view .LVU49
 214              		.loc 1 546 36 is_stmt 0 view .LVU50
 215 000c A4F14101 		sub	r1, r4, #65
 216 0010 C9B2     		uxtb	r1, r1
 217              		.loc 1 546 17 view .LVU51
 218 0012 0529     		cmp	r1, #5
 219 0014 10D8     		bhi	.L26
 547:TOOL/cJSON.c  ****         {
 548:TOOL/cJSON.c  ****             h += (unsigned int) 10 + input[i] - 'A';
 220              		.loc 1 548 13 is_stmt 1 view .LVU52
 221              		.loc 1 548 15 is_stmt 0 view .LVU53
 222 0016 2344     		add	r3, r3, r4
 223              	.LVL20:
 224              		.loc 1 548 15 view .LVU54
 225 0018 373B     		subs	r3, r3, #55
 226              	.LVL21:
 227              	.L25:
 549:TOOL/cJSON.c  ****         }
 550:TOOL/cJSON.c  ****         else if ((input[i] >= 'a') && (input[i] <= 'f'))
 551:TOOL/cJSON.c  ****         {
 552:TOOL/cJSON.c  ****             h += (unsigned int) 10 + input[i] - 'a';
 553:TOOL/cJSON.c  ****         }
 554:TOOL/cJSON.c  ****         else /* invalid */
 555:TOOL/cJSON.c  ****         {
 556:TOOL/cJSON.c  ****             return 0;
 557:TOOL/cJSON.c  ****         }
 558:TOOL/cJSON.c  **** 
ARM GAS  /var/folders/ww/n4ctlbrs3x70633t9y2ks63c0000gn/T//ccTX1xk7.s 			page 15


 559:TOOL/cJSON.c  ****         if (i < 3)
 228              		.loc 1 559 9 is_stmt 1 view .LVU55
 229              		.loc 1 559 12 is_stmt 0 view .LVU56
 230 001a 022A     		cmp	r2, #2
 231 001c 00D8     		bhi	.L28
 560:TOOL/cJSON.c  ****         {
 561:TOOL/cJSON.c  ****             /* shift left to make place for the next nibble */
 562:TOOL/cJSON.c  ****             h = h << 4;
 232              		.loc 1 562 13 is_stmt 1 view .LVU57
 233              		.loc 1 562 15 is_stmt 0 view .LVU58
 234 001e 1B01     		lsls	r3, r3, #4
 235              	.LVL22:
 236              	.L28:
 539:TOOL/cJSON.c  ****     {
 237              		.loc 1 539 25 discriminator 2 view .LVU59
 238 0020 0132     		adds	r2, r2, #1
 239              	.LVL23:
 539:TOOL/cJSON.c  ****     {
 240              		.loc 1 539 5 discriminator 2 view .LVU60
 241 0022 032A     		cmp	r2, #3
 242 0024 11D8     		bhi	.L22
 243              	.L29:
 542:TOOL/cJSON.c  ****         {
 244              		.loc 1 542 9 is_stmt 1 view .LVU61
 542:TOOL/cJSON.c  ****         {
 245              		.loc 1 542 19 is_stmt 0 view .LVU62
 246 0026 845C     		ldrb	r4, [r0, r2]	@ zero_extendqisi2
 542:TOOL/cJSON.c  ****         {
 247              		.loc 1 542 31 view .LVU63
 248 0028 A4F13001 		sub	r1, r4, #48
 249 002c C9B2     		uxtb	r1, r1
 542:TOOL/cJSON.c  ****         {
 250              		.loc 1 542 12 view .LVU64
 251 002e 0929     		cmp	r1, #9
 252 0030 ECD8     		bhi	.L24
 544:TOOL/cJSON.c  ****         }
 253              		.loc 1 544 13 is_stmt 1 view .LVU65
 544:TOOL/cJSON.c  ****         }
 254              		.loc 1 544 15 is_stmt 0 view .LVU66
 255 0032 2344     		add	r3, r3, r4
 256              	.LVL24:
 544:TOOL/cJSON.c  ****         }
 257              		.loc 1 544 15 view .LVU67
 258 0034 303B     		subs	r3, r3, #48
 259              	.LVL25:
 544:TOOL/cJSON.c  ****         }
 260              		.loc 1 544 15 view .LVU68
 261 0036 F0E7     		b	.L25
 262              	.L26:
 550:TOOL/cJSON.c  ****         {
 263              		.loc 1 550 14 is_stmt 1 view .LVU69
 550:TOOL/cJSON.c  ****         {
 264              		.loc 1 550 36 is_stmt 0 view .LVU70
 265 0038 A4F16101 		sub	r1, r4, #97
 266 003c C9B2     		uxtb	r1, r1
 550:TOOL/cJSON.c  ****         {
 267              		.loc 1 550 17 view .LVU71
ARM GAS  /var/folders/ww/n4ctlbrs3x70633t9y2ks63c0000gn/T//ccTX1xk7.s 			page 16


 268 003e 0529     		cmp	r1, #5
 269 0040 02D8     		bhi	.L30
 552:TOOL/cJSON.c  ****         }
 270              		.loc 1 552 13 is_stmt 1 view .LVU72
 552:TOOL/cJSON.c  ****         }
 271              		.loc 1 552 15 is_stmt 0 view .LVU73
 272 0042 2344     		add	r3, r3, r4
 273              	.LVL26:
 552:TOOL/cJSON.c  ****         }
 274              		.loc 1 552 15 view .LVU74
 275 0044 573B     		subs	r3, r3, #87
 276              	.LVL27:
 552:TOOL/cJSON.c  ****         }
 277              		.loc 1 552 15 view .LVU75
 278 0046 E8E7     		b	.L25
 279              	.L30:
 556:TOOL/cJSON.c  ****         }
 280              		.loc 1 556 20 view .LVU76
 281 0048 0023     		movs	r3, #0
 282              	.LVL28:
 283              	.L22:
 563:TOOL/cJSON.c  ****         }
 564:TOOL/cJSON.c  ****     }
 565:TOOL/cJSON.c  **** 
 566:TOOL/cJSON.c  ****     return h;
 567:TOOL/cJSON.c  **** }
 284              		.loc 1 567 1 view .LVU77
 285 004a 1846     		mov	r0, r3
 286              	.LVL29:
 287              		.loc 1 567 1 view .LVU78
 288 004c 10BC     		pop	{r4}
 289              	.LCFI4:
 290              		.cfi_restore 4
 291              		.cfi_def_cfa_offset 0
 292 004e 7047     		bx	lr
 293              	.LVL30:
 294              	.L35:
 295              		.loc 1 567 1 view .LVU79
 296 0050 1046     		mov	r0, r2
 297              	.LVL31:
 298              		.loc 1 567 1 view .LVU80
 299 0052 7047     		bx	lr
 300              		.cfi_endproc
 301              	.LFE84:
 303              		.section	.text.utf16_literal_to_utf8,"ax",%progbits
 304              		.align	1
 305              		.syntax unified
 306              		.thumb
 307              		.thumb_func
 308              		.fpu softvfp
 310              	utf16_literal_to_utf8:
 311              	.LVL32:
 312              	.LFB85:
 568:TOOL/cJSON.c  **** 
 569:TOOL/cJSON.c  **** /* converts a UTF-16 literal to UTF-8
 570:TOOL/cJSON.c  ****  * A literal can be one or two sequences of the form \uXXXX */
 571:TOOL/cJSON.c  **** static unsigned char utf16_literal_to_utf8(const unsigned char * const input_pointer, const unsigne
ARM GAS  /var/folders/ww/n4ctlbrs3x70633t9y2ks63c0000gn/T//ccTX1xk7.s 			page 17


 572:TOOL/cJSON.c  **** {
 313              		.loc 1 572 1 is_stmt 1 view -0
 314              		.cfi_startproc
 315              		@ args = 0, pretend = 0, frame = 0
 316              		@ frame_needed = 0, uses_anonymous_args = 0
 317              		.loc 1 572 1 is_stmt 0 view .LVU82
 318 0000 F8B5     		push	{r3, r4, r5, r6, r7, lr}
 319              	.LCFI5:
 320              		.cfi_def_cfa_offset 24
 321              		.cfi_offset 3, -24
 322              		.cfi_offset 4, -20
 323              		.cfi_offset 5, -16
 324              		.cfi_offset 6, -12
 325              		.cfi_offset 7, -8
 326              		.cfi_offset 14, -4
 573:TOOL/cJSON.c  ****     long unsigned int codepoint = 0;
 327              		.loc 1 573 5 is_stmt 1 view .LVU83
 328              	.LVL33:
 574:TOOL/cJSON.c  ****     unsigned int first_code = 0;
 329              		.loc 1 574 5 view .LVU84
 575:TOOL/cJSON.c  ****     const unsigned char *first_sequence = input_pointer;
 330              		.loc 1 575 5 view .LVU85
 576:TOOL/cJSON.c  ****     unsigned char utf8_length = 0;
 331              		.loc 1 576 5 view .LVU86
 577:TOOL/cJSON.c  ****     unsigned char utf8_position = 0;
 332              		.loc 1 577 5 view .LVU87
 578:TOOL/cJSON.c  ****     unsigned char sequence_length = 0;
 333              		.loc 1 578 5 view .LVU88
 579:TOOL/cJSON.c  ****     unsigned char first_byte_mark = 0;
 334              		.loc 1 579 5 view .LVU89
 580:TOOL/cJSON.c  **** 
 581:TOOL/cJSON.c  ****     if ((input_end - first_sequence) < 6)
 335              		.loc 1 581 5 view .LVU90
 336              		.loc 1 581 20 is_stmt 0 view .LVU91
 337 0002 0B1A     		subs	r3, r1, r0
 338              		.loc 1 581 8 view .LVU92
 339 0004 052B     		cmp	r3, #5
 340 0006 5FDD     		ble	.L44
 341 0008 1546     		mov	r5, r2
 342 000a 0E46     		mov	r6, r1
 343 000c 0746     		mov	r7, r0
 582:TOOL/cJSON.c  ****     {
 583:TOOL/cJSON.c  ****         /* input ends unexpectedly */
 584:TOOL/cJSON.c  ****         goto fail;
 585:TOOL/cJSON.c  ****     }
 586:TOOL/cJSON.c  **** 
 587:TOOL/cJSON.c  ****     /* get the first utf16 sequence */
 588:TOOL/cJSON.c  ****     first_code = parse_hex4(first_sequence + 2);
 344              		.loc 1 588 5 is_stmt 1 view .LVU93
 345              		.loc 1 588 18 is_stmt 0 view .LVU94
 346 000e 0230     		adds	r0, r0, #2
 347              	.LVL34:
 348              		.loc 1 588 18 view .LVU95
 349 0010 FFF7FEFF 		bl	parse_hex4
 350              	.LVL35:
 351              		.loc 1 588 18 view .LVU96
 352 0014 0446     		mov	r4, r0
ARM GAS  /var/folders/ww/n4ctlbrs3x70633t9y2ks63c0000gn/T//ccTX1xk7.s 			page 18


 353              	.LVL36:
 589:TOOL/cJSON.c  **** 
 590:TOOL/cJSON.c  ****     /* check that the code is valid */
 591:TOOL/cJSON.c  ****     if (((first_code >= 0xDC00) && (first_code <= 0xDFFF)))
 354              		.loc 1 591 5 is_stmt 1 view .LVU97
 355              		.loc 1 591 33 is_stmt 0 view .LVU98
 356 0016 A0F55C43 		sub	r3, r0, #56320
 357              		.loc 1 591 8 view .LVU99
 358 001a B3F5806F 		cmp	r3, #1024
 359 001e 55D3     		bcc	.L45
 592:TOOL/cJSON.c  ****     {
 593:TOOL/cJSON.c  ****         goto fail;
 594:TOOL/cJSON.c  ****     }
 595:TOOL/cJSON.c  **** 
 596:TOOL/cJSON.c  ****     /* UTF16 surrogate pair */
 597:TOOL/cJSON.c  ****     if ((first_code >= 0xD800) && (first_code <= 0xDBFF))
 360              		.loc 1 597 5 is_stmt 1 view .LVU100
 361              		.loc 1 597 32 is_stmt 0 view .LVU101
 362 0020 A0F55843 		sub	r3, r0, #55296
 363              		.loc 1 597 8 view .LVU102
 364 0024 B3F5806F 		cmp	r3, #1024
 365 0028 1CD2     		bcs	.L46
 366              	.LBB5:
 598:TOOL/cJSON.c  ****     {
 599:TOOL/cJSON.c  ****         const unsigned char *second_sequence = first_sequence + 6;
 367              		.loc 1 599 9 is_stmt 1 view .LVU103
 368              		.loc 1 599 30 is_stmt 0 view .LVU104
 369 002a B91D     		adds	r1, r7, #6
 370              	.LVL37:
 600:TOOL/cJSON.c  ****         unsigned int second_code = 0;
 371              		.loc 1 600 9 is_stmt 1 view .LVU105
 601:TOOL/cJSON.c  ****         sequence_length = 12; /* \uXXXX\uXXXX */
 372              		.loc 1 601 9 view .LVU106
 602:TOOL/cJSON.c  **** 
 603:TOOL/cJSON.c  ****         if ((input_end - second_sequence) < 6)
 373              		.loc 1 603 9 view .LVU107
 374              		.loc 1 603 24 is_stmt 0 view .LVU108
 375 002c 711A     		subs	r1, r6, r1
 376              	.LVL38:
 377              		.loc 1 603 12 view .LVU109
 378 002e 0529     		cmp	r1, #5
 379 0030 4EDD     		ble	.L47
 604:TOOL/cJSON.c  ****         {
 605:TOOL/cJSON.c  ****             /* input ends unexpectedly */
 606:TOOL/cJSON.c  ****             goto fail;
 607:TOOL/cJSON.c  ****         }
 608:TOOL/cJSON.c  **** 
 609:TOOL/cJSON.c  ****         if ((second_sequence[0] != '\\') || (second_sequence[1] != 'u'))
 380              		.loc 1 609 9 is_stmt 1 view .LVU110
 381              		.loc 1 609 29 is_stmt 0 view .LVU111
 382 0032 BB79     		ldrb	r3, [r7, #6]	@ zero_extendqisi2
 383              		.loc 1 609 12 view .LVU112
 384 0034 5C2B     		cmp	r3, #92
 385 0036 4DD1     		bne	.L48
 386              		.loc 1 609 61 discriminator 1 view .LVU113
 387 0038 FB79     		ldrb	r3, [r7, #7]	@ zero_extendqisi2
 388              		.loc 1 609 42 discriminator 1 view .LVU114
ARM GAS  /var/folders/ww/n4ctlbrs3x70633t9y2ks63c0000gn/T//ccTX1xk7.s 			page 19


 389 003a 752B     		cmp	r3, #117
 390 003c 4CD1     		bne	.L49
 610:TOOL/cJSON.c  ****         {
 611:TOOL/cJSON.c  ****             /* missing second half of the surrogate pair */
 612:TOOL/cJSON.c  ****             goto fail;
 613:TOOL/cJSON.c  ****         }
 614:TOOL/cJSON.c  **** 
 615:TOOL/cJSON.c  ****         /* get the second utf16 sequence */
 616:TOOL/cJSON.c  ****         second_code = parse_hex4(second_sequence + 2);
 391              		.loc 1 616 9 is_stmt 1 view .LVU115
 392              		.loc 1 616 23 is_stmt 0 view .LVU116
 393 003e 07F10800 		add	r0, r7, #8
 394              	.LVL39:
 395              		.loc 1 616 23 view .LVU117
 396 0042 FFF7FEFF 		bl	parse_hex4
 397              	.LVL40:
 617:TOOL/cJSON.c  ****         /* check that the code is valid */
 618:TOOL/cJSON.c  ****         if ((second_code < 0xDC00) || (second_code > 0xDFFF))
 398              		.loc 1 618 9 is_stmt 1 view .LVU118
 399              		.loc 1 618 36 is_stmt 0 view .LVU119
 400 0046 A0F55C43 		sub	r3, r0, #56320
 401              		.loc 1 618 12 view .LVU120
 402 004a B3F5806F 		cmp	r3, #1024
 403 004e 45D2     		bcs	.L50
 619:TOOL/cJSON.c  ****         {
 620:TOOL/cJSON.c  ****             /* invalid second half of the surrogate pair */
 621:TOOL/cJSON.c  ****             goto fail;
 622:TOOL/cJSON.c  ****         }
 623:TOOL/cJSON.c  **** 
 624:TOOL/cJSON.c  **** 
 625:TOOL/cJSON.c  ****         /* calculate the unicode codepoint from the surrogate pair */
 626:TOOL/cJSON.c  ****         codepoint = 0x10000 + (((first_code & 0x3FF) << 10) | (second_code & 0x3FF));
 404              		.loc 1 626 9 is_stmt 1 view .LVU121
 405              		.loc 1 626 54 is_stmt 0 view .LVU122
 406 0050 244B     		ldr	r3, .L57
 407 0052 03EA8424 		and	r4, r3, r4, lsl #10
 408              	.LVL41:
 409              		.loc 1 626 76 view .LVU123
 410 0056 C0F30900 		ubfx	r0, r0, #0, #10
 411              	.LVL42:
 412              		.loc 1 626 61 view .LVU124
 413 005a 0443     		orrs	r4, r4, r0
 414              		.loc 1 626 19 view .LVU125
 415 005c 04F58034 		add	r4, r4, #65536
 416              	.LVL43:
 601:TOOL/cJSON.c  **** 
 417              		.loc 1 601 25 view .LVU126
 418 0060 0C20     		movs	r0, #12
 419              	.LBE5:
 420 0062 00E0     		b	.L38
 421              	.LVL44:
 422              	.L46:
 627:TOOL/cJSON.c  ****     }
 628:TOOL/cJSON.c  ****     else
 629:TOOL/cJSON.c  ****     {
 630:TOOL/cJSON.c  ****         sequence_length = 6; /* \uXXXX */
 423              		.loc 1 630 25 view .LVU127
ARM GAS  /var/folders/ww/n4ctlbrs3x70633t9y2ks63c0000gn/T//ccTX1xk7.s 			page 20


 424 0064 0620     		movs	r0, #6
 425              	.LVL45:
 426              	.L38:
 631:TOOL/cJSON.c  ****         codepoint = first_code;
 632:TOOL/cJSON.c  ****     }
 633:TOOL/cJSON.c  **** 
 634:TOOL/cJSON.c  ****     /* encode as UTF-8
 635:TOOL/cJSON.c  ****      * takes at maximum 4 bytes to encode:
 636:TOOL/cJSON.c  ****      * 11110xxx 10xxxxxx 10xxxxxx 10xxxxxx */
 637:TOOL/cJSON.c  ****     if (codepoint < 0x80)
 427              		.loc 1 637 5 is_stmt 1 view .LVU128
 428              		.loc 1 637 8 is_stmt 0 view .LVU129
 429 0066 7F2C     		cmp	r4, #127
 430 0068 0BD9     		bls	.L51
 638:TOOL/cJSON.c  ****     {
 639:TOOL/cJSON.c  ****         /* normal ascii, encoding 0xxxxxxx */
 640:TOOL/cJSON.c  ****         utf8_length = 1;
 641:TOOL/cJSON.c  ****     }
 642:TOOL/cJSON.c  ****     else if (codepoint < 0x800)
 431              		.loc 1 642 10 is_stmt 1 view .LVU130
 432              		.loc 1 642 13 is_stmt 0 view .LVU131
 433 006a B4F5006F 		cmp	r4, #2048
 434 006e 17D3     		bcc	.L52
 643:TOOL/cJSON.c  ****     {
 644:TOOL/cJSON.c  ****         /* two bytes, encoding 110xxxxx 10xxxxxx */
 645:TOOL/cJSON.c  ****         utf8_length = 2;
 646:TOOL/cJSON.c  ****         first_byte_mark = 0xC0; /* 11000000 */
 647:TOOL/cJSON.c  ****     }
 648:TOOL/cJSON.c  ****     else if (codepoint < 0x10000)
 435              		.loc 1 648 10 is_stmt 1 view .LVU132
 436              		.loc 1 648 13 is_stmt 0 view .LVU133
 437 0070 B4F5803F 		cmp	r4, #65536
 438 0074 17D3     		bcc	.L53
 649:TOOL/cJSON.c  ****     {
 650:TOOL/cJSON.c  ****         /* three bytes, encoding 1110xxxx 10xxxxxx 10xxxxxx */
 651:TOOL/cJSON.c  ****         utf8_length = 3;
 652:TOOL/cJSON.c  ****         first_byte_mark = 0xE0; /* 11100000 */
 653:TOOL/cJSON.c  ****     }
 654:TOOL/cJSON.c  ****     else if (codepoint <= 0x10FFFF)
 439              		.loc 1 654 10 is_stmt 1 view .LVU134
 440              		.loc 1 654 13 is_stmt 0 view .LVU135
 441 0076 B4F5881F 		cmp	r4, #1114112
 442 007a 31D2     		bcs	.L54
 655:TOOL/cJSON.c  ****     {
 656:TOOL/cJSON.c  ****         /* four bytes, encoding 1110xxxx 10xxxxxx 10xxxxxx 10xxxxxx */
 657:TOOL/cJSON.c  ****         utf8_length = 4;
 658:TOOL/cJSON.c  ****         first_byte_mark = 0xF0; /* 11110000 */
 443              		.loc 1 658 25 view .LVU136
 444 007c F027     		movs	r7, #240
 445              	.LVL46:
 657:TOOL/cJSON.c  ****         first_byte_mark = 0xF0; /* 11110000 */
 446              		.loc 1 657 21 view .LVU137
 447 007e 0426     		movs	r6, #4
 448              	.LVL47:
 657:TOOL/cJSON.c  ****         first_byte_mark = 0xF0; /* 11110000 */
 449              		.loc 1 657 21 view .LVU138
 450 0080 01E0     		b	.L39
ARM GAS  /var/folders/ww/n4ctlbrs3x70633t9y2ks63c0000gn/T//ccTX1xk7.s 			page 21


 451              	.LVL48:
 452              	.L51:
 579:TOOL/cJSON.c  **** 
 453              		.loc 1 579 19 view .LVU139
 454 0082 0027     		movs	r7, #0
 455              	.LVL49:
 640:TOOL/cJSON.c  ****     }
 456              		.loc 1 640 21 view .LVU140
 457 0084 0126     		movs	r6, #1
 458              	.LVL50:
 459              	.L39:
 659:TOOL/cJSON.c  ****     }
 660:TOOL/cJSON.c  ****     else
 661:TOOL/cJSON.c  ****     {
 662:TOOL/cJSON.c  ****         /* invalid unicode codepoint */
 663:TOOL/cJSON.c  ****         goto fail;
 664:TOOL/cJSON.c  ****     }
 665:TOOL/cJSON.c  **** 
 666:TOOL/cJSON.c  ****     /* encode as utf8 */
 667:TOOL/cJSON.c  ****     for (utf8_position = (unsigned char)(utf8_length - 1); utf8_position > 0; utf8_position--)
 460              		.loc 1 667 5 is_stmt 1 view .LVU141
 461              		.loc 1 667 24 is_stmt 0 view .LVU142
 462 0086 731E     		subs	r3, r6, #1
 463 0088 DBB2     		uxtb	r3, r3
 464              	.LVL51:
 465              	.L40:
 466              		.loc 1 667 5 discriminator 1 view .LVU143
 467 008a 7BB1     		cbz	r3, .L56
 668:TOOL/cJSON.c  ****     {
 669:TOOL/cJSON.c  ****         /* 10xxxxxx */
 670:TOOL/cJSON.c  ****         (*output_pointer)[utf8_position] = (unsigned char)((codepoint | 0x80) & 0xBF);
 468              		.loc 1 670 9 is_stmt 1 discriminator 3 view .LVU144
 469              		.loc 1 670 79 is_stmt 0 discriminator 3 view .LVU145
 470 008c 04F03F01 		and	r1, r4, #63
 471              		.loc 1 670 10 discriminator 3 view .LVU146
 472 0090 2A68     		ldr	r2, [r5]
 473              		.loc 1 670 44 discriminator 3 view .LVU147
 474 0092 41F08001 		orr	r1, r1, #128
 475              		.loc 1 670 42 discriminator 3 view .LVU148
 476 0096 D154     		strb	r1, [r2, r3]
 671:TOOL/cJSON.c  ****         codepoint >>= 6;
 477              		.loc 1 671 9 is_stmt 1 discriminator 3 view .LVU149
 478              		.loc 1 671 19 is_stmt 0 discriminator 3 view .LVU150
 479 0098 A409     		lsrs	r4, r4, #6
 480              	.LVL52:
 667:TOOL/cJSON.c  ****     {
 481              		.loc 1 667 92 discriminator 3 view .LVU151
 482 009a 013B     		subs	r3, r3, #1
 483              	.LVL53:
 667:TOOL/cJSON.c  ****     {
 484              		.loc 1 667 92 discriminator 3 view .LVU152
 485 009c DBB2     		uxtb	r3, r3
 486              	.LVL54:
 667:TOOL/cJSON.c  ****     {
 487              		.loc 1 667 92 discriminator 3 view .LVU153
 488 009e F4E7     		b	.L40
 489              	.LVL55:
ARM GAS  /var/folders/ww/n4ctlbrs3x70633t9y2ks63c0000gn/T//ccTX1xk7.s 			page 22


 490              	.L52:
 646:TOOL/cJSON.c  ****     }
 491              		.loc 1 646 25 view .LVU154
 492 00a0 C027     		movs	r7, #192
 493              	.LVL56:
 645:TOOL/cJSON.c  ****         first_byte_mark = 0xC0; /* 11000000 */
 494              		.loc 1 645 21 view .LVU155
 495 00a2 0226     		movs	r6, #2
 496              	.LVL57:
 645:TOOL/cJSON.c  ****         first_byte_mark = 0xC0; /* 11000000 */
 497              		.loc 1 645 21 view .LVU156
 498 00a4 EFE7     		b	.L39
 499              	.LVL58:
 500              	.L53:
 652:TOOL/cJSON.c  ****     }
 501              		.loc 1 652 25 view .LVU157
 502 00a6 E027     		movs	r7, #224
 503              	.LVL59:
 651:TOOL/cJSON.c  ****         first_byte_mark = 0xE0; /* 11100000 */
 504              		.loc 1 651 21 view .LVU158
 505 00a8 0326     		movs	r6, #3
 506              	.LVL60:
 651:TOOL/cJSON.c  ****         first_byte_mark = 0xE0; /* 11100000 */
 507              		.loc 1 651 21 view .LVU159
 508 00aa ECE7     		b	.L39
 509              	.LVL61:
 510              	.L56:
 672:TOOL/cJSON.c  ****     }
 673:TOOL/cJSON.c  ****     /* encode first byte */
 674:TOOL/cJSON.c  ****     if (utf8_length > 1)
 511              		.loc 1 674 5 is_stmt 1 view .LVU160
 512              		.loc 1 674 8 is_stmt 0 view .LVU161
 513 00ac 012E     		cmp	r6, #1
 514 00ae 06D9     		bls	.L42
 675:TOOL/cJSON.c  ****     {
 676:TOOL/cJSON.c  ****         (*output_pointer)[0] = (unsigned char)((codepoint | first_byte_mark) & 0xFF);
 515              		.loc 1 676 9 is_stmt 1 view .LVU162
 516              		.loc 1 676 10 is_stmt 0 view .LVU163
 517 00b0 2B68     		ldr	r3, [r5]
 518              	.LVL62:
 519              		.loc 1 676 32 view .LVU164
 520 00b2 3C43     		orrs	r4, r4, r7
 521              	.LVL63:
 522              		.loc 1 676 30 view .LVU165
 523 00b4 1C70     		strb	r4, [r3]
 524              	.L43:
 677:TOOL/cJSON.c  ****     }
 678:TOOL/cJSON.c  ****     else
 679:TOOL/cJSON.c  ****     {
 680:TOOL/cJSON.c  ****         (*output_pointer)[0] = (unsigned char)(codepoint & 0x7F);
 681:TOOL/cJSON.c  ****     }
 682:TOOL/cJSON.c  **** 
 683:TOOL/cJSON.c  ****     *output_pointer += utf8_length;
 525              		.loc 1 683 5 is_stmt 1 view .LVU166
 526              		.loc 1 683 21 is_stmt 0 view .LVU167
 527 00b6 2B68     		ldr	r3, [r5]
 528 00b8 3344     		add	r3, r3, r6
ARM GAS  /var/folders/ww/n4ctlbrs3x70633t9y2ks63c0000gn/T//ccTX1xk7.s 			page 23


 529 00ba 2B60     		str	r3, [r5]
 684:TOOL/cJSON.c  **** 
 685:TOOL/cJSON.c  ****     return sequence_length;
 530              		.loc 1 685 5 is_stmt 1 view .LVU168
 531              		.loc 1 685 12 is_stmt 0 view .LVU169
 532 00bc 05E0     		b	.L37
 533              	.LVL64:
 534              	.L42:
 680:TOOL/cJSON.c  ****     }
 535              		.loc 1 680 9 is_stmt 1 view .LVU170
 680:TOOL/cJSON.c  ****     }
 536              		.loc 1 680 10 is_stmt 0 view .LVU171
 537 00be 2B68     		ldr	r3, [r5]
 538              	.LVL65:
 680:TOOL/cJSON.c  ****     }
 539              		.loc 1 680 32 view .LVU172
 540 00c0 04F07F04 		and	r4, r4, #127
 541              	.LVL66:
 680:TOOL/cJSON.c  ****     }
 542              		.loc 1 680 30 view .LVU173
 543 00c4 1C70     		strb	r4, [r3]
 544 00c6 F6E7     		b	.L43
 545              	.LVL67:
 546              	.L44:
 686:TOOL/cJSON.c  **** 
 687:TOOL/cJSON.c  **** fail:
 688:TOOL/cJSON.c  ****     return 0;
 547              		.loc 1 688 12 view .LVU174
 548 00c8 0020     		movs	r0, #0
 549              	.LVL68:
 550              	.L37:
 689:TOOL/cJSON.c  **** }
 551              		.loc 1 689 1 view .LVU175
 552 00ca F8BD     		pop	{r3, r4, r5, r6, r7, pc}
 553              	.LVL69:
 554              	.L45:
 688:TOOL/cJSON.c  **** }
 555              		.loc 1 688 12 view .LVU176
 556 00cc 0020     		movs	r0, #0
 557              	.LVL70:
 688:TOOL/cJSON.c  **** }
 558              		.loc 1 688 12 view .LVU177
 559 00ce FCE7     		b	.L37
 560              	.LVL71:
 561              	.L47:
 688:TOOL/cJSON.c  **** }
 562              		.loc 1 688 12 view .LVU178
 563 00d0 0020     		movs	r0, #0
 564              	.LVL72:
 688:TOOL/cJSON.c  **** }
 565              		.loc 1 688 12 view .LVU179
 566 00d2 FAE7     		b	.L37
 567              	.LVL73:
 568              	.L48:
 688:TOOL/cJSON.c  **** }
 569              		.loc 1 688 12 view .LVU180
 570 00d4 0020     		movs	r0, #0
ARM GAS  /var/folders/ww/n4ctlbrs3x70633t9y2ks63c0000gn/T//ccTX1xk7.s 			page 24


 571              	.LVL74:
 688:TOOL/cJSON.c  **** }
 572              		.loc 1 688 12 view .LVU181
 573 00d6 F8E7     		b	.L37
 574              	.LVL75:
 575              	.L49:
 688:TOOL/cJSON.c  **** }
 576              		.loc 1 688 12 view .LVU182
 577 00d8 0020     		movs	r0, #0
 578              	.LVL76:
 688:TOOL/cJSON.c  **** }
 579              		.loc 1 688 12 view .LVU183
 580 00da F6E7     		b	.L37
 581              	.LVL77:
 582              	.L50:
 688:TOOL/cJSON.c  **** }
 583              		.loc 1 688 12 view .LVU184
 584 00dc 0020     		movs	r0, #0
 585              	.LVL78:
 688:TOOL/cJSON.c  **** }
 586              		.loc 1 688 12 view .LVU185
 587 00de F4E7     		b	.L37
 588              	.LVL79:
 589              	.L54:
 688:TOOL/cJSON.c  **** }
 590              		.loc 1 688 12 view .LVU186
 591 00e0 0020     		movs	r0, #0
 592              	.LVL80:
 688:TOOL/cJSON.c  **** }
 593              		.loc 1 688 12 view .LVU187
 594 00e2 F2E7     		b	.L37
 595              	.L58:
 596              		.align	2
 597              	.L57:
 598 00e4 00FC0F00 		.word	1047552
 599              		.cfi_endproc
 600              	.LFE85:
 602              		.section	.text.parse_string,"ax",%progbits
 603              		.align	1
 604              		.syntax unified
 605              		.thumb
 606              		.thumb_func
 607              		.fpu softvfp
 609              	parse_string:
 610              	.LVL81:
 611              	.LFB86:
 690:TOOL/cJSON.c  **** 
 691:TOOL/cJSON.c  **** /* Parse the input text into an unescaped cinput, and populate item. */
 692:TOOL/cJSON.c  **** static cJSON_bool parse_string(cJSON * const item, parse_buffer * const input_buffer)
 693:TOOL/cJSON.c  **** {
 612              		.loc 1 693 1 is_stmt 1 view -0
 613              		.cfi_startproc
 614              		@ args = 0, pretend = 0, frame = 8
 615              		@ frame_needed = 0, uses_anonymous_args = 0
 616              		.loc 1 693 1 is_stmt 0 view .LVU189
 617 0000 2DE9F041 		push	{r4, r5, r6, r7, r8, lr}
 618              	.LCFI6:
ARM GAS  /var/folders/ww/n4ctlbrs3x70633t9y2ks63c0000gn/T//ccTX1xk7.s 			page 25


 619              		.cfi_def_cfa_offset 24
 620              		.cfi_offset 4, -24
 621              		.cfi_offset 5, -20
 622              		.cfi_offset 6, -16
 623              		.cfi_offset 7, -12
 624              		.cfi_offset 8, -8
 625              		.cfi_offset 14, -4
 626 0004 82B0     		sub	sp, sp, #8
 627              	.LCFI7:
 628              		.cfi_def_cfa_offset 32
 629 0006 0746     		mov	r7, r0
 630 0008 0E46     		mov	r6, r1
 694:TOOL/cJSON.c  ****     const unsigned char *input_pointer = buffer_at_offset(input_buffer) + 1;
 631              		.loc 1 694 5 is_stmt 1 view .LVU190
 632              		.loc 1 694 42 is_stmt 0 view .LVU191
 633 000a 0B68     		ldr	r3, [r1]
 634 000c 8A68     		ldr	r2, [r1, #8]
 635              		.loc 1 694 73 view .LVU192
 636 000e 551C     		adds	r5, r2, #1
 637              		.loc 1 694 26 view .LVU193
 638 0010 1D44     		add	r5, r5, r3
 639              	.LVL82:
 695:TOOL/cJSON.c  ****     const unsigned char *input_end = buffer_at_offset(input_buffer) + 1;
 640              		.loc 1 695 5 is_stmt 1 view .LVU194
 696:TOOL/cJSON.c  ****     unsigned char *output_pointer = NULL;
 641              		.loc 1 696 5 view .LVU195
 642              		.loc 1 696 20 is_stmt 0 view .LVU196
 643 0012 0021     		movs	r1, #0
 644              	.LVL83:
 645              		.loc 1 696 20 view .LVU197
 646 0014 0191     		str	r1, [sp, #4]
 697:TOOL/cJSON.c  ****     unsigned char *output = NULL;
 647              		.loc 1 697 5 is_stmt 1 view .LVU198
 648              	.LVL84:
 698:TOOL/cJSON.c  **** 
 699:TOOL/cJSON.c  ****     /* not a string */
 700:TOOL/cJSON.c  ****     if (buffer_at_offset(input_buffer)[0] != '\"')
 649              		.loc 1 700 5 view .LVU199
 650              		.loc 1 700 9 is_stmt 0 view .LVU200
 651 0016 1846     		mov	r0, r3
 652              	.LVL85:
 653              		.loc 1 700 39 view .LVU201
 654 0018 03EB020E 		add	lr, r3, r2
 655 001c 9B5C     		ldrb	r3, [r3, r2]	@ zero_extendqisi2
 656              		.loc 1 700 8 view .LVU202
 657 001e 222B     		cmp	r3, #34
 658 0020 40F09F80 		bne	.L60
 695:TOOL/cJSON.c  ****     unsigned char *output_pointer = NULL;
 659              		.loc 1 695 26 view .LVU203
 660 0024 2C46     		mov	r4, r5
 661              	.LBB6:
 701:TOOL/cJSON.c  ****     {
 702:TOOL/cJSON.c  ****         goto fail;
 703:TOOL/cJSON.c  ****     }
 704:TOOL/cJSON.c  **** 
 705:TOOL/cJSON.c  ****     {
 706:TOOL/cJSON.c  ****         /* calculate approximate size of the output (overestimate) */
ARM GAS  /var/folders/ww/n4ctlbrs3x70633t9y2ks63c0000gn/T//ccTX1xk7.s 			page 26


 707:TOOL/cJSON.c  ****         size_t allocation_length = 0;
 708:TOOL/cJSON.c  ****         size_t skipped_bytes = 0;
 662              		.loc 1 708 16 view .LVU204
 663 0026 8C46     		mov	ip, r1
 664 0028 00E0     		b	.L61
 665              	.LVL86:
 666              	.L62:
 709:TOOL/cJSON.c  ****         while (((size_t)(input_end - input_buffer->content) < input_buffer->length) && (*input_end 
 710:TOOL/cJSON.c  ****         {
 711:TOOL/cJSON.c  ****             /* is escape sequence */
 712:TOOL/cJSON.c  ****             if (input_end[0] == '\\')
 713:TOOL/cJSON.c  ****             {
 714:TOOL/cJSON.c  ****                 if ((size_t)(input_end + 1 - input_buffer->content) >= input_buffer->length)
 715:TOOL/cJSON.c  ****                 {
 716:TOOL/cJSON.c  ****                     /* prevent buffer overflow when last input character is a backslash */
 717:TOOL/cJSON.c  ****                     goto fail;
 718:TOOL/cJSON.c  ****                 }
 719:TOOL/cJSON.c  ****                 skipped_bytes++;
 720:TOOL/cJSON.c  ****                 input_end++;
 721:TOOL/cJSON.c  ****             }
 722:TOOL/cJSON.c  ****             input_end++;
 667              		.loc 1 722 13 is_stmt 1 view .LVU205
 668              		.loc 1 722 22 is_stmt 0 view .LVU206
 669 002a 0134     		adds	r4, r4, #1
 670              	.LVL87:
 671              	.L61:
 709:TOOL/cJSON.c  ****         while (((size_t)(input_end - input_buffer->content) < input_buffer->length) && (*input_end 
 672              		.loc 1 709 36 view .LVU207
 673 002c 211A     		subs	r1, r4, r0
 709:TOOL/cJSON.c  ****         while (((size_t)(input_end - input_buffer->content) < input_buffer->length) && (*input_end 
 674              		.loc 1 709 75 view .LVU208
 675 002e 7268     		ldr	r2, [r6, #4]
 709:TOOL/cJSON.c  ****         while (((size_t)(input_end - input_buffer->content) < input_buffer->length) && (*input_end 
 676              		.loc 1 709 15 view .LVU209
 677 0030 9142     		cmp	r1, r2
 678 0032 0CD2     		bcs	.L63
 709:TOOL/cJSON.c  ****         while (((size_t)(input_end - input_buffer->content) < input_buffer->length) && (*input_end 
 679              		.loc 1 709 89 discriminator 1 view .LVU210
 680 0034 2378     		ldrb	r3, [r4]	@ zero_extendqisi2
 709:TOOL/cJSON.c  ****         while (((size_t)(input_end - input_buffer->content) < input_buffer->length) && (*input_end 
 681              		.loc 1 709 85 discriminator 1 view .LVU211
 682 0036 222B     		cmp	r3, #34
 683 0038 09D0     		beq	.L63
 712:TOOL/cJSON.c  ****             {
 684              		.loc 1 712 13 is_stmt 1 view .LVU212
 712:TOOL/cJSON.c  ****             {
 685              		.loc 1 712 16 is_stmt 0 view .LVU213
 686 003a 5C2B     		cmp	r3, #92
 687 003c F5D1     		bne	.L62
 714:TOOL/cJSON.c  ****                 {
 688              		.loc 1 714 17 is_stmt 1 view .LVU214
 714:TOOL/cJSON.c  ****                 {
 689              		.loc 1 714 40 is_stmt 0 view .LVU215
 690 003e 0134     		adds	r4, r4, #1
 691              	.LVL88:
 714:TOOL/cJSON.c  ****                 {
 692              		.loc 1 714 44 view .LVU216
ARM GAS  /var/folders/ww/n4ctlbrs3x70633t9y2ks63c0000gn/T//ccTX1xk7.s 			page 27


 693 0040 231A     		subs	r3, r4, r0
 714:TOOL/cJSON.c  ****                 {
 694              		.loc 1 714 20 view .LVU217
 695 0042 9342     		cmp	r3, r2
 696 0044 80F08D80 		bcs	.L60
 719:TOOL/cJSON.c  ****                 input_end++;
 697              		.loc 1 719 17 is_stmt 1 view .LVU218
 719:TOOL/cJSON.c  ****                 input_end++;
 698              		.loc 1 719 30 is_stmt 0 view .LVU219
 699 0048 0CF1010C 		add	ip, ip, #1
 700              	.LVL89:
 720:TOOL/cJSON.c  ****             }
 701              		.loc 1 720 17 is_stmt 1 view .LVU220
 720:TOOL/cJSON.c  ****             }
 702              		.loc 1 720 17 is_stmt 0 view .LVU221
 703 004c EDE7     		b	.L62
 704              	.L63:
 723:TOOL/cJSON.c  ****         }
 724:TOOL/cJSON.c  ****         if (((size_t)(input_end - input_buffer->content) >= input_buffer->length) || (*input_end !=
 705              		.loc 1 724 9 is_stmt 1 view .LVU222
 706              		.loc 1 724 12 is_stmt 0 view .LVU223
 707 004e 9142     		cmp	r1, r2
 708 0050 80F08780 		bcs	.L60
 709              		.loc 1 724 87 discriminator 1 view .LVU224
 710 0054 2378     		ldrb	r3, [r4]	@ zero_extendqisi2
 711              		.loc 1 724 83 discriminator 1 view .LVU225
 712 0056 222B     		cmp	r3, #34
 713 0058 40F08380 		bne	.L60
 725:TOOL/cJSON.c  ****         {
 726:TOOL/cJSON.c  ****             goto fail; /* string ended unexpectedly */
 727:TOOL/cJSON.c  ****         }
 728:TOOL/cJSON.c  **** 
 729:TOOL/cJSON.c  ****         /* This is at most how much we need for the output */
 730:TOOL/cJSON.c  ****         allocation_length = (size_t) (input_end - buffer_at_offset(input_buffer)) - skipped_bytes;
 714              		.loc 1 730 9 is_stmt 1 view .LVU226
 715              		.loc 1 730 49 is_stmt 0 view .LVU227
 716 005c A4EB0E00 		sub	r0, r4, lr
 717              		.loc 1 730 27 view .LVU228
 718 0060 A0EB0C00 		sub	r0, r0, ip
 719              	.LVL90:
 731:TOOL/cJSON.c  ****         output = (unsigned char*)input_buffer->hooks.allocate(allocation_length + sizeof(""));
 720              		.loc 1 731 9 is_stmt 1 view .LVU229
 721              		.loc 1 731 53 is_stmt 0 view .LVU230
 722 0064 3369     		ldr	r3, [r6, #16]
 723              		.loc 1 731 34 view .LVU231
 724 0066 0130     		adds	r0, r0, #1
 725              	.LVL91:
 726              		.loc 1 731 34 view .LVU232
 727 0068 9847     		blx	r3
 728              	.LVL92:
 732:TOOL/cJSON.c  ****         if (output == NULL)
 729              		.loc 1 732 9 is_stmt 1 view .LVU233
 730              		.loc 1 732 12 is_stmt 0 view .LVU234
 731 006a 8046     		mov	r8, r0
 732 006c 0028     		cmp	r0, #0
 733 006e 72D0     		beq	.L65
 734              	.LBE6:
ARM GAS  /var/folders/ww/n4ctlbrs3x70633t9y2ks63c0000gn/T//ccTX1xk7.s 			page 28


 733:TOOL/cJSON.c  ****         {
 734:TOOL/cJSON.c  ****             goto fail; /* allocation failure */
 735:TOOL/cJSON.c  ****         }
 736:TOOL/cJSON.c  ****     }
 737:TOOL/cJSON.c  **** 
 738:TOOL/cJSON.c  ****     output_pointer = output;
 735              		.loc 1 738 5 is_stmt 1 view .LVU235
 736              		.loc 1 738 20 is_stmt 0 view .LVU236
 737 0070 0190     		str	r0, [sp, #4]
 739:TOOL/cJSON.c  ****     /* loop through the string literal */
 740:TOOL/cJSON.c  ****     while (input_pointer < input_end)
 738              		.loc 1 740 5 is_stmt 1 view .LVU237
 739              		.loc 1 740 11 is_stmt 0 view .LVU238
 740 0072 05E0     		b	.L66
 741              	.LVL93:
 742              	.L83:
 741:TOOL/cJSON.c  ****     {
 742:TOOL/cJSON.c  ****         if (*input_pointer != '\\')
 743:TOOL/cJSON.c  ****         {
 744:TOOL/cJSON.c  ****             *output_pointer++ = *input_pointer++;
 743              		.loc 1 744 13 is_stmt 1 view .LVU239
 744              		.loc 1 744 28 is_stmt 0 view .LVU240
 745 0074 019B     		ldr	r3, [sp, #4]
 746 0076 5A1C     		adds	r2, r3, #1
 747 0078 0192     		str	r2, [sp, #4]
 748              		.loc 1 744 33 view .LVU241
 749 007a 15F8012B 		ldrb	r2, [r5], #1	@ zero_extendqisi2
 750              	.LVL94:
 751              		.loc 1 744 31 view .LVU242
 752 007e 1A70     		strb	r2, [r3]
 753              	.LVL95:
 754              	.L66:
 740:TOOL/cJSON.c  ****     {
 755              		.loc 1 740 11 view .LVU243
 756 0080 A542     		cmp	r5, r4
 757 0082 76D2     		bcs	.L82
 742:TOOL/cJSON.c  ****         {
 758              		.loc 1 742 9 is_stmt 1 view .LVU244
 742:TOOL/cJSON.c  ****         {
 759              		.loc 1 742 13 is_stmt 0 view .LVU245
 760 0084 2B78     		ldrb	r3, [r5]	@ zero_extendqisi2
 742:TOOL/cJSON.c  ****         {
 761              		.loc 1 742 12 view .LVU246
 762 0086 5C2B     		cmp	r3, #92
 763 0088 F4D1     		bne	.L83
 764              	.LBB7:
 745:TOOL/cJSON.c  ****         }
 746:TOOL/cJSON.c  ****         /* escape sequence */
 747:TOOL/cJSON.c  ****         else
 748:TOOL/cJSON.c  ****         {
 749:TOOL/cJSON.c  ****             unsigned char sequence_length = 2;
 765              		.loc 1 749 13 is_stmt 1 view .LVU247
 766              	.LVL96:
 750:TOOL/cJSON.c  ****             if ((input_end - input_pointer) < 1)
 767              		.loc 1 750 13 view .LVU248
 768              		.loc 1 750 28 is_stmt 0 view .LVU249
 769 008a 631B     		subs	r3, r4, r5
ARM GAS  /var/folders/ww/n4ctlbrs3x70633t9y2ks63c0000gn/T//ccTX1xk7.s 			page 29


 770              		.loc 1 750 16 view .LVU250
 771 008c 002B     		cmp	r3, #0
 772 008e 62DD     		ble	.L65
 751:TOOL/cJSON.c  ****             {
 752:TOOL/cJSON.c  ****                 goto fail;
 753:TOOL/cJSON.c  ****             }
 754:TOOL/cJSON.c  **** 
 755:TOOL/cJSON.c  ****             switch (input_pointer[1])
 773              		.loc 1 755 13 is_stmt 1 view .LVU251
 774              		.loc 1 755 34 is_stmt 0 view .LVU252
 775 0090 6B78     		ldrb	r3, [r5, #1]	@ zero_extendqisi2
 776              		.loc 1 755 13 view .LVU253
 777 0092 223B     		subs	r3, r3, #34
 778 0094 532B     		cmp	r3, #83
 779 0096 5ED8     		bhi	.L65
 780 0098 DFE803F0 		tbb	[pc, r3]
 781              	.L70:
 782 009c 4E       		.byte	(.L76-.L70)/2
 783 009d 5D       		.byte	(.L65-.L70)/2
 784 009e 5D       		.byte	(.L65-.L70)/2
 785 009f 5D       		.byte	(.L65-.L70)/2
 786 00a0 5D       		.byte	(.L65-.L70)/2
 787 00a1 5D       		.byte	(.L65-.L70)/2
 788 00a2 5D       		.byte	(.L65-.L70)/2
 789 00a3 5D       		.byte	(.L65-.L70)/2
 790 00a4 5D       		.byte	(.L65-.L70)/2
 791 00a5 5D       		.byte	(.L65-.L70)/2
 792 00a6 5D       		.byte	(.L65-.L70)/2
 793 00a7 5D       		.byte	(.L65-.L70)/2
 794 00a8 5D       		.byte	(.L65-.L70)/2
 795 00a9 4E       		.byte	(.L76-.L70)/2
 796 00aa 5D       		.byte	(.L65-.L70)/2
 797 00ab 5D       		.byte	(.L65-.L70)/2
 798 00ac 5D       		.byte	(.L65-.L70)/2
 799 00ad 5D       		.byte	(.L65-.L70)/2
 800 00ae 5D       		.byte	(.L65-.L70)/2
 801 00af 5D       		.byte	(.L65-.L70)/2
 802 00b0 5D       		.byte	(.L65-.L70)/2
 803 00b1 5D       		.byte	(.L65-.L70)/2
 804 00b2 5D       		.byte	(.L65-.L70)/2
 805 00b3 5D       		.byte	(.L65-.L70)/2
 806 00b4 5D       		.byte	(.L65-.L70)/2
 807 00b5 5D       		.byte	(.L65-.L70)/2
 808 00b6 5D       		.byte	(.L65-.L70)/2
 809 00b7 5D       		.byte	(.L65-.L70)/2
 810 00b8 5D       		.byte	(.L65-.L70)/2
 811 00b9 5D       		.byte	(.L65-.L70)/2
 812 00ba 5D       		.byte	(.L65-.L70)/2
 813 00bb 5D       		.byte	(.L65-.L70)/2
 814 00bc 5D       		.byte	(.L65-.L70)/2
 815 00bd 5D       		.byte	(.L65-.L70)/2
 816 00be 5D       		.byte	(.L65-.L70)/2
 817 00bf 5D       		.byte	(.L65-.L70)/2
 818 00c0 5D       		.byte	(.L65-.L70)/2
 819 00c1 5D       		.byte	(.L65-.L70)/2
 820 00c2 5D       		.byte	(.L65-.L70)/2
 821 00c3 5D       		.byte	(.L65-.L70)/2
ARM GAS  /var/folders/ww/n4ctlbrs3x70633t9y2ks63c0000gn/T//ccTX1xk7.s 			page 30


 822 00c4 5D       		.byte	(.L65-.L70)/2
 823 00c5 5D       		.byte	(.L65-.L70)/2
 824 00c6 5D       		.byte	(.L65-.L70)/2
 825 00c7 5D       		.byte	(.L65-.L70)/2
 826 00c8 5D       		.byte	(.L65-.L70)/2
 827 00c9 5D       		.byte	(.L65-.L70)/2
 828 00ca 5D       		.byte	(.L65-.L70)/2
 829 00cb 5D       		.byte	(.L65-.L70)/2
 830 00cc 5D       		.byte	(.L65-.L70)/2
 831 00cd 5D       		.byte	(.L65-.L70)/2
 832 00ce 5D       		.byte	(.L65-.L70)/2
 833 00cf 5D       		.byte	(.L65-.L70)/2
 834 00d0 5D       		.byte	(.L65-.L70)/2
 835 00d1 5D       		.byte	(.L65-.L70)/2
 836 00d2 5D       		.byte	(.L65-.L70)/2
 837 00d3 5D       		.byte	(.L65-.L70)/2
 838 00d4 5D       		.byte	(.L65-.L70)/2
 839 00d5 5D       		.byte	(.L65-.L70)/2
 840 00d6 4E       		.byte	(.L76-.L70)/2
 841 00d7 5D       		.byte	(.L65-.L70)/2
 842 00d8 5D       		.byte	(.L65-.L70)/2
 843 00d9 5D       		.byte	(.L65-.L70)/2
 844 00da 5D       		.byte	(.L65-.L70)/2
 845 00db 5D       		.byte	(.L65-.L70)/2
 846 00dc 2A       		.byte	(.L75-.L70)/2
 847 00dd 5D       		.byte	(.L65-.L70)/2
 848 00de 5D       		.byte	(.L65-.L70)/2
 849 00df 5D       		.byte	(.L65-.L70)/2
 850 00e0 32       		.byte	(.L74-.L70)/2
 851 00e1 5D       		.byte	(.L65-.L70)/2
 852 00e2 5D       		.byte	(.L65-.L70)/2
 853 00e3 5D       		.byte	(.L65-.L70)/2
 854 00e4 5D       		.byte	(.L65-.L70)/2
 855 00e5 5D       		.byte	(.L65-.L70)/2
 856 00e6 5D       		.byte	(.L65-.L70)/2
 857 00e7 5D       		.byte	(.L65-.L70)/2
 858 00e8 39       		.byte	(.L73-.L70)/2
 859 00e9 5D       		.byte	(.L65-.L70)/2
 860 00ea 5D       		.byte	(.L65-.L70)/2
 861 00eb 5D       		.byte	(.L65-.L70)/2
 862 00ec 40       		.byte	(.L72-.L70)/2
 863 00ed 5D       		.byte	(.L65-.L70)/2
 864 00ee 47       		.byte	(.L71-.L70)/2
 865 00ef 55       		.byte	(.L69-.L70)/2
 866              		.p2align 1
 867              	.L75:
 756:TOOL/cJSON.c  ****             {
 757:TOOL/cJSON.c  ****                 case 'b':
 758:TOOL/cJSON.c  ****                     *output_pointer++ = '\b';
 868              		.loc 1 758 21 is_stmt 1 view .LVU254
 869              		.loc 1 758 36 is_stmt 0 view .LVU255
 870 00f0 019B     		ldr	r3, [sp, #4]
 871 00f2 5A1C     		adds	r2, r3, #1
 872 00f4 0192     		str	r2, [sp, #4]
 873              		.loc 1 758 39 view .LVU256
 874 00f6 0822     		movs	r2, #8
 875 00f8 1A70     		strb	r2, [r3]
ARM GAS  /var/folders/ww/n4ctlbrs3x70633t9y2ks63c0000gn/T//ccTX1xk7.s 			page 31


 759:TOOL/cJSON.c  ****                     break;
 876              		.loc 1 759 21 is_stmt 1 view .LVU257
 749:TOOL/cJSON.c  ****             if ((input_end - input_pointer) < 1)
 877              		.loc 1 749 27 is_stmt 0 view .LVU258
 878 00fa 0223     		movs	r3, #2
 879              	.LVL97:
 880              	.L77:
 760:TOOL/cJSON.c  ****                 case 'f':
 761:TOOL/cJSON.c  ****                     *output_pointer++ = '\f';
 762:TOOL/cJSON.c  ****                     break;
 763:TOOL/cJSON.c  ****                 case 'n':
 764:TOOL/cJSON.c  ****                     *output_pointer++ = '\n';
 765:TOOL/cJSON.c  ****                     break;
 766:TOOL/cJSON.c  ****                 case 'r':
 767:TOOL/cJSON.c  ****                     *output_pointer++ = '\r';
 768:TOOL/cJSON.c  ****                     break;
 769:TOOL/cJSON.c  ****                 case 't':
 770:TOOL/cJSON.c  ****                     *output_pointer++ = '\t';
 771:TOOL/cJSON.c  ****                     break;
 772:TOOL/cJSON.c  ****                 case '\"':
 773:TOOL/cJSON.c  ****                 case '\\':
 774:TOOL/cJSON.c  ****                 case '/':
 775:TOOL/cJSON.c  ****                     *output_pointer++ = input_pointer[1];
 776:TOOL/cJSON.c  ****                     break;
 777:TOOL/cJSON.c  **** 
 778:TOOL/cJSON.c  ****                 /* UTF-16 literal */
 779:TOOL/cJSON.c  ****                 case 'u':
 780:TOOL/cJSON.c  ****                     sequence_length = utf16_literal_to_utf8(input_pointer, input_end, &output_point
 781:TOOL/cJSON.c  ****                     if (sequence_length == 0)
 782:TOOL/cJSON.c  ****                     {
 783:TOOL/cJSON.c  ****                         /* failed to convert UTF16-literal to UTF-8 */
 784:TOOL/cJSON.c  ****                         goto fail;
 785:TOOL/cJSON.c  ****                     }
 786:TOOL/cJSON.c  ****                     break;
 787:TOOL/cJSON.c  **** 
 788:TOOL/cJSON.c  ****                 default:
 789:TOOL/cJSON.c  ****                     goto fail;
 790:TOOL/cJSON.c  ****             }
 791:TOOL/cJSON.c  ****             input_pointer += sequence_length;
 881              		.loc 1 791 13 is_stmt 1 view .LVU259
 882              		.loc 1 791 27 is_stmt 0 view .LVU260
 883 00fc 1D44     		add	r5, r5, r3
 884              	.LVL98:
 885              		.loc 1 791 27 view .LVU261
 886 00fe BFE7     		b	.L66
 887              	.LVL99:
 888              	.L74:
 761:TOOL/cJSON.c  ****                     break;
 889              		.loc 1 761 21 is_stmt 1 view .LVU262
 761:TOOL/cJSON.c  ****                     break;
 890              		.loc 1 761 36 is_stmt 0 view .LVU263
 891 0100 019B     		ldr	r3, [sp, #4]
 892 0102 5A1C     		adds	r2, r3, #1
 893 0104 0192     		str	r2, [sp, #4]
 761:TOOL/cJSON.c  ****                     break;
 894              		.loc 1 761 39 view .LVU264
 895 0106 0C22     		movs	r2, #12
ARM GAS  /var/folders/ww/n4ctlbrs3x70633t9y2ks63c0000gn/T//ccTX1xk7.s 			page 32


 896 0108 1A70     		strb	r2, [r3]
 762:TOOL/cJSON.c  ****                 case 'n':
 897              		.loc 1 762 21 is_stmt 1 view .LVU265
 749:TOOL/cJSON.c  ****             if ((input_end - input_pointer) < 1)
 898              		.loc 1 749 27 is_stmt 0 view .LVU266
 899 010a 0223     		movs	r3, #2
 762:TOOL/cJSON.c  ****                 case 'n':
 900              		.loc 1 762 21 view .LVU267
 901 010c F6E7     		b	.L77
 902              	.L73:
 764:TOOL/cJSON.c  ****                     break;
 903              		.loc 1 764 21 is_stmt 1 view .LVU268
 764:TOOL/cJSON.c  ****                     break;
 904              		.loc 1 764 36 is_stmt 0 view .LVU269
 905 010e 019B     		ldr	r3, [sp, #4]
 906 0110 5A1C     		adds	r2, r3, #1
 907 0112 0192     		str	r2, [sp, #4]
 764:TOOL/cJSON.c  ****                     break;
 908              		.loc 1 764 39 view .LVU270
 909 0114 0A22     		movs	r2, #10
 910 0116 1A70     		strb	r2, [r3]
 765:TOOL/cJSON.c  ****                 case 'r':
 911              		.loc 1 765 21 is_stmt 1 view .LVU271
 749:TOOL/cJSON.c  ****             if ((input_end - input_pointer) < 1)
 912              		.loc 1 749 27 is_stmt 0 view .LVU272
 913 0118 0223     		movs	r3, #2
 765:TOOL/cJSON.c  ****                 case 'r':
 914              		.loc 1 765 21 view .LVU273
 915 011a EFE7     		b	.L77
 916              	.L72:
 767:TOOL/cJSON.c  ****                     break;
 917              		.loc 1 767 21 is_stmt 1 view .LVU274
 767:TOOL/cJSON.c  ****                     break;
 918              		.loc 1 767 36 is_stmt 0 view .LVU275
 919 011c 019B     		ldr	r3, [sp, #4]
 920 011e 5A1C     		adds	r2, r3, #1
 921 0120 0192     		str	r2, [sp, #4]
 767:TOOL/cJSON.c  ****                     break;
 922              		.loc 1 767 39 view .LVU276
 923 0122 0D22     		movs	r2, #13
 924 0124 1A70     		strb	r2, [r3]
 768:TOOL/cJSON.c  ****                 case 't':
 925              		.loc 1 768 21 is_stmt 1 view .LVU277
 749:TOOL/cJSON.c  ****             if ((input_end - input_pointer) < 1)
 926              		.loc 1 749 27 is_stmt 0 view .LVU278
 927 0126 0223     		movs	r3, #2
 768:TOOL/cJSON.c  ****                 case 't':
 928              		.loc 1 768 21 view .LVU279
 929 0128 E8E7     		b	.L77
 930              	.L71:
 770:TOOL/cJSON.c  ****                     break;
 931              		.loc 1 770 21 is_stmt 1 view .LVU280
 770:TOOL/cJSON.c  ****                     break;
 932              		.loc 1 770 36 is_stmt 0 view .LVU281
 933 012a 019B     		ldr	r3, [sp, #4]
 934 012c 5A1C     		adds	r2, r3, #1
 935 012e 0192     		str	r2, [sp, #4]
ARM GAS  /var/folders/ww/n4ctlbrs3x70633t9y2ks63c0000gn/T//ccTX1xk7.s 			page 33


 770:TOOL/cJSON.c  ****                     break;
 936              		.loc 1 770 39 view .LVU282
 937 0130 0922     		movs	r2, #9
 938 0132 1A70     		strb	r2, [r3]
 771:TOOL/cJSON.c  ****                 case '\"':
 939              		.loc 1 771 21 is_stmt 1 view .LVU283
 749:TOOL/cJSON.c  ****             if ((input_end - input_pointer) < 1)
 940              		.loc 1 749 27 is_stmt 0 view .LVU284
 941 0134 0223     		movs	r3, #2
 771:TOOL/cJSON.c  ****                 case '\"':
 942              		.loc 1 771 21 view .LVU285
 943 0136 E1E7     		b	.L77
 944              	.L76:
 775:TOOL/cJSON.c  ****                     break;
 945              		.loc 1 775 21 is_stmt 1 view .LVU286
 775:TOOL/cJSON.c  ****                     break;
 946              		.loc 1 775 36 is_stmt 0 view .LVU287
 947 0138 019B     		ldr	r3, [sp, #4]
 948 013a 5A1C     		adds	r2, r3, #1
 949 013c 0192     		str	r2, [sp, #4]
 775:TOOL/cJSON.c  ****                     break;
 950              		.loc 1 775 39 view .LVU288
 951 013e 6A78     		ldrb	r2, [r5, #1]	@ zero_extendqisi2
 952 0140 1A70     		strb	r2, [r3]
 776:TOOL/cJSON.c  **** 
 953              		.loc 1 776 21 is_stmt 1 view .LVU289
 749:TOOL/cJSON.c  ****             if ((input_end - input_pointer) < 1)
 954              		.loc 1 749 27 is_stmt 0 view .LVU290
 955 0142 0223     		movs	r3, #2
 776:TOOL/cJSON.c  **** 
 956              		.loc 1 776 21 view .LVU291
 957 0144 DAE7     		b	.L77
 958              	.L69:
 780:TOOL/cJSON.c  ****                     if (sequence_length == 0)
 959              		.loc 1 780 21 is_stmt 1 view .LVU292
 780:TOOL/cJSON.c  ****                     if (sequence_length == 0)
 960              		.loc 1 780 39 is_stmt 0 view .LVU293
 961 0146 01AA     		add	r2, sp, #4
 962 0148 2146     		mov	r1, r4
 963 014a 2846     		mov	r0, r5
 964 014c FFF7FEFF 		bl	utf16_literal_to_utf8
 965              	.LVL100:
 781:TOOL/cJSON.c  ****                     {
 966              		.loc 1 781 21 is_stmt 1 view .LVU294
 781:TOOL/cJSON.c  ****                     {
 967              		.loc 1 781 24 is_stmt 0 view .LVU295
 968 0150 0346     		mov	r3, r0
 969 0152 0028     		cmp	r0, #0
 970 0154 D2D1     		bne	.L77
 971              	.LVL101:
 972              	.L65:
 781:TOOL/cJSON.c  ****                     {
 973              		.loc 1 781 24 view .LVU296
 974              	.LBE7:
 792:TOOL/cJSON.c  ****         }
 793:TOOL/cJSON.c  ****     }
 794:TOOL/cJSON.c  **** 
ARM GAS  /var/folders/ww/n4ctlbrs3x70633t9y2ks63c0000gn/T//ccTX1xk7.s 			page 34


 795:TOOL/cJSON.c  ****     /* zero terminate the output */
 796:TOOL/cJSON.c  ****     *output_pointer = '\0';
 797:TOOL/cJSON.c  **** 
 798:TOOL/cJSON.c  ****     item->type = cJSON_String;
 799:TOOL/cJSON.c  ****     item->valuestring = (char*)output;
 800:TOOL/cJSON.c  **** 
 801:TOOL/cJSON.c  ****     input_buffer->offset = (size_t) (input_end - input_buffer->content);
 802:TOOL/cJSON.c  ****     input_buffer->offset++;
 803:TOOL/cJSON.c  **** 
 804:TOOL/cJSON.c  ****     return true;
 805:TOOL/cJSON.c  **** 
 806:TOOL/cJSON.c  **** fail:
 807:TOOL/cJSON.c  ****     if (output != NULL)
 975              		.loc 1 807 5 is_stmt 1 view .LVU297
 976              		.loc 1 807 8 is_stmt 0 view .LVU298
 977 0156 B8F1000F 		cmp	r8, #0
 978 015a 02D0     		beq	.L60
 808:TOOL/cJSON.c  ****     {
 809:TOOL/cJSON.c  ****         input_buffer->hooks.deallocate(output);
 979              		.loc 1 809 9 is_stmt 1 view .LVU299
 980              		.loc 1 809 28 is_stmt 0 view .LVU300
 981 015c 7369     		ldr	r3, [r6, #20]
 982              		.loc 1 809 9 view .LVU301
 983 015e 4046     		mov	r0, r8
 984 0160 9847     		blx	r3
 985              	.LVL102:
 986              	.L60:
 810:TOOL/cJSON.c  ****     }
 811:TOOL/cJSON.c  **** 
 812:TOOL/cJSON.c  ****     if (input_pointer != NULL)
 987              		.loc 1 812 5 is_stmt 1 view .LVU302
 988              		.loc 1 812 8 is_stmt 0 view .LVU303
 989 0162 9DB1     		cbz	r5, .L80
 813:TOOL/cJSON.c  ****     {
 814:TOOL/cJSON.c  ****         input_buffer->offset = (size_t)(input_pointer - input_buffer->content);
 990              		.loc 1 814 9 is_stmt 1 view .LVU304
 991              		.loc 1 814 69 is_stmt 0 view .LVU305
 992 0164 3368     		ldr	r3, [r6]
 993              		.loc 1 814 55 view .LVU306
 994 0166 ED1A     		subs	r5, r5, r3
 995              	.LVL103:
 996              		.loc 1 814 30 view .LVU307
 997 0168 B560     		str	r5, [r6, #8]
 815:TOOL/cJSON.c  ****     }
 816:TOOL/cJSON.c  **** 
 817:TOOL/cJSON.c  ****     return false;
 998              		.loc 1 817 12 view .LVU308
 999 016a 0020     		movs	r0, #0
 1000              	.L59:
 818:TOOL/cJSON.c  **** }
 1001              		.loc 1 818 1 view .LVU309
 1002 016c 02B0     		add	sp, sp, #8
 1003              	.LCFI8:
 1004              		.cfi_remember_state
 1005              		.cfi_def_cfa_offset 24
 1006              		@ sp needed
 1007 016e BDE8F081 		pop	{r4, r5, r6, r7, r8, pc}
ARM GAS  /var/folders/ww/n4ctlbrs3x70633t9y2ks63c0000gn/T//ccTX1xk7.s 			page 35


 1008              	.LVL104:
 1009              	.L82:
 1010              	.LCFI9:
 1011              		.cfi_restore_state
 796:TOOL/cJSON.c  **** 
 1012              		.loc 1 796 5 is_stmt 1 view .LVU310
 796:TOOL/cJSON.c  **** 
 1013              		.loc 1 796 21 is_stmt 0 view .LVU311
 1014 0172 019B     		ldr	r3, [sp, #4]
 1015 0174 0022     		movs	r2, #0
 1016 0176 1A70     		strb	r2, [r3]
 798:TOOL/cJSON.c  ****     item->valuestring = (char*)output;
 1017              		.loc 1 798 5 is_stmt 1 view .LVU312
 798:TOOL/cJSON.c  ****     item->valuestring = (char*)output;
 1018              		.loc 1 798 16 is_stmt 0 view .LVU313
 1019 0178 1023     		movs	r3, #16
 1020 017a FB60     		str	r3, [r7, #12]
 799:TOOL/cJSON.c  **** 
 1021              		.loc 1 799 5 is_stmt 1 view .LVU314
 799:TOOL/cJSON.c  **** 
 1022              		.loc 1 799 23 is_stmt 0 view .LVU315
 1023 017c C7F81080 		str	r8, [r7, #16]
 801:TOOL/cJSON.c  ****     input_buffer->offset++;
 1024              		.loc 1 801 5 is_stmt 1 view .LVU316
 801:TOOL/cJSON.c  ****     input_buffer->offset++;
 1025              		.loc 1 801 62 is_stmt 0 view .LVU317
 1026 0180 3368     		ldr	r3, [r6]
 801:TOOL/cJSON.c  ****     input_buffer->offset++;
 1027              		.loc 1 801 48 view .LVU318
 1028 0182 E31A     		subs	r3, r4, r3
 802:TOOL/cJSON.c  **** 
 1029              		.loc 1 802 5 is_stmt 1 view .LVU319
 802:TOOL/cJSON.c  **** 
 1030              		.loc 1 802 25 is_stmt 0 view .LVU320
 1031 0184 0133     		adds	r3, r3, #1
 1032 0186 B360     		str	r3, [r6, #8]
 804:TOOL/cJSON.c  **** 
 1033              		.loc 1 804 5 is_stmt 1 view .LVU321
 804:TOOL/cJSON.c  **** 
 1034              		.loc 1 804 12 is_stmt 0 view .LVU322
 1035 0188 0120     		movs	r0, #1
 1036 018a EFE7     		b	.L59
 1037              	.LVL105:
 1038              	.L80:
 817:TOOL/cJSON.c  **** }
 1039              		.loc 1 817 12 view .LVU323
 1040 018c 0020     		movs	r0, #0
 1041 018e EDE7     		b	.L59
 1042              		.cfi_endproc
 1043              	.LFE86:
 1045              		.section	.text.buffer_skip_whitespace,"ax",%progbits
 1046              		.align	1
 1047              		.syntax unified
 1048              		.thumb
 1049              		.thumb_func
 1050              		.fpu softvfp
 1052              	buffer_skip_whitespace:
ARM GAS  /var/folders/ww/n4ctlbrs3x70633t9y2ks63c0000gn/T//ccTX1xk7.s 			page 36


 1053              	.LVL106:
 1054              	.LFB89:
 819:TOOL/cJSON.c  **** 
 820:TOOL/cJSON.c  **** /* Render the cstring provided to an escaped version that can be printed. */
 821:TOOL/cJSON.c  **** static cJSON_bool print_string_ptr(const unsigned char * const input, printbuffer * const output_bu
 822:TOOL/cJSON.c  **** {
 823:TOOL/cJSON.c  ****     const unsigned char *input_pointer = NULL;
 824:TOOL/cJSON.c  ****     unsigned char *output = NULL;
 825:TOOL/cJSON.c  ****     unsigned char *output_pointer = NULL;
 826:TOOL/cJSON.c  ****     size_t output_length = 0;
 827:TOOL/cJSON.c  ****     /* numbers of additional characters needed for escaping */
 828:TOOL/cJSON.c  ****     size_t escape_characters = 0;
 829:TOOL/cJSON.c  **** 
 830:TOOL/cJSON.c  ****     if (output_buffer == NULL)
 831:TOOL/cJSON.c  ****     {
 832:TOOL/cJSON.c  ****         return false;
 833:TOOL/cJSON.c  ****     }
 834:TOOL/cJSON.c  **** 
 835:TOOL/cJSON.c  ****     /* empty string */
 836:TOOL/cJSON.c  ****     if (input == NULL)
 837:TOOL/cJSON.c  ****     {
 838:TOOL/cJSON.c  ****         output = ensure(output_buffer, sizeof("\"\""));
 839:TOOL/cJSON.c  ****         if (output == NULL)
 840:TOOL/cJSON.c  ****         {
 841:TOOL/cJSON.c  ****             return false;
 842:TOOL/cJSON.c  ****         }
 843:TOOL/cJSON.c  ****         strcpy((char*)output, "\"\"");
 844:TOOL/cJSON.c  **** 
 845:TOOL/cJSON.c  ****         return true;
 846:TOOL/cJSON.c  ****     }
 847:TOOL/cJSON.c  **** 
 848:TOOL/cJSON.c  ****     /* set "flag" to 1 if something needs to be escaped */
 849:TOOL/cJSON.c  ****     for (input_pointer = input; *input_pointer; input_pointer++)
 850:TOOL/cJSON.c  ****     {
 851:TOOL/cJSON.c  ****         switch (*input_pointer)
 852:TOOL/cJSON.c  ****         {
 853:TOOL/cJSON.c  ****             case '\"':
 854:TOOL/cJSON.c  ****             case '\\':
 855:TOOL/cJSON.c  ****             case '\b':
 856:TOOL/cJSON.c  ****             case '\f':
 857:TOOL/cJSON.c  ****             case '\n':
 858:TOOL/cJSON.c  ****             case '\r':
 859:TOOL/cJSON.c  ****             case '\t':
 860:TOOL/cJSON.c  ****                 /* one character escape sequence */
 861:TOOL/cJSON.c  ****                 escape_characters++;
 862:TOOL/cJSON.c  ****                 break;
 863:TOOL/cJSON.c  ****             default:
 864:TOOL/cJSON.c  ****                 if (*input_pointer < 32)
 865:TOOL/cJSON.c  ****                 {
 866:TOOL/cJSON.c  ****                     /* UTF-16 escape sequence uXXXX */
 867:TOOL/cJSON.c  ****                     escape_characters += 5;
 868:TOOL/cJSON.c  ****                 }
 869:TOOL/cJSON.c  ****                 break;
 870:TOOL/cJSON.c  ****         }
 871:TOOL/cJSON.c  ****     }
 872:TOOL/cJSON.c  ****     output_length = (size_t)(input_pointer - input) + escape_characters;
 873:TOOL/cJSON.c  **** 
ARM GAS  /var/folders/ww/n4ctlbrs3x70633t9y2ks63c0000gn/T//ccTX1xk7.s 			page 37


 874:TOOL/cJSON.c  ****     output = ensure(output_buffer, output_length + sizeof("\"\""));
 875:TOOL/cJSON.c  ****     if (output == NULL)
 876:TOOL/cJSON.c  ****     {
 877:TOOL/cJSON.c  ****         return false;
 878:TOOL/cJSON.c  ****     }
 879:TOOL/cJSON.c  **** 
 880:TOOL/cJSON.c  ****     /* no characters have to be escaped */
 881:TOOL/cJSON.c  ****     if (escape_characters == 0)
 882:TOOL/cJSON.c  ****     {
 883:TOOL/cJSON.c  ****         output[0] = '\"';
 884:TOOL/cJSON.c  ****         memcpy(output + 1, input, output_length);
 885:TOOL/cJSON.c  ****         output[output_length + 1] = '\"';
 886:TOOL/cJSON.c  ****         output[output_length + 2] = '\0';
 887:TOOL/cJSON.c  **** 
 888:TOOL/cJSON.c  ****         return true;
 889:TOOL/cJSON.c  ****     }
 890:TOOL/cJSON.c  **** 
 891:TOOL/cJSON.c  ****     output[0] = '\"';
 892:TOOL/cJSON.c  ****     output_pointer = output + 1;
 893:TOOL/cJSON.c  ****     /* copy the string */
 894:TOOL/cJSON.c  ****     for (input_pointer = input; *input_pointer != '\0'; (void)input_pointer++, output_pointer++)
 895:TOOL/cJSON.c  ****     {
 896:TOOL/cJSON.c  ****         if ((*input_pointer > 31) && (*input_pointer != '\"') && (*input_pointer != '\\'))
 897:TOOL/cJSON.c  ****         {
 898:TOOL/cJSON.c  ****             /* normal character, copy */
 899:TOOL/cJSON.c  ****             *output_pointer = *input_pointer;
 900:TOOL/cJSON.c  ****         }
 901:TOOL/cJSON.c  ****         else
 902:TOOL/cJSON.c  ****         {
 903:TOOL/cJSON.c  ****             /* character needs to be escaped */
 904:TOOL/cJSON.c  ****             *output_pointer++ = '\\';
 905:TOOL/cJSON.c  ****             switch (*input_pointer)
 906:TOOL/cJSON.c  ****             {
 907:TOOL/cJSON.c  ****                 case '\\':
 908:TOOL/cJSON.c  ****                     *output_pointer = '\\';
 909:TOOL/cJSON.c  ****                     break;
 910:TOOL/cJSON.c  ****                 case '\"':
 911:TOOL/cJSON.c  ****                     *output_pointer = '\"';
 912:TOOL/cJSON.c  ****                     break;
 913:TOOL/cJSON.c  ****                 case '\b':
 914:TOOL/cJSON.c  ****                     *output_pointer = 'b';
 915:TOOL/cJSON.c  ****                     break;
 916:TOOL/cJSON.c  ****                 case '\f':
 917:TOOL/cJSON.c  ****                     *output_pointer = 'f';
 918:TOOL/cJSON.c  ****                     break;
 919:TOOL/cJSON.c  ****                 case '\n':
 920:TOOL/cJSON.c  ****                     *output_pointer = 'n';
 921:TOOL/cJSON.c  ****                     break;
 922:TOOL/cJSON.c  ****                 case '\r':
 923:TOOL/cJSON.c  ****                     *output_pointer = 'r';
 924:TOOL/cJSON.c  ****                     break;
 925:TOOL/cJSON.c  ****                 case '\t':
 926:TOOL/cJSON.c  ****                     *output_pointer = 't';
 927:TOOL/cJSON.c  ****                     break;
 928:TOOL/cJSON.c  ****                 default:
 929:TOOL/cJSON.c  ****                     /* escape and print as unicode codepoint */
 930:TOOL/cJSON.c  ****                     sprintf((char*)output_pointer, "u%04x", *input_pointer);
ARM GAS  /var/folders/ww/n4ctlbrs3x70633t9y2ks63c0000gn/T//ccTX1xk7.s 			page 38


 931:TOOL/cJSON.c  ****                     output_pointer += 4;
 932:TOOL/cJSON.c  ****                     break;
 933:TOOL/cJSON.c  ****             }
 934:TOOL/cJSON.c  ****         }
 935:TOOL/cJSON.c  ****     }
 936:TOOL/cJSON.c  ****     output[output_length + 1] = '\"';
 937:TOOL/cJSON.c  ****     output[output_length + 2] = '\0';
 938:TOOL/cJSON.c  **** 
 939:TOOL/cJSON.c  ****     return true;
 940:TOOL/cJSON.c  **** }
 941:TOOL/cJSON.c  **** 
 942:TOOL/cJSON.c  **** /* Invoke print_string_ptr (which is useful) on an item. */
 943:TOOL/cJSON.c  **** static cJSON_bool print_string(const cJSON * const item, printbuffer * const p)
 944:TOOL/cJSON.c  **** {
 945:TOOL/cJSON.c  ****     return print_string_ptr((unsigned char*)item->valuestring, p);
 946:TOOL/cJSON.c  **** }
 947:TOOL/cJSON.c  **** 
 948:TOOL/cJSON.c  **** /* Predeclare these prototypes. */
 949:TOOL/cJSON.c  **** static cJSON_bool parse_value(cJSON * const item, parse_buffer * const input_buffer);
 950:TOOL/cJSON.c  **** static cJSON_bool print_value(const cJSON * const item, printbuffer * const output_buffer);
 951:TOOL/cJSON.c  **** static cJSON_bool parse_array(cJSON * const item, parse_buffer * const input_buffer);
 952:TOOL/cJSON.c  **** static cJSON_bool print_array(const cJSON * const item, printbuffer * const output_buffer);
 953:TOOL/cJSON.c  **** static cJSON_bool parse_object(cJSON * const item, parse_buffer * const input_buffer);
 954:TOOL/cJSON.c  **** static cJSON_bool print_object(const cJSON * const item, printbuffer * const output_buffer);
 955:TOOL/cJSON.c  **** 
 956:TOOL/cJSON.c  **** /* Utility to jump whitespace and cr/lf */
 957:TOOL/cJSON.c  **** static parse_buffer *buffer_skip_whitespace(parse_buffer * const buffer)
 958:TOOL/cJSON.c  **** {
 1055              		.loc 1 958 1 is_stmt 1 view -0
 1056              		.cfi_startproc
 1057              		@ args = 0, pretend = 0, frame = 0
 1058              		@ frame_needed = 0, uses_anonymous_args = 0
 1059              		@ link register save eliminated.
 959:TOOL/cJSON.c  ****     if ((buffer == NULL) || (buffer->content == NULL))
 1060              		.loc 1 959 5 view .LVU325
 1061              		.loc 1 959 8 is_stmt 0 view .LVU326
 1062 0000 0246     		mov	r2, r0
 1063 0002 80B1     		cbz	r0, .L85
 1064              		.loc 1 959 36 discriminator 1 view .LVU327
 1065 0004 0068     		ldr	r0, [r0]
 1066              	.LVL107:
 1067              		.loc 1 959 26 discriminator 1 view .LVU328
 1068 0006 18B9     		cbnz	r0, .L86
 960:TOOL/cJSON.c  ****     {
 961:TOOL/cJSON.c  ****         return NULL;
 1069              		.loc 1 961 16 view .LVU329
 1070 0008 0246     		mov	r2, r0
 1071              	.LVL108:
 1072              		.loc 1 961 16 view .LVU330
 1073 000a 0CE0     		b	.L85
 1074              	.LVL109:
 1075              	.L88:
 962:TOOL/cJSON.c  ****     }
 963:TOOL/cJSON.c  **** 
 964:TOOL/cJSON.c  ****     while (can_access_at_index(buffer, 0) && (buffer_at_offset(buffer)[0] <= 32))
 965:TOOL/cJSON.c  ****     {
 966:TOOL/cJSON.c  ****        buffer->offset++;
ARM GAS  /var/folders/ww/n4ctlbrs3x70633t9y2ks63c0000gn/T//ccTX1xk7.s 			page 39


 1076              		.loc 1 966 8 is_stmt 1 view .LVU331
 1077              		.loc 1 966 22 is_stmt 0 view .LVU332
 1078 000c 0133     		adds	r3, r3, #1
 1079 000e 9360     		str	r3, [r2, #8]
 1080              	.L86:
 964:TOOL/cJSON.c  ****     {
 1081              		.loc 1 964 12 view .LVU333
 1082 0010 9368     		ldr	r3, [r2, #8]
 1083 0012 5168     		ldr	r1, [r2, #4]
 1084 0014 8B42     		cmp	r3, r1
 1085 0016 02D2     		bcs	.L87
 964:TOOL/cJSON.c  ****     {
 1086              		.loc 1 964 71 discriminator 2 view .LVU334
 1087 0018 C15C     		ldrb	r1, [r0, r3]	@ zero_extendqisi2
 964:TOOL/cJSON.c  ****     {
 1088              		.loc 1 964 43 discriminator 2 view .LVU335
 1089 001a 2029     		cmp	r1, #32
 1090 001c F6D9     		bls	.L88
 1091              	.L87:
 967:TOOL/cJSON.c  ****     }
 968:TOOL/cJSON.c  **** 
 969:TOOL/cJSON.c  ****     if (buffer->offset == buffer->length)
 1092              		.loc 1 969 5 is_stmt 1 view .LVU336
 1093              		.loc 1 969 15 is_stmt 0 view .LVU337
 1094 001e 9368     		ldr	r3, [r2, #8]
 1095              		.loc 1 969 33 view .LVU338
 1096 0020 5168     		ldr	r1, [r2, #4]
 1097              		.loc 1 969 8 view .LVU339
 1098 0022 8B42     		cmp	r3, r1
 1099 0024 01D0     		beq	.L90
 1100              	.LVL110:
 1101              	.L85:
 970:TOOL/cJSON.c  ****     {
 971:TOOL/cJSON.c  ****         buffer->offset--;
 972:TOOL/cJSON.c  ****     }
 973:TOOL/cJSON.c  **** 
 974:TOOL/cJSON.c  ****     return buffer;
 975:TOOL/cJSON.c  **** }
 1102              		.loc 1 975 1 view .LVU340
 1103 0026 1046     		mov	r0, r2
 1104 0028 7047     		bx	lr
 1105              	.LVL111:
 1106              	.L90:
 971:TOOL/cJSON.c  ****     }
 1107              		.loc 1 971 9 is_stmt 1 view .LVU341
 971:TOOL/cJSON.c  ****     }
 1108              		.loc 1 971 23 is_stmt 0 view .LVU342
 1109 002a 013B     		subs	r3, r3, #1
 1110 002c 9360     		str	r3, [r2, #8]
 1111 002e FAE7     		b	.L85
 1112              		.cfi_endproc
 1113              	.LFE89:
 1115              		.section	.text.get_array_item,"ax",%progbits
 1116              		.align	1
 1117              		.syntax unified
 1118              		.thumb
 1119              		.thumb_func
ARM GAS  /var/folders/ww/n4ctlbrs3x70633t9y2ks63c0000gn/T//ccTX1xk7.s 			page 40


 1120              		.fpu softvfp
 1122              	get_array_item:
 1123              	.LVL112:
 1124              	.LFB105:
 976:TOOL/cJSON.c  **** 
 977:TOOL/cJSON.c  **** /* skip the UTF-8 BOM (byte order mark) if it is at the beginning of a buffer */
 978:TOOL/cJSON.c  **** static parse_buffer *skip_utf8_bom(parse_buffer * const buffer)
 979:TOOL/cJSON.c  **** {
 980:TOOL/cJSON.c  ****     if ((buffer == NULL) || (buffer->content == NULL) || (buffer->offset != 0))
 981:TOOL/cJSON.c  ****     {
 982:TOOL/cJSON.c  ****         return NULL;
 983:TOOL/cJSON.c  ****     }
 984:TOOL/cJSON.c  **** 
 985:TOOL/cJSON.c  ****     if (can_access_at_index(buffer, 4) && (strncmp((const char*)buffer_at_offset(buffer), "\xEF\xBB
 986:TOOL/cJSON.c  ****     {
 987:TOOL/cJSON.c  ****         buffer->offset += 3;
 988:TOOL/cJSON.c  ****     }
 989:TOOL/cJSON.c  **** 
 990:TOOL/cJSON.c  ****     return buffer;
 991:TOOL/cJSON.c  **** }
 992:TOOL/cJSON.c  **** 
 993:TOOL/cJSON.c  **** /* Parse an object - create a new root, and populate. */
 994:TOOL/cJSON.c  **** CJSON_PUBLIC(cJSON *) cJSON_ParseWithOpts(const char *value, const char **return_parse_end, cJSON_b
 995:TOOL/cJSON.c  **** {
 996:TOOL/cJSON.c  ****     parse_buffer buffer = { 0, 0, 0, 0, { 0, 0, 0 } };
 997:TOOL/cJSON.c  ****     cJSON *item = NULL;
 998:TOOL/cJSON.c  **** 
 999:TOOL/cJSON.c  ****     /* reset error position */
1000:TOOL/cJSON.c  ****     global_error.json = NULL;
1001:TOOL/cJSON.c  ****     global_error.position = 0;
1002:TOOL/cJSON.c  **** 
1003:TOOL/cJSON.c  ****     if (value == NULL)
1004:TOOL/cJSON.c  ****     {
1005:TOOL/cJSON.c  ****         goto fail;
1006:TOOL/cJSON.c  ****     }
1007:TOOL/cJSON.c  **** 
1008:TOOL/cJSON.c  ****     buffer.content = (const unsigned char*)value;
1009:TOOL/cJSON.c  ****     buffer.length = strlen((const char*)value) + sizeof("");
1010:TOOL/cJSON.c  ****     buffer.offset = 0;
1011:TOOL/cJSON.c  ****     buffer.hooks = global_hooks;
1012:TOOL/cJSON.c  **** 
1013:TOOL/cJSON.c  ****     item = cJSON_New_Item(&global_hooks);
1014:TOOL/cJSON.c  ****     if (item == NULL) /* memory fail */
1015:TOOL/cJSON.c  ****     {
1016:TOOL/cJSON.c  ****         goto fail;
1017:TOOL/cJSON.c  ****     }
1018:TOOL/cJSON.c  **** 
1019:TOOL/cJSON.c  ****     if (!parse_value(item, buffer_skip_whitespace(skip_utf8_bom(&buffer))))
1020:TOOL/cJSON.c  ****     {
1021:TOOL/cJSON.c  ****         /* parse failure. ep is set. */
1022:TOOL/cJSON.c  ****         goto fail;
1023:TOOL/cJSON.c  ****     }
1024:TOOL/cJSON.c  **** 
1025:TOOL/cJSON.c  ****     /* if we require null-terminated JSON without appended garbage, skip and then check for a null 
1026:TOOL/cJSON.c  ****     if (require_null_terminated)
1027:TOOL/cJSON.c  ****     {
1028:TOOL/cJSON.c  ****         buffer_skip_whitespace(&buffer);
ARM GAS  /var/folders/ww/n4ctlbrs3x70633t9y2ks63c0000gn/T//ccTX1xk7.s 			page 41


1029:TOOL/cJSON.c  ****         if ((buffer.offset >= buffer.length) || buffer_at_offset(&buffer)[0] != '\0')
1030:TOOL/cJSON.c  ****         {
1031:TOOL/cJSON.c  ****             goto fail;
1032:TOOL/cJSON.c  ****         }
1033:TOOL/cJSON.c  ****     }
1034:TOOL/cJSON.c  ****     if (return_parse_end)
1035:TOOL/cJSON.c  ****     {
1036:TOOL/cJSON.c  ****         *return_parse_end = (const char*)buffer_at_offset(&buffer);
1037:TOOL/cJSON.c  ****     }
1038:TOOL/cJSON.c  **** 
1039:TOOL/cJSON.c  ****     return item;
1040:TOOL/cJSON.c  **** 
1041:TOOL/cJSON.c  **** fail:
1042:TOOL/cJSON.c  ****     if (item != NULL)
1043:TOOL/cJSON.c  ****     {
1044:TOOL/cJSON.c  ****         cJSON_Delete(item);
1045:TOOL/cJSON.c  ****     }
1046:TOOL/cJSON.c  **** 
1047:TOOL/cJSON.c  ****     if (value != NULL)
1048:TOOL/cJSON.c  ****     {
1049:TOOL/cJSON.c  ****         error local_error;
1050:TOOL/cJSON.c  ****         local_error.json = (const unsigned char*)value;
1051:TOOL/cJSON.c  ****         local_error.position = 0;
1052:TOOL/cJSON.c  **** 
1053:TOOL/cJSON.c  ****         if (buffer.offset < buffer.length)
1054:TOOL/cJSON.c  ****         {
1055:TOOL/cJSON.c  ****             local_error.position = buffer.offset;
1056:TOOL/cJSON.c  ****         }
1057:TOOL/cJSON.c  ****         else if (buffer.length > 0)
1058:TOOL/cJSON.c  ****         {
1059:TOOL/cJSON.c  ****             local_error.position = buffer.length - 1;
1060:TOOL/cJSON.c  ****         }
1061:TOOL/cJSON.c  **** 
1062:TOOL/cJSON.c  ****         if (return_parse_end != NULL)
1063:TOOL/cJSON.c  ****         {
1064:TOOL/cJSON.c  ****             *return_parse_end = (const char*)local_error.json + local_error.position;
1065:TOOL/cJSON.c  ****         }
1066:TOOL/cJSON.c  **** 
1067:TOOL/cJSON.c  ****         global_error = local_error;
1068:TOOL/cJSON.c  ****     }
1069:TOOL/cJSON.c  **** 
1070:TOOL/cJSON.c  ****     return NULL;
1071:TOOL/cJSON.c  **** }
1072:TOOL/cJSON.c  **** 
1073:TOOL/cJSON.c  **** /* Default options for cJSON_Parse */
1074:TOOL/cJSON.c  **** CJSON_PUBLIC(cJSON *) cJSON_Parse(const char *value)
1075:TOOL/cJSON.c  **** {
1076:TOOL/cJSON.c  ****     return cJSON_ParseWithOpts(value, 0, 0);
1077:TOOL/cJSON.c  **** }
1078:TOOL/cJSON.c  **** 
1079:TOOL/cJSON.c  **** #define cjson_min(a, b) ((a < b) ? a : b)
1080:TOOL/cJSON.c  **** 
1081:TOOL/cJSON.c  **** static unsigned char *print(const cJSON * const item, cJSON_bool format, const internal_hooks * con
1082:TOOL/cJSON.c  **** {
1083:TOOL/cJSON.c  ****     printbuffer buffer[1];
1084:TOOL/cJSON.c  ****     unsigned char *printed = NULL;
1085:TOOL/cJSON.c  **** 
ARM GAS  /var/folders/ww/n4ctlbrs3x70633t9y2ks63c0000gn/T//ccTX1xk7.s 			page 42


1086:TOOL/cJSON.c  ****     memset(buffer, 0, sizeof(buffer));
1087:TOOL/cJSON.c  **** 
1088:TOOL/cJSON.c  ****     /* create buffer */
1089:TOOL/cJSON.c  ****     buffer->buffer = (unsigned char*) hooks->allocate(256);
1090:TOOL/cJSON.c  ****     buffer->format = format;
1091:TOOL/cJSON.c  ****     buffer->hooks = *hooks;
1092:TOOL/cJSON.c  ****     if (buffer->buffer == NULL)
1093:TOOL/cJSON.c  ****     {
1094:TOOL/cJSON.c  ****         goto fail;
1095:TOOL/cJSON.c  ****     }
1096:TOOL/cJSON.c  **** 
1097:TOOL/cJSON.c  ****     /* print the value */
1098:TOOL/cJSON.c  ****     if (!print_value(item, buffer))
1099:TOOL/cJSON.c  ****     {
1100:TOOL/cJSON.c  ****         goto fail;
1101:TOOL/cJSON.c  ****     }
1102:TOOL/cJSON.c  ****     update_offset(buffer);
1103:TOOL/cJSON.c  **** 
1104:TOOL/cJSON.c  ****     /* check if reallocate is available */
1105:TOOL/cJSON.c  ****     if (hooks->reallocate != NULL)
1106:TOOL/cJSON.c  ****     {
1107:TOOL/cJSON.c  ****         printed = (unsigned char*) hooks->reallocate(buffer->buffer, buffer->length);
1108:TOOL/cJSON.c  ****         buffer->buffer = NULL;
1109:TOOL/cJSON.c  ****         if (printed == NULL) {
1110:TOOL/cJSON.c  ****             goto fail;
1111:TOOL/cJSON.c  ****         }
1112:TOOL/cJSON.c  ****     }
1113:TOOL/cJSON.c  ****     else /* otherwise copy the JSON over to a new buffer */
1114:TOOL/cJSON.c  ****     {
1115:TOOL/cJSON.c  ****         printed = (unsigned char*) hooks->allocate(buffer->offset + 1);
1116:TOOL/cJSON.c  ****         if (printed == NULL)
1117:TOOL/cJSON.c  ****         {
1118:TOOL/cJSON.c  ****             goto fail;
1119:TOOL/cJSON.c  ****         }
1120:TOOL/cJSON.c  ****         memcpy(printed, buffer->buffer, cjson_min(buffer->length, buffer->offset + 1));
1121:TOOL/cJSON.c  ****         printed[buffer->offset] = '\0'; /* just to be sure */
1122:TOOL/cJSON.c  **** 
1123:TOOL/cJSON.c  ****         /* free the buffer */
1124:TOOL/cJSON.c  ****         hooks->deallocate(buffer->buffer);
1125:TOOL/cJSON.c  ****     }
1126:TOOL/cJSON.c  **** 
1127:TOOL/cJSON.c  ****     return printed;
1128:TOOL/cJSON.c  **** 
1129:TOOL/cJSON.c  **** fail:
1130:TOOL/cJSON.c  ****     if (buffer->buffer != NULL)
1131:TOOL/cJSON.c  ****     {
1132:TOOL/cJSON.c  ****         hooks->deallocate(buffer->buffer);
1133:TOOL/cJSON.c  ****     }
1134:TOOL/cJSON.c  **** 
1135:TOOL/cJSON.c  ****     if (printed != NULL)
1136:TOOL/cJSON.c  ****     {
1137:TOOL/cJSON.c  ****         hooks->deallocate(printed);
1138:TOOL/cJSON.c  ****     }
1139:TOOL/cJSON.c  **** 
1140:TOOL/cJSON.c  ****     return NULL;
1141:TOOL/cJSON.c  **** }
1142:TOOL/cJSON.c  **** 
ARM GAS  /var/folders/ww/n4ctlbrs3x70633t9y2ks63c0000gn/T//ccTX1xk7.s 			page 43


1143:TOOL/cJSON.c  **** /* Render a cJSON item/entity/structure to text. */
1144:TOOL/cJSON.c  **** CJSON_PUBLIC(char *) cJSON_Print(const cJSON *item)
1145:TOOL/cJSON.c  **** {
1146:TOOL/cJSON.c  ****     return (char*)print(item, true, &global_hooks);
1147:TOOL/cJSON.c  **** }
1148:TOOL/cJSON.c  **** 
1149:TOOL/cJSON.c  **** CJSON_PUBLIC(char *) cJSON_PrintUnformatted(const cJSON *item)
1150:TOOL/cJSON.c  **** {
1151:TOOL/cJSON.c  ****     return (char*)print(item, false, &global_hooks);
1152:TOOL/cJSON.c  **** }
1153:TOOL/cJSON.c  **** 
1154:TOOL/cJSON.c  **** CJSON_PUBLIC(char *) cJSON_PrintBuffered(const cJSON *item, int prebuffer, cJSON_bool fmt)
1155:TOOL/cJSON.c  **** {
1156:TOOL/cJSON.c  ****     printbuffer p = { 0, 0, 0, 0, 0, 0, { 0, 0, 0 } };
1157:TOOL/cJSON.c  **** 
1158:TOOL/cJSON.c  ****     if (prebuffer < 0)
1159:TOOL/cJSON.c  ****     {
1160:TOOL/cJSON.c  ****         return NULL;
1161:TOOL/cJSON.c  ****     }
1162:TOOL/cJSON.c  **** 
1163:TOOL/cJSON.c  ****     p.buffer = (unsigned char*)global_hooks.allocate((size_t)prebuffer);
1164:TOOL/cJSON.c  ****     if (!p.buffer)
1165:TOOL/cJSON.c  ****     {
1166:TOOL/cJSON.c  ****         return NULL;
1167:TOOL/cJSON.c  ****     }
1168:TOOL/cJSON.c  **** 
1169:TOOL/cJSON.c  ****     p.length = (size_t)prebuffer;
1170:TOOL/cJSON.c  ****     p.offset = 0;
1171:TOOL/cJSON.c  ****     p.noalloc = false;
1172:TOOL/cJSON.c  ****     p.format = fmt;
1173:TOOL/cJSON.c  ****     p.hooks = global_hooks;
1174:TOOL/cJSON.c  **** 
1175:TOOL/cJSON.c  ****     if (!print_value(item, &p))
1176:TOOL/cJSON.c  ****     {
1177:TOOL/cJSON.c  ****         global_hooks.deallocate(p.buffer);
1178:TOOL/cJSON.c  ****         return NULL;
1179:TOOL/cJSON.c  ****     }
1180:TOOL/cJSON.c  **** 
1181:TOOL/cJSON.c  ****     return (char*)p.buffer;
1182:TOOL/cJSON.c  **** }
1183:TOOL/cJSON.c  **** 
1184:TOOL/cJSON.c  **** CJSON_PUBLIC(cJSON_bool) cJSON_PrintPreallocated(cJSON *item, char *buf, const int len, const cJSON
1185:TOOL/cJSON.c  **** {
1186:TOOL/cJSON.c  ****     printbuffer p = { 0, 0, 0, 0, 0, 0, { 0, 0, 0 } };
1187:TOOL/cJSON.c  **** 
1188:TOOL/cJSON.c  ****     if ((len < 0) || (buf == NULL))
1189:TOOL/cJSON.c  ****     {
1190:TOOL/cJSON.c  ****         return false;
1191:TOOL/cJSON.c  ****     }
1192:TOOL/cJSON.c  **** 
1193:TOOL/cJSON.c  ****     p.buffer = (unsigned char*)buf;
1194:TOOL/cJSON.c  ****     p.length = (size_t)len;
1195:TOOL/cJSON.c  ****     p.offset = 0;
1196:TOOL/cJSON.c  ****     p.noalloc = true;
1197:TOOL/cJSON.c  ****     p.format = fmt;
1198:TOOL/cJSON.c  ****     p.hooks = global_hooks;
1199:TOOL/cJSON.c  **** 
ARM GAS  /var/folders/ww/n4ctlbrs3x70633t9y2ks63c0000gn/T//ccTX1xk7.s 			page 44


1200:TOOL/cJSON.c  ****     return print_value(item, &p);
1201:TOOL/cJSON.c  **** }
1202:TOOL/cJSON.c  **** 
1203:TOOL/cJSON.c  **** /* Parser core - when encountering text, process appropriately. */
1204:TOOL/cJSON.c  **** static cJSON_bool parse_value(cJSON * const item, parse_buffer * const input_buffer)
1205:TOOL/cJSON.c  **** {
1206:TOOL/cJSON.c  ****     if ((input_buffer == NULL) || (input_buffer->content == NULL))
1207:TOOL/cJSON.c  ****     {
1208:TOOL/cJSON.c  ****         return false; /* no input */
1209:TOOL/cJSON.c  ****     }
1210:TOOL/cJSON.c  **** 
1211:TOOL/cJSON.c  ****     /* parse the different types of values */
1212:TOOL/cJSON.c  ****     /* null */
1213:TOOL/cJSON.c  ****     if (can_read(input_buffer, 4) && (strncmp((const char*)buffer_at_offset(input_buffer), "null", 
1214:TOOL/cJSON.c  ****     {
1215:TOOL/cJSON.c  ****         item->type = cJSON_NULL;
1216:TOOL/cJSON.c  ****         input_buffer->offset += 4;
1217:TOOL/cJSON.c  ****         return true;
1218:TOOL/cJSON.c  ****     }
1219:TOOL/cJSON.c  ****     /* false */
1220:TOOL/cJSON.c  ****     if (can_read(input_buffer, 5) && (strncmp((const char*)buffer_at_offset(input_buffer), "false",
1221:TOOL/cJSON.c  ****     {
1222:TOOL/cJSON.c  ****         item->type = cJSON_False;
1223:TOOL/cJSON.c  ****         input_buffer->offset += 5;
1224:TOOL/cJSON.c  ****         return true;
1225:TOOL/cJSON.c  ****     }
1226:TOOL/cJSON.c  ****     /* true */
1227:TOOL/cJSON.c  ****     if (can_read(input_buffer, 4) && (strncmp((const char*)buffer_at_offset(input_buffer), "true", 
1228:TOOL/cJSON.c  ****     {
1229:TOOL/cJSON.c  ****         item->type = cJSON_True;
1230:TOOL/cJSON.c  ****         item->valueint = 1;
1231:TOOL/cJSON.c  ****         input_buffer->offset += 4;
1232:TOOL/cJSON.c  ****         return true;
1233:TOOL/cJSON.c  ****     }
1234:TOOL/cJSON.c  ****     /* string */
1235:TOOL/cJSON.c  ****     if (can_access_at_index(input_buffer, 0) && (buffer_at_offset(input_buffer)[0] == '\"'))
1236:TOOL/cJSON.c  ****     {
1237:TOOL/cJSON.c  ****         return parse_string(item, input_buffer);
1238:TOOL/cJSON.c  ****     }
1239:TOOL/cJSON.c  ****     /* number */
1240:TOOL/cJSON.c  ****     if (can_access_at_index(input_buffer, 0) && ((buffer_at_offset(input_buffer)[0] == '-') || ((bu
1241:TOOL/cJSON.c  ****     {
1242:TOOL/cJSON.c  ****         return parse_number(item, input_buffer);
1243:TOOL/cJSON.c  ****     }
1244:TOOL/cJSON.c  ****     /* array */
1245:TOOL/cJSON.c  ****     if (can_access_at_index(input_buffer, 0) && (buffer_at_offset(input_buffer)[0] == '['))
1246:TOOL/cJSON.c  ****     {
1247:TOOL/cJSON.c  ****         return parse_array(item, input_buffer);
1248:TOOL/cJSON.c  ****     }
1249:TOOL/cJSON.c  ****     /* object */
1250:TOOL/cJSON.c  ****     if (can_access_at_index(input_buffer, 0) && (buffer_at_offset(input_buffer)[0] == '{'))
1251:TOOL/cJSON.c  ****     {
1252:TOOL/cJSON.c  ****         return parse_object(item, input_buffer);
1253:TOOL/cJSON.c  ****     }
1254:TOOL/cJSON.c  **** 
1255:TOOL/cJSON.c  ****     return false;
1256:TOOL/cJSON.c  **** }
ARM GAS  /var/folders/ww/n4ctlbrs3x70633t9y2ks63c0000gn/T//ccTX1xk7.s 			page 45


1257:TOOL/cJSON.c  **** 
1258:TOOL/cJSON.c  **** /* Render a value to text. */
1259:TOOL/cJSON.c  **** static cJSON_bool print_value(const cJSON * const item, printbuffer * const output_buffer)
1260:TOOL/cJSON.c  **** {
1261:TOOL/cJSON.c  ****     unsigned char *output = NULL;
1262:TOOL/cJSON.c  **** 
1263:TOOL/cJSON.c  ****     if ((item == NULL) || (output_buffer == NULL))
1264:TOOL/cJSON.c  ****     {
1265:TOOL/cJSON.c  ****         return false;
1266:TOOL/cJSON.c  ****     }
1267:TOOL/cJSON.c  **** 
1268:TOOL/cJSON.c  ****     switch ((item->type) & 0xFF)
1269:TOOL/cJSON.c  ****     {
1270:TOOL/cJSON.c  ****         case cJSON_NULL:
1271:TOOL/cJSON.c  ****             output = ensure(output_buffer, 5);
1272:TOOL/cJSON.c  ****             if (output == NULL)
1273:TOOL/cJSON.c  ****             {
1274:TOOL/cJSON.c  ****                 return false;
1275:TOOL/cJSON.c  ****             }
1276:TOOL/cJSON.c  ****             strcpy((char*)output, "null");
1277:TOOL/cJSON.c  ****             return true;
1278:TOOL/cJSON.c  **** 
1279:TOOL/cJSON.c  ****         case cJSON_False:
1280:TOOL/cJSON.c  ****             output = ensure(output_buffer, 6);
1281:TOOL/cJSON.c  ****             if (output == NULL)
1282:TOOL/cJSON.c  ****             {
1283:TOOL/cJSON.c  ****                 return false;
1284:TOOL/cJSON.c  ****             }
1285:TOOL/cJSON.c  ****             strcpy((char*)output, "false");
1286:TOOL/cJSON.c  ****             return true;
1287:TOOL/cJSON.c  **** 
1288:TOOL/cJSON.c  ****         case cJSON_True:
1289:TOOL/cJSON.c  ****             output = ensure(output_buffer, 5);
1290:TOOL/cJSON.c  ****             if (output == NULL)
1291:TOOL/cJSON.c  ****             {
1292:TOOL/cJSON.c  ****                 return false;
1293:TOOL/cJSON.c  ****             }
1294:TOOL/cJSON.c  ****             strcpy((char*)output, "true");
1295:TOOL/cJSON.c  ****             return true;
1296:TOOL/cJSON.c  **** 
1297:TOOL/cJSON.c  ****         case cJSON_Number:
1298:TOOL/cJSON.c  ****             return print_number(item, output_buffer);
1299:TOOL/cJSON.c  **** 
1300:TOOL/cJSON.c  ****         case cJSON_Raw:
1301:TOOL/cJSON.c  ****         {
1302:TOOL/cJSON.c  ****             size_t raw_length = 0;
1303:TOOL/cJSON.c  ****             if (item->valuestring == NULL)
1304:TOOL/cJSON.c  ****             {
1305:TOOL/cJSON.c  ****                 if (!output_buffer->noalloc)
1306:TOOL/cJSON.c  ****                 {
1307:TOOL/cJSON.c  ****                     output_buffer->hooks.deallocate(output_buffer->buffer);
1308:TOOL/cJSON.c  ****                 }
1309:TOOL/cJSON.c  ****                 return false;
1310:TOOL/cJSON.c  ****             }
1311:TOOL/cJSON.c  **** 
1312:TOOL/cJSON.c  ****             raw_length = strlen(item->valuestring) + sizeof("");
1313:TOOL/cJSON.c  ****             output = ensure(output_buffer, raw_length);
ARM GAS  /var/folders/ww/n4ctlbrs3x70633t9y2ks63c0000gn/T//ccTX1xk7.s 			page 46


1314:TOOL/cJSON.c  ****             if (output == NULL)
1315:TOOL/cJSON.c  ****             {
1316:TOOL/cJSON.c  ****                 return false;
1317:TOOL/cJSON.c  ****             }
1318:TOOL/cJSON.c  ****             memcpy(output, item->valuestring, raw_length);
1319:TOOL/cJSON.c  ****             return true;
1320:TOOL/cJSON.c  ****         }
1321:TOOL/cJSON.c  **** 
1322:TOOL/cJSON.c  ****         case cJSON_String:
1323:TOOL/cJSON.c  ****             return print_string(item, output_buffer);
1324:TOOL/cJSON.c  **** 
1325:TOOL/cJSON.c  ****         case cJSON_Array:
1326:TOOL/cJSON.c  ****             return print_array(item, output_buffer);
1327:TOOL/cJSON.c  **** 
1328:TOOL/cJSON.c  ****         case cJSON_Object:
1329:TOOL/cJSON.c  ****             return print_object(item, output_buffer);
1330:TOOL/cJSON.c  **** 
1331:TOOL/cJSON.c  ****         default:
1332:TOOL/cJSON.c  ****             return false;
1333:TOOL/cJSON.c  ****     }
1334:TOOL/cJSON.c  **** }
1335:TOOL/cJSON.c  **** 
1336:TOOL/cJSON.c  **** /* Build an array from input text. */
1337:TOOL/cJSON.c  **** static cJSON_bool parse_array(cJSON * const item, parse_buffer * const input_buffer)
1338:TOOL/cJSON.c  **** {
1339:TOOL/cJSON.c  ****     cJSON *head = NULL; /* head of the linked list */
1340:TOOL/cJSON.c  ****     cJSON *current_item = NULL;
1341:TOOL/cJSON.c  **** 
1342:TOOL/cJSON.c  ****     if (input_buffer->depth >= CJSON_NESTING_LIMIT)
1343:TOOL/cJSON.c  ****     {
1344:TOOL/cJSON.c  ****         return false; /* to deeply nested */
1345:TOOL/cJSON.c  ****     }
1346:TOOL/cJSON.c  ****     input_buffer->depth++;
1347:TOOL/cJSON.c  **** 
1348:TOOL/cJSON.c  ****     if (buffer_at_offset(input_buffer)[0] != '[')
1349:TOOL/cJSON.c  ****     {
1350:TOOL/cJSON.c  ****         /* not an array */
1351:TOOL/cJSON.c  ****         goto fail;
1352:TOOL/cJSON.c  ****     }
1353:TOOL/cJSON.c  **** 
1354:TOOL/cJSON.c  ****     input_buffer->offset++;
1355:TOOL/cJSON.c  ****     buffer_skip_whitespace(input_buffer);
1356:TOOL/cJSON.c  ****     if (can_access_at_index(input_buffer, 0) && (buffer_at_offset(input_buffer)[0] == ']'))
1357:TOOL/cJSON.c  ****     {
1358:TOOL/cJSON.c  ****         /* empty array */
1359:TOOL/cJSON.c  ****         goto success;
1360:TOOL/cJSON.c  ****     }
1361:TOOL/cJSON.c  **** 
1362:TOOL/cJSON.c  ****     /* check if we skipped to the end of the buffer */
1363:TOOL/cJSON.c  ****     if (cannot_access_at_index(input_buffer, 0))
1364:TOOL/cJSON.c  ****     {
1365:TOOL/cJSON.c  ****         input_buffer->offset--;
1366:TOOL/cJSON.c  ****         goto fail;
1367:TOOL/cJSON.c  ****     }
1368:TOOL/cJSON.c  **** 
1369:TOOL/cJSON.c  ****     /* step back to character in front of the first element */
1370:TOOL/cJSON.c  ****     input_buffer->offset--;
ARM GAS  /var/folders/ww/n4ctlbrs3x70633t9y2ks63c0000gn/T//ccTX1xk7.s 			page 47


1371:TOOL/cJSON.c  ****     /* loop through the comma separated array elements */
1372:TOOL/cJSON.c  ****     do
1373:TOOL/cJSON.c  ****     {
1374:TOOL/cJSON.c  ****         /* allocate next item */
1375:TOOL/cJSON.c  ****         cJSON *new_item = cJSON_New_Item(&(input_buffer->hooks));
1376:TOOL/cJSON.c  ****         if (new_item == NULL)
1377:TOOL/cJSON.c  ****         {
1378:TOOL/cJSON.c  ****             goto fail; /* allocation failure */
1379:TOOL/cJSON.c  ****         }
1380:TOOL/cJSON.c  **** 
1381:TOOL/cJSON.c  ****         /* attach next item to list */
1382:TOOL/cJSON.c  ****         if (head == NULL)
1383:TOOL/cJSON.c  ****         {
1384:TOOL/cJSON.c  ****             /* start the linked list */
1385:TOOL/cJSON.c  ****             current_item = head = new_item;
1386:TOOL/cJSON.c  ****         }
1387:TOOL/cJSON.c  ****         else
1388:TOOL/cJSON.c  ****         {
1389:TOOL/cJSON.c  ****             /* add to the end and advance */
1390:TOOL/cJSON.c  ****             current_item->next = new_item;
1391:TOOL/cJSON.c  ****             new_item->prev = current_item;
1392:TOOL/cJSON.c  ****             current_item = new_item;
1393:TOOL/cJSON.c  ****         }
1394:TOOL/cJSON.c  **** 
1395:TOOL/cJSON.c  ****         /* parse next value */
1396:TOOL/cJSON.c  ****         input_buffer->offset++;
1397:TOOL/cJSON.c  ****         buffer_skip_whitespace(input_buffer);
1398:TOOL/cJSON.c  ****         if (!parse_value(current_item, input_buffer))
1399:TOOL/cJSON.c  ****         {
1400:TOOL/cJSON.c  ****             goto fail; /* failed to parse value */
1401:TOOL/cJSON.c  ****         }
1402:TOOL/cJSON.c  ****         buffer_skip_whitespace(input_buffer);
1403:TOOL/cJSON.c  ****     }
1404:TOOL/cJSON.c  ****     while (can_access_at_index(input_buffer, 0) && (buffer_at_offset(input_buffer)[0] == ','));
1405:TOOL/cJSON.c  **** 
1406:TOOL/cJSON.c  ****     if (cannot_access_at_index(input_buffer, 0) || buffer_at_offset(input_buffer)[0] != ']')
1407:TOOL/cJSON.c  ****     {
1408:TOOL/cJSON.c  ****         goto fail; /* expected end of array */
1409:TOOL/cJSON.c  ****     }
1410:TOOL/cJSON.c  **** 
1411:TOOL/cJSON.c  **** success:
1412:TOOL/cJSON.c  ****     input_buffer->depth--;
1413:TOOL/cJSON.c  **** 
1414:TOOL/cJSON.c  ****     item->type = cJSON_Array;
1415:TOOL/cJSON.c  ****     item->child = head;
1416:TOOL/cJSON.c  **** 
1417:TOOL/cJSON.c  ****     input_buffer->offset++;
1418:TOOL/cJSON.c  **** 
1419:TOOL/cJSON.c  ****     return true;
1420:TOOL/cJSON.c  **** 
1421:TOOL/cJSON.c  **** fail:
1422:TOOL/cJSON.c  ****     if (head != NULL)
1423:TOOL/cJSON.c  ****     {
1424:TOOL/cJSON.c  ****         cJSON_Delete(head);
1425:TOOL/cJSON.c  ****     }
1426:TOOL/cJSON.c  **** 
1427:TOOL/cJSON.c  ****     return false;
ARM GAS  /var/folders/ww/n4ctlbrs3x70633t9y2ks63c0000gn/T//ccTX1xk7.s 			page 48


1428:TOOL/cJSON.c  **** }
1429:TOOL/cJSON.c  **** 
1430:TOOL/cJSON.c  **** /* Render an array to text */
1431:TOOL/cJSON.c  **** static cJSON_bool print_array(const cJSON * const item, printbuffer * const output_buffer)
1432:TOOL/cJSON.c  **** {
1433:TOOL/cJSON.c  ****     unsigned char *output_pointer = NULL;
1434:TOOL/cJSON.c  ****     size_t length = 0;
1435:TOOL/cJSON.c  ****     cJSON *current_element = item->child;
1436:TOOL/cJSON.c  **** 
1437:TOOL/cJSON.c  ****     if (output_buffer == NULL)
1438:TOOL/cJSON.c  ****     {
1439:TOOL/cJSON.c  ****         return false;
1440:TOOL/cJSON.c  ****     }
1441:TOOL/cJSON.c  **** 
1442:TOOL/cJSON.c  ****     /* Compose the output array. */
1443:TOOL/cJSON.c  ****     /* opening square bracket */
1444:TOOL/cJSON.c  ****     output_pointer = ensure(output_buffer, 1);
1445:TOOL/cJSON.c  ****     if (output_pointer == NULL)
1446:TOOL/cJSON.c  ****     {
1447:TOOL/cJSON.c  ****         return false;
1448:TOOL/cJSON.c  ****     }
1449:TOOL/cJSON.c  **** 
1450:TOOL/cJSON.c  ****     *output_pointer = '[';
1451:TOOL/cJSON.c  ****     output_buffer->offset++;
1452:TOOL/cJSON.c  ****     output_buffer->depth++;
1453:TOOL/cJSON.c  **** 
1454:TOOL/cJSON.c  ****     while (current_element != NULL)
1455:TOOL/cJSON.c  ****     {
1456:TOOL/cJSON.c  ****         if (!print_value(current_element, output_buffer))
1457:TOOL/cJSON.c  ****         {
1458:TOOL/cJSON.c  ****             return false;
1459:TOOL/cJSON.c  ****         }
1460:TOOL/cJSON.c  ****         update_offset(output_buffer);
1461:TOOL/cJSON.c  ****         if (current_element->next)
1462:TOOL/cJSON.c  ****         {
1463:TOOL/cJSON.c  ****             length = (size_t) (output_buffer->format ? 2 : 1);
1464:TOOL/cJSON.c  ****             output_pointer = ensure(output_buffer, length + 1);
1465:TOOL/cJSON.c  ****             if (output_pointer == NULL)
1466:TOOL/cJSON.c  ****             {
1467:TOOL/cJSON.c  ****                 return false;
1468:TOOL/cJSON.c  ****             }
1469:TOOL/cJSON.c  ****             *output_pointer++ = ',';
1470:TOOL/cJSON.c  ****             if(output_buffer->format)
1471:TOOL/cJSON.c  ****             {
1472:TOOL/cJSON.c  ****                 *output_pointer++ = ' ';
1473:TOOL/cJSON.c  ****             }
1474:TOOL/cJSON.c  ****             *output_pointer = '\0';
1475:TOOL/cJSON.c  ****             output_buffer->offset += length;
1476:TOOL/cJSON.c  ****         }
1477:TOOL/cJSON.c  ****         current_element = current_element->next;
1478:TOOL/cJSON.c  ****     }
1479:TOOL/cJSON.c  **** 
1480:TOOL/cJSON.c  ****     output_pointer = ensure(output_buffer, 2);
1481:TOOL/cJSON.c  ****     if (output_pointer == NULL)
1482:TOOL/cJSON.c  ****     {
1483:TOOL/cJSON.c  ****         return false;
1484:TOOL/cJSON.c  ****     }
ARM GAS  /var/folders/ww/n4ctlbrs3x70633t9y2ks63c0000gn/T//ccTX1xk7.s 			page 49


1485:TOOL/cJSON.c  ****     *output_pointer++ = ']';
1486:TOOL/cJSON.c  ****     *output_pointer = '\0';
1487:TOOL/cJSON.c  ****     output_buffer->depth--;
1488:TOOL/cJSON.c  **** 
1489:TOOL/cJSON.c  ****     return true;
1490:TOOL/cJSON.c  **** }
1491:TOOL/cJSON.c  **** 
1492:TOOL/cJSON.c  **** /* Build an object from the text. */
1493:TOOL/cJSON.c  **** static cJSON_bool parse_object(cJSON * const item, parse_buffer * const input_buffer)
1494:TOOL/cJSON.c  **** {
1495:TOOL/cJSON.c  ****     cJSON *head = NULL; /* linked list head */
1496:TOOL/cJSON.c  ****     cJSON *current_item = NULL;
1497:TOOL/cJSON.c  **** 
1498:TOOL/cJSON.c  ****     if (input_buffer->depth >= CJSON_NESTING_LIMIT)
1499:TOOL/cJSON.c  ****     {
1500:TOOL/cJSON.c  ****         return false; /* to deeply nested */
1501:TOOL/cJSON.c  ****     }
1502:TOOL/cJSON.c  ****     input_buffer->depth++;
1503:TOOL/cJSON.c  **** 
1504:TOOL/cJSON.c  ****     if (cannot_access_at_index(input_buffer, 0) || (buffer_at_offset(input_buffer)[0] != '{'))
1505:TOOL/cJSON.c  ****     {
1506:TOOL/cJSON.c  ****         goto fail; /* not an object */
1507:TOOL/cJSON.c  ****     }
1508:TOOL/cJSON.c  **** 
1509:TOOL/cJSON.c  ****     input_buffer->offset++;
1510:TOOL/cJSON.c  ****     buffer_skip_whitespace(input_buffer);
1511:TOOL/cJSON.c  ****     if (can_access_at_index(input_buffer, 0) && (buffer_at_offset(input_buffer)[0] == '}'))
1512:TOOL/cJSON.c  ****     {
1513:TOOL/cJSON.c  ****         goto success; /* empty object */
1514:TOOL/cJSON.c  ****     }
1515:TOOL/cJSON.c  **** 
1516:TOOL/cJSON.c  ****     /* check if we skipped to the end of the buffer */
1517:TOOL/cJSON.c  ****     if (cannot_access_at_index(input_buffer, 0))
1518:TOOL/cJSON.c  ****     {
1519:TOOL/cJSON.c  ****         input_buffer->offset--;
1520:TOOL/cJSON.c  ****         goto fail;
1521:TOOL/cJSON.c  ****     }
1522:TOOL/cJSON.c  **** 
1523:TOOL/cJSON.c  ****     /* step back to character in front of the first element */
1524:TOOL/cJSON.c  ****     input_buffer->offset--;
1525:TOOL/cJSON.c  ****     /* loop through the comma separated array elements */
1526:TOOL/cJSON.c  ****     do
1527:TOOL/cJSON.c  ****     {
1528:TOOL/cJSON.c  ****         /* allocate next item */
1529:TOOL/cJSON.c  ****         cJSON *new_item = cJSON_New_Item(&(input_buffer->hooks));
1530:TOOL/cJSON.c  ****         if (new_item == NULL)
1531:TOOL/cJSON.c  ****         {
1532:TOOL/cJSON.c  ****             goto fail; /* allocation failure */
1533:TOOL/cJSON.c  ****         }
1534:TOOL/cJSON.c  **** 
1535:TOOL/cJSON.c  ****         /* attach next item to list */
1536:TOOL/cJSON.c  ****         if (head == NULL)
1537:TOOL/cJSON.c  ****         {
1538:TOOL/cJSON.c  ****             /* start the linked list */
1539:TOOL/cJSON.c  ****             current_item = head = new_item;
1540:TOOL/cJSON.c  ****         }
1541:TOOL/cJSON.c  ****         else
ARM GAS  /var/folders/ww/n4ctlbrs3x70633t9y2ks63c0000gn/T//ccTX1xk7.s 			page 50


1542:TOOL/cJSON.c  ****         {
1543:TOOL/cJSON.c  ****             /* add to the end and advance */
1544:TOOL/cJSON.c  ****             current_item->next = new_item;
1545:TOOL/cJSON.c  ****             new_item->prev = current_item;
1546:TOOL/cJSON.c  ****             current_item = new_item;
1547:TOOL/cJSON.c  ****         }
1548:TOOL/cJSON.c  **** 
1549:TOOL/cJSON.c  ****         /* parse the name of the child */
1550:TOOL/cJSON.c  ****         input_buffer->offset++;
1551:TOOL/cJSON.c  ****         buffer_skip_whitespace(input_buffer);
1552:TOOL/cJSON.c  ****         if (!parse_string(current_item, input_buffer))
1553:TOOL/cJSON.c  ****         {
1554:TOOL/cJSON.c  ****             goto fail; /* faile to parse name */
1555:TOOL/cJSON.c  ****         }
1556:TOOL/cJSON.c  ****         buffer_skip_whitespace(input_buffer);
1557:TOOL/cJSON.c  **** 
1558:TOOL/cJSON.c  ****         /* swap valuestring and string, because we parsed the name */
1559:TOOL/cJSON.c  ****         current_item->string = current_item->valuestring;
1560:TOOL/cJSON.c  ****         current_item->valuestring = NULL;
1561:TOOL/cJSON.c  **** 
1562:TOOL/cJSON.c  ****         if (cannot_access_at_index(input_buffer, 0) || (buffer_at_offset(input_buffer)[0] != ':'))
1563:TOOL/cJSON.c  ****         {
1564:TOOL/cJSON.c  ****             goto fail; /* invalid object */
1565:TOOL/cJSON.c  ****         }
1566:TOOL/cJSON.c  **** 
1567:TOOL/cJSON.c  ****         /* parse the value */
1568:TOOL/cJSON.c  ****         input_buffer->offset++;
1569:TOOL/cJSON.c  ****         buffer_skip_whitespace(input_buffer);
1570:TOOL/cJSON.c  ****         if (!parse_value(current_item, input_buffer))
1571:TOOL/cJSON.c  ****         {
1572:TOOL/cJSON.c  ****             goto fail; /* failed to parse value */
1573:TOOL/cJSON.c  ****         }
1574:TOOL/cJSON.c  ****         buffer_skip_whitespace(input_buffer);
1575:TOOL/cJSON.c  ****     }
1576:TOOL/cJSON.c  ****     while (can_access_at_index(input_buffer, 0) && (buffer_at_offset(input_buffer)[0] == ','));
1577:TOOL/cJSON.c  **** 
1578:TOOL/cJSON.c  ****     if (cannot_access_at_index(input_buffer, 0) || (buffer_at_offset(input_buffer)[0] != '}'))
1579:TOOL/cJSON.c  ****     {
1580:TOOL/cJSON.c  ****         goto fail; /* expected end of object */
1581:TOOL/cJSON.c  ****     }
1582:TOOL/cJSON.c  **** 
1583:TOOL/cJSON.c  **** success:
1584:TOOL/cJSON.c  ****     input_buffer->depth--;
1585:TOOL/cJSON.c  **** 
1586:TOOL/cJSON.c  ****     item->type = cJSON_Object;
1587:TOOL/cJSON.c  ****     item->child = head;
1588:TOOL/cJSON.c  **** 
1589:TOOL/cJSON.c  ****     input_buffer->offset++;
1590:TOOL/cJSON.c  ****     return true;
1591:TOOL/cJSON.c  **** 
1592:TOOL/cJSON.c  **** fail:
1593:TOOL/cJSON.c  ****     if (head != NULL)
1594:TOOL/cJSON.c  ****     {
1595:TOOL/cJSON.c  ****         cJSON_Delete(head);
1596:TOOL/cJSON.c  ****     }
1597:TOOL/cJSON.c  **** 
1598:TOOL/cJSON.c  ****     return false;
ARM GAS  /var/folders/ww/n4ctlbrs3x70633t9y2ks63c0000gn/T//ccTX1xk7.s 			page 51


1599:TOOL/cJSON.c  **** }
1600:TOOL/cJSON.c  **** 
1601:TOOL/cJSON.c  **** /* Render an object to text. */
1602:TOOL/cJSON.c  **** static cJSON_bool print_object(const cJSON * const item, printbuffer * const output_buffer)
1603:TOOL/cJSON.c  **** {
1604:TOOL/cJSON.c  ****     unsigned char *output_pointer = NULL;
1605:TOOL/cJSON.c  ****     size_t length = 0;
1606:TOOL/cJSON.c  ****     cJSON *current_item = item->child;
1607:TOOL/cJSON.c  **** 
1608:TOOL/cJSON.c  ****     if (output_buffer == NULL)
1609:TOOL/cJSON.c  ****     {
1610:TOOL/cJSON.c  ****         return false;
1611:TOOL/cJSON.c  ****     }
1612:TOOL/cJSON.c  **** 
1613:TOOL/cJSON.c  ****     /* Compose the output: */
1614:TOOL/cJSON.c  ****     length = (size_t) (output_buffer->format ? 2 : 1); /* fmt: {\n */
1615:TOOL/cJSON.c  ****     output_pointer = ensure(output_buffer, length + 1);
1616:TOOL/cJSON.c  ****     if (output_pointer == NULL)
1617:TOOL/cJSON.c  ****     {
1618:TOOL/cJSON.c  ****         return false;
1619:TOOL/cJSON.c  ****     }
1620:TOOL/cJSON.c  **** 
1621:TOOL/cJSON.c  ****     *output_pointer++ = '{';
1622:TOOL/cJSON.c  ****     output_buffer->depth++;
1623:TOOL/cJSON.c  ****     if (output_buffer->format)
1624:TOOL/cJSON.c  ****     {
1625:TOOL/cJSON.c  ****         *output_pointer++ = '\n';
1626:TOOL/cJSON.c  ****     }
1627:TOOL/cJSON.c  ****     output_buffer->offset += length;
1628:TOOL/cJSON.c  **** 
1629:TOOL/cJSON.c  ****     while (current_item)
1630:TOOL/cJSON.c  ****     {
1631:TOOL/cJSON.c  ****         if (output_buffer->format)
1632:TOOL/cJSON.c  ****         {
1633:TOOL/cJSON.c  ****             size_t i;
1634:TOOL/cJSON.c  ****             output_pointer = ensure(output_buffer, output_buffer->depth);
1635:TOOL/cJSON.c  ****             if (output_pointer == NULL)
1636:TOOL/cJSON.c  ****             {
1637:TOOL/cJSON.c  ****                 return false;
1638:TOOL/cJSON.c  ****             }
1639:TOOL/cJSON.c  ****             for (i = 0; i < output_buffer->depth; i++)
1640:TOOL/cJSON.c  ****             {
1641:TOOL/cJSON.c  ****                 *output_pointer++ = '\t';
1642:TOOL/cJSON.c  ****             }
1643:TOOL/cJSON.c  ****             output_buffer->offset += output_buffer->depth;
1644:TOOL/cJSON.c  ****         }
1645:TOOL/cJSON.c  **** 
1646:TOOL/cJSON.c  ****         /* print key */
1647:TOOL/cJSON.c  ****         if (!print_string_ptr((unsigned char*)current_item->string, output_buffer))
1648:TOOL/cJSON.c  ****         {
1649:TOOL/cJSON.c  ****             return false;
1650:TOOL/cJSON.c  ****         }
1651:TOOL/cJSON.c  ****         update_offset(output_buffer);
1652:TOOL/cJSON.c  **** 
1653:TOOL/cJSON.c  ****         length = (size_t) (output_buffer->format ? 2 : 1);
1654:TOOL/cJSON.c  ****         output_pointer = ensure(output_buffer, length);
1655:TOOL/cJSON.c  ****         if (output_pointer == NULL)
ARM GAS  /var/folders/ww/n4ctlbrs3x70633t9y2ks63c0000gn/T//ccTX1xk7.s 			page 52


1656:TOOL/cJSON.c  ****         {
1657:TOOL/cJSON.c  ****             return false;
1658:TOOL/cJSON.c  ****         }
1659:TOOL/cJSON.c  ****         *output_pointer++ = ':';
1660:TOOL/cJSON.c  ****         if (output_buffer->format)
1661:TOOL/cJSON.c  ****         {
1662:TOOL/cJSON.c  ****             *output_pointer++ = '\t';
1663:TOOL/cJSON.c  ****         }
1664:TOOL/cJSON.c  ****         output_buffer->offset += length;
1665:TOOL/cJSON.c  **** 
1666:TOOL/cJSON.c  ****         /* print value */
1667:TOOL/cJSON.c  ****         if (!print_value(current_item, output_buffer))
1668:TOOL/cJSON.c  ****         {
1669:TOOL/cJSON.c  ****             return false;
1670:TOOL/cJSON.c  ****         }
1671:TOOL/cJSON.c  ****         update_offset(output_buffer);
1672:TOOL/cJSON.c  **** 
1673:TOOL/cJSON.c  ****         /* print comma if not last */
1674:TOOL/cJSON.c  ****         length = (size_t) ((output_buffer->format ? 1 : 0) + (current_item->next ? 1 : 0));
1675:TOOL/cJSON.c  ****         output_pointer = ensure(output_buffer, length + 1);
1676:TOOL/cJSON.c  ****         if (output_pointer == NULL)
1677:TOOL/cJSON.c  ****         {
1678:TOOL/cJSON.c  ****             return false;
1679:TOOL/cJSON.c  ****         }
1680:TOOL/cJSON.c  ****         if (current_item->next)
1681:TOOL/cJSON.c  ****         {
1682:TOOL/cJSON.c  ****             *output_pointer++ = ',';
1683:TOOL/cJSON.c  ****         }
1684:TOOL/cJSON.c  **** 
1685:TOOL/cJSON.c  ****         if (output_buffer->format)
1686:TOOL/cJSON.c  ****         {
1687:TOOL/cJSON.c  ****             *output_pointer++ = '\n';
1688:TOOL/cJSON.c  ****         }
1689:TOOL/cJSON.c  ****         *output_pointer = '\0';
1690:TOOL/cJSON.c  ****         output_buffer->offset += length;
1691:TOOL/cJSON.c  **** 
1692:TOOL/cJSON.c  ****         current_item = current_item->next;
1693:TOOL/cJSON.c  ****     }
1694:TOOL/cJSON.c  **** 
1695:TOOL/cJSON.c  ****     output_pointer = ensure(output_buffer, output_buffer->format ? (output_buffer->depth + 1) : 2);
1696:TOOL/cJSON.c  ****     if (output_pointer == NULL)
1697:TOOL/cJSON.c  ****     {
1698:TOOL/cJSON.c  ****         return false;
1699:TOOL/cJSON.c  ****     }
1700:TOOL/cJSON.c  ****     if (output_buffer->format)
1701:TOOL/cJSON.c  ****     {
1702:TOOL/cJSON.c  ****         size_t i;
1703:TOOL/cJSON.c  ****         for (i = 0; i < (output_buffer->depth - 1); i++)
1704:TOOL/cJSON.c  ****         {
1705:TOOL/cJSON.c  ****             *output_pointer++ = '\t';
1706:TOOL/cJSON.c  ****         }
1707:TOOL/cJSON.c  ****     }
1708:TOOL/cJSON.c  ****     *output_pointer++ = '}';
1709:TOOL/cJSON.c  ****     *output_pointer = '\0';
1710:TOOL/cJSON.c  ****     output_buffer->depth--;
1711:TOOL/cJSON.c  **** 
1712:TOOL/cJSON.c  ****     return true;
ARM GAS  /var/folders/ww/n4ctlbrs3x70633t9y2ks63c0000gn/T//ccTX1xk7.s 			page 53


1713:TOOL/cJSON.c  **** }
1714:TOOL/cJSON.c  **** 
1715:TOOL/cJSON.c  **** /* Get Array size/item / object item. */
1716:TOOL/cJSON.c  **** CJSON_PUBLIC(int) cJSON_GetArraySize(const cJSON *array)
1717:TOOL/cJSON.c  **** {
1718:TOOL/cJSON.c  ****     cJSON *child = NULL;
1719:TOOL/cJSON.c  ****     size_t size = 0;
1720:TOOL/cJSON.c  **** 
1721:TOOL/cJSON.c  ****     if (array == NULL)
1722:TOOL/cJSON.c  ****     {
1723:TOOL/cJSON.c  ****         return 0;
1724:TOOL/cJSON.c  ****     }
1725:TOOL/cJSON.c  **** 
1726:TOOL/cJSON.c  ****     child = array->child;
1727:TOOL/cJSON.c  **** 
1728:TOOL/cJSON.c  ****     while(child != NULL)
1729:TOOL/cJSON.c  ****     {
1730:TOOL/cJSON.c  ****         size++;
1731:TOOL/cJSON.c  ****         child = child->next;
1732:TOOL/cJSON.c  ****     }
1733:TOOL/cJSON.c  **** 
1734:TOOL/cJSON.c  ****     /* FIXME: Can overflow here. Cannot be fixed without breaking the API */
1735:TOOL/cJSON.c  **** 
1736:TOOL/cJSON.c  ****     return (int)size;
1737:TOOL/cJSON.c  **** }
1738:TOOL/cJSON.c  **** 
1739:TOOL/cJSON.c  **** static cJSON* get_array_item(const cJSON *array, size_t index)
1740:TOOL/cJSON.c  **** {
 1125              		.loc 1 1740 1 is_stmt 1 view -0
 1126              		.cfi_startproc
 1127              		@ args = 0, pretend = 0, frame = 0
 1128              		@ frame_needed = 0, uses_anonymous_args = 0
 1129              		@ link register save eliminated.
1741:TOOL/cJSON.c  ****     cJSON *current_child = NULL;
 1130              		.loc 1 1741 5 view .LVU344
1742:TOOL/cJSON.c  **** 
1743:TOOL/cJSON.c  ****     if (array == NULL)
 1131              		.loc 1 1743 5 view .LVU345
 1132              		.loc 1 1743 8 is_stmt 0 view .LVU346
 1133 0000 30B1     		cbz	r0, .L91
1744:TOOL/cJSON.c  ****     {
1745:TOOL/cJSON.c  ****         return NULL;
1746:TOOL/cJSON.c  ****     }
1747:TOOL/cJSON.c  **** 
1748:TOOL/cJSON.c  ****     current_child = array->child;
 1134              		.loc 1 1748 5 is_stmt 1 view .LVU347
 1135              		.loc 1 1748 19 is_stmt 0 view .LVU348
 1136 0002 8068     		ldr	r0, [r0, #8]
 1137              	.LVL113:
1749:TOOL/cJSON.c  ****     while ((current_child != NULL) && (index > 0))
 1138              		.loc 1 1749 5 is_stmt 1 view .LVU349
 1139              	.L93:
 1140              		.loc 1 1749 11 is_stmt 0 view .LVU350
 1141 0004 20B1     		cbz	r0, .L91
 1142              		.loc 1 1749 36 discriminator 1 view .LVU351
 1143 0006 11B1     		cbz	r1, .L96
1750:TOOL/cJSON.c  ****     {
ARM GAS  /var/folders/ww/n4ctlbrs3x70633t9y2ks63c0000gn/T//ccTX1xk7.s 			page 54


1751:TOOL/cJSON.c  ****         index--;
 1144              		.loc 1 1751 9 is_stmt 1 view .LVU352
 1145              		.loc 1 1751 14 is_stmt 0 view .LVU353
 1146 0008 0139     		subs	r1, r1, #1
 1147              	.LVL114:
1752:TOOL/cJSON.c  ****         current_child = current_child->next;
 1148              		.loc 1 1752 9 is_stmt 1 view .LVU354
 1149              		.loc 1 1752 23 is_stmt 0 view .LVU355
 1150 000a 0068     		ldr	r0, [r0]
 1151              	.LVL115:
 1152              		.loc 1 1752 23 view .LVU356
 1153 000c FAE7     		b	.L93
 1154              	.L96:
 1155              		.loc 1 1752 23 view .LVU357
 1156 000e 7047     		bx	lr
 1157              	.LVL116:
 1158              	.L91:
1753:TOOL/cJSON.c  ****     }
1754:TOOL/cJSON.c  **** 
1755:TOOL/cJSON.c  ****     return current_child;
1756:TOOL/cJSON.c  **** }
 1159              		.loc 1 1756 1 view .LVU358
 1160 0010 7047     		bx	lr
 1161              		.cfi_endproc
 1162              	.LFE105:
 1164              		.section	.text.suffix_object,"ax",%progbits
 1165              		.align	1
 1166              		.syntax unified
 1167              		.thumb
 1168              		.thumb_func
 1169              		.fpu softvfp
 1171              	suffix_object:
 1172              	.LVL117:
 1173              	.LFB111:
1757:TOOL/cJSON.c  **** 
1758:TOOL/cJSON.c  **** CJSON_PUBLIC(cJSON *) cJSON_GetArrayItem(const cJSON *array, int index)
1759:TOOL/cJSON.c  **** {
1760:TOOL/cJSON.c  ****     if (index < 0)
1761:TOOL/cJSON.c  ****     {
1762:TOOL/cJSON.c  ****         return NULL;
1763:TOOL/cJSON.c  ****     }
1764:TOOL/cJSON.c  **** 
1765:TOOL/cJSON.c  ****     return get_array_item(array, (size_t)index);
1766:TOOL/cJSON.c  **** }
1767:TOOL/cJSON.c  **** 
1768:TOOL/cJSON.c  **** static cJSON *get_object_item(const cJSON * const object, const char * const name, const cJSON_bool
1769:TOOL/cJSON.c  **** {
1770:TOOL/cJSON.c  ****     cJSON *current_element = NULL;
1771:TOOL/cJSON.c  **** 
1772:TOOL/cJSON.c  ****     if ((object == NULL) || (name == NULL))
1773:TOOL/cJSON.c  ****     {
1774:TOOL/cJSON.c  ****         return NULL;
1775:TOOL/cJSON.c  ****     }
1776:TOOL/cJSON.c  **** 
1777:TOOL/cJSON.c  ****     current_element = object->child;
1778:TOOL/cJSON.c  ****     if (case_sensitive)
1779:TOOL/cJSON.c  ****     {
ARM GAS  /var/folders/ww/n4ctlbrs3x70633t9y2ks63c0000gn/T//ccTX1xk7.s 			page 55


1780:TOOL/cJSON.c  ****         while ((current_element != NULL) && (strcmp(name, current_element->string) != 0))
1781:TOOL/cJSON.c  ****         {
1782:TOOL/cJSON.c  ****             current_element = current_element->next;
1783:TOOL/cJSON.c  ****         }
1784:TOOL/cJSON.c  ****     }
1785:TOOL/cJSON.c  ****     else
1786:TOOL/cJSON.c  ****     {
1787:TOOL/cJSON.c  ****         while ((current_element != NULL) && (case_insensitive_strcmp((const unsigned char*)name, (c
1788:TOOL/cJSON.c  ****         {
1789:TOOL/cJSON.c  ****             current_element = current_element->next;
1790:TOOL/cJSON.c  ****         }
1791:TOOL/cJSON.c  ****     }
1792:TOOL/cJSON.c  **** 
1793:TOOL/cJSON.c  ****     return current_element;
1794:TOOL/cJSON.c  **** }
1795:TOOL/cJSON.c  **** 
1796:TOOL/cJSON.c  **** CJSON_PUBLIC(cJSON *) cJSON_GetObjectItem(const cJSON * const object, const char * const string)
1797:TOOL/cJSON.c  **** {
1798:TOOL/cJSON.c  ****     return get_object_item(object, string, false);
1799:TOOL/cJSON.c  **** }
1800:TOOL/cJSON.c  **** 
1801:TOOL/cJSON.c  **** CJSON_PUBLIC(cJSON *) cJSON_GetObjectItemCaseSensitive(const cJSON * const object, const char * con
1802:TOOL/cJSON.c  **** {
1803:TOOL/cJSON.c  ****     return get_object_item(object, string, true);
1804:TOOL/cJSON.c  **** }
1805:TOOL/cJSON.c  **** 
1806:TOOL/cJSON.c  **** CJSON_PUBLIC(cJSON_bool) cJSON_HasObjectItem(const cJSON *object, const char *string)
1807:TOOL/cJSON.c  **** {
1808:TOOL/cJSON.c  ****     return cJSON_GetObjectItem(object, string) ? 1 : 0;
1809:TOOL/cJSON.c  **** }
1810:TOOL/cJSON.c  **** 
1811:TOOL/cJSON.c  **** /* Utility for array list handling. */
1812:TOOL/cJSON.c  **** static void suffix_object(cJSON *prev, cJSON *item)
1813:TOOL/cJSON.c  **** {
 1174              		.loc 1 1813 1 is_stmt 1 view -0
 1175              		.cfi_startproc
 1176              		@ args = 0, pretend = 0, frame = 0
 1177              		@ frame_needed = 0, uses_anonymous_args = 0
 1178              		@ link register save eliminated.
1814:TOOL/cJSON.c  ****     prev->next = item;
 1179              		.loc 1 1814 5 view .LVU360
 1180              		.loc 1 1814 16 is_stmt 0 view .LVU361
 1181 0000 0160     		str	r1, [r0]
1815:TOOL/cJSON.c  ****     item->prev = prev;
 1182              		.loc 1 1815 5 is_stmt 1 view .LVU362
 1183              		.loc 1 1815 16 is_stmt 0 view .LVU363
 1184 0002 4860     		str	r0, [r1, #4]
1816:TOOL/cJSON.c  **** }
 1185              		.loc 1 1816 1 view .LVU364
 1186 0004 7047     		bx	lr
 1187              		.cfi_endproc
 1188              	.LFE111:
 1190              		.section	.text.internal_realloc,"ax",%progbits
 1191              		.align	1
 1192              		.syntax unified
 1193              		.thumb
 1194              		.thumb_func
ARM GAS  /var/folders/ww/n4ctlbrs3x70633t9y2ks63c0000gn/T//ccTX1xk7.s 			page 56


 1195              		.fpu softvfp
 1197              	internal_realloc:
 1198              	.LVL118:
 1199              	.LFB73:
 132:TOOL/cJSON.c  ****     return myrealloc(pointer, size);
 1200              		.loc 1 132 1 is_stmt 1 view -0
 1201              		.cfi_startproc
 1202              		@ args = 0, pretend = 0, frame = 0
 1203              		@ frame_needed = 0, uses_anonymous_args = 0
 132:TOOL/cJSON.c  ****     return myrealloc(pointer, size);
 1204              		.loc 1 132 1 is_stmt 0 view .LVU366
 1205 0000 08B5     		push	{r3, lr}
 1206              	.LCFI10:
 1207              		.cfi_def_cfa_offset 8
 1208              		.cfi_offset 3, -8
 1209              		.cfi_offset 14, -4
 133:TOOL/cJSON.c  **** }
 1210              		.loc 1 133 5 is_stmt 1 view .LVU367
 133:TOOL/cJSON.c  **** }
 1211              		.loc 1 133 12 is_stmt 0 view .LVU368
 1212 0002 FFF7FEFF 		bl	myrealloc
 1213              	.LVL119:
 134:TOOL/cJSON.c  **** //#else
 1214              		.loc 1 134 1 view .LVU369
 1215 0006 08BD     		pop	{r3, pc}
 1216              		.cfi_endproc
 1217              	.LFE73:
 1219              		.section	.text.internal_free,"ax",%progbits
 1220              		.align	1
 1221              		.syntax unified
 1222              		.thumb
 1223              		.thumb_func
 1224              		.fpu softvfp
 1226              	internal_free:
 1227              	.LVL120:
 1228              	.LFB72:
 128:TOOL/cJSON.c  ****     myfree(pointer);
 1229              		.loc 1 128 1 is_stmt 1 view -0
 1230              		.cfi_startproc
 1231              		@ args = 0, pretend = 0, frame = 0
 1232              		@ frame_needed = 0, uses_anonymous_args = 0
 128:TOOL/cJSON.c  ****     myfree(pointer);
 1233              		.loc 1 128 1 is_stmt 0 view .LVU371
 1234 0000 08B5     		push	{r3, lr}
 1235              	.LCFI11:
 1236              		.cfi_def_cfa_offset 8
 1237              		.cfi_offset 3, -8
 1238              		.cfi_offset 14, -4
 129:TOOL/cJSON.c  **** }
 1239              		.loc 1 129 5 is_stmt 1 view .LVU372
 1240 0002 FFF7FEFF 		bl	myfree
 1241              	.LVL121:
 130:TOOL/cJSON.c  **** static void *internal_realloc(void *pointer, size_t size)
 1242              		.loc 1 130 1 is_stmt 0 view .LVU373
 1243 0006 08BD     		pop	{r3, pc}
 1244              		.cfi_endproc
 1245              	.LFE72:
ARM GAS  /var/folders/ww/n4ctlbrs3x70633t9y2ks63c0000gn/T//ccTX1xk7.s 			page 57


 1247              		.section	.text.internal_malloc,"ax",%progbits
 1248              		.align	1
 1249              		.syntax unified
 1250              		.thumb
 1251              		.thumb_func
 1252              		.fpu softvfp
 1254              	internal_malloc:
 1255              	.LVL122:
 1256              	.LFB71:
 124:TOOL/cJSON.c  ****     return mymalloc(size);
 1257              		.loc 1 124 1 is_stmt 1 view -0
 1258              		.cfi_startproc
 1259              		@ args = 0, pretend = 0, frame = 0
 1260              		@ frame_needed = 0, uses_anonymous_args = 0
 124:TOOL/cJSON.c  ****     return mymalloc(size);
 1261              		.loc 1 124 1 is_stmt 0 view .LVU375
 1262 0000 08B5     		push	{r3, lr}
 1263              	.LCFI12:
 1264              		.cfi_def_cfa_offset 8
 1265              		.cfi_offset 3, -8
 1266              		.cfi_offset 14, -4
 125:TOOL/cJSON.c  **** }
 1267              		.loc 1 125 5 is_stmt 1 view .LVU376
 125:TOOL/cJSON.c  **** }
 1268              		.loc 1 125 12 is_stmt 0 view .LVU377
 1269 0002 FFF7FEFF 		bl	mymalloc
 1270              	.LVL123:
 126:TOOL/cJSON.c  **** static void internal_free(void *pointer)
 1271              		.loc 1 126 1 view .LVU378
 1272 0006 08BD     		pop	{r3, pc}
 1273              		.cfi_endproc
 1274              	.LFE71:
 1276              		.section	.text.update_offset,"ax",%progbits
 1277              		.align	1
 1278              		.syntax unified
 1279              		.thumb
 1280              		.thumb_func
 1281              		.fpu softvfp
 1283              	update_offset:
 1284              	.LVL124:
 1285              	.LFB82:
 456:TOOL/cJSON.c  ****     const unsigned char *buffer_pointer = NULL;
 1286              		.loc 1 456 1 is_stmt 1 view -0
 1287              		.cfi_startproc
 1288              		@ args = 0, pretend = 0, frame = 0
 1289              		@ frame_needed = 0, uses_anonymous_args = 0
 457:TOOL/cJSON.c  ****     if ((buffer == NULL) || (buffer->buffer == NULL))
 1290              		.loc 1 457 5 view .LVU380
 458:TOOL/cJSON.c  ****     {
 1291              		.loc 1 458 5 view .LVU381
 458:TOOL/cJSON.c  ****     {
 1292              		.loc 1 458 8 is_stmt 0 view .LVU382
 1293 0000 50B1     		cbz	r0, .L107
 456:TOOL/cJSON.c  ****     const unsigned char *buffer_pointer = NULL;
 1294              		.loc 1 456 1 discriminator 1 view .LVU383
 1295 0002 38B5     		push	{r3, r4, r5, lr}
 1296              	.LCFI13:
ARM GAS  /var/folders/ww/n4ctlbrs3x70633t9y2ks63c0000gn/T//ccTX1xk7.s 			page 58


 1297              		.cfi_def_cfa_offset 16
 1298              		.cfi_offset 3, -16
 1299              		.cfi_offset 4, -12
 1300              		.cfi_offset 5, -8
 1301              		.cfi_offset 14, -4
 1302 0004 0446     		mov	r4, r0
 458:TOOL/cJSON.c  ****     {
 1303              		.loc 1 458 36 discriminator 1 view .LVU384
 1304 0006 0068     		ldr	r0, [r0]
 1305              	.LVL125:
 458:TOOL/cJSON.c  ****     {
 1306              		.loc 1 458 26 discriminator 1 view .LVU385
 1307 0008 28B1     		cbz	r0, .L104
 462:TOOL/cJSON.c  **** 
 1308              		.loc 1 462 5 is_stmt 1 view .LVU386
 462:TOOL/cJSON.c  **** 
 1309              		.loc 1 462 45 is_stmt 0 view .LVU387
 1310 000a A568     		ldr	r5, [r4, #8]
 1311              	.LVL126:
 464:TOOL/cJSON.c  **** }
 1312              		.loc 1 464 5 is_stmt 1 view .LVU388
 464:TOOL/cJSON.c  **** }
 1313              		.loc 1 464 23 is_stmt 0 view .LVU389
 1314 000c 2844     		add	r0, r0, r5
 1315              	.LVL127:
 464:TOOL/cJSON.c  **** }
 1316              		.loc 1 464 23 view .LVU390
 1317 000e FFF7FEFF 		bl	strlen
 1318              	.LVL128:
 464:TOOL/cJSON.c  **** }
 1319              		.loc 1 464 20 view .LVU391
 1320 0012 2844     		add	r0, r0, r5
 1321 0014 A060     		str	r0, [r4, #8]
 1322              	.L104:
 465:TOOL/cJSON.c  **** 
 1323              		.loc 1 465 1 view .LVU392
 1324 0016 38BD     		pop	{r3, r4, r5, pc}
 1325              	.LVL129:
 1326              	.L107:
 1327              	.LCFI14:
 1328              		.cfi_def_cfa_offset 0
 1329              		.cfi_restore 3
 1330              		.cfi_restore 4
 1331              		.cfi_restore 5
 1332              		.cfi_restore 14
 465:TOOL/cJSON.c  **** 
 1333              		.loc 1 465 1 view .LVU393
 1334 0018 7047     		bx	lr
 1335              		.cfi_endproc
 1336              	.LFE82:
 1338              		.section	.text.cJSON_New_Item,"ax",%progbits
 1339              		.align	1
 1340              		.syntax unified
 1341              		.thumb
 1342              		.thumb_func
 1343              		.fpu softvfp
 1345              	cJSON_New_Item:
ARM GAS  /var/folders/ww/n4ctlbrs3x70633t9y2ks63c0000gn/T//ccTX1xk7.s 			page 59


 1346              	.LVL130:
 1347              	.LFB76:
 197:TOOL/cJSON.c  ****     cJSON* node = (cJSON*)hooks->allocate(sizeof(cJSON));
 1348              		.loc 1 197 1 is_stmt 1 view -0
 1349              		.cfi_startproc
 1350              		@ args = 0, pretend = 0, frame = 0
 1351              		@ frame_needed = 0, uses_anonymous_args = 0
 197:TOOL/cJSON.c  ****     cJSON* node = (cJSON*)hooks->allocate(sizeof(cJSON));
 1352              		.loc 1 197 1 is_stmt 0 view .LVU395
 1353 0000 10B5     		push	{r4, lr}
 1354              	.LCFI15:
 1355              		.cfi_def_cfa_offset 8
 1356              		.cfi_offset 4, -8
 1357              		.cfi_offset 14, -4
 198:TOOL/cJSON.c  ****     if (node)
 1358              		.loc 1 198 5 is_stmt 1 view .LVU396
 198:TOOL/cJSON.c  ****     if (node)
 1359              		.loc 1 198 32 is_stmt 0 view .LVU397
 1360 0002 0368     		ldr	r3, [r0]
 198:TOOL/cJSON.c  ****     if (node)
 1361              		.loc 1 198 27 view .LVU398
 1362 0004 2820     		movs	r0, #40
 1363              	.LVL131:
 198:TOOL/cJSON.c  ****     if (node)
 1364              		.loc 1 198 27 view .LVU399
 1365 0006 9847     		blx	r3
 1366              	.LVL132:
 199:TOOL/cJSON.c  ****     {
 1367              		.loc 1 199 5 is_stmt 1 view .LVU400
 199:TOOL/cJSON.c  ****     {
 1368              		.loc 1 199 8 is_stmt 0 view .LVU401
 1369 0008 0446     		mov	r4, r0
 1370 000a 18B1     		cbz	r0, .L110
 201:TOOL/cJSON.c  ****     }
 1371              		.loc 1 201 9 is_stmt 1 view .LVU402
 1372 000c 2822     		movs	r2, #40
 1373 000e 0021     		movs	r1, #0
 1374 0010 FFF7FEFF 		bl	memset
 1375              	.LVL133:
 204:TOOL/cJSON.c  **** }
 1376              		.loc 1 204 5 view .LVU403
 1377              	.L110:
 205:TOOL/cJSON.c  **** 
 1378              		.loc 1 205 1 is_stmt 0 view .LVU404
 1379 0014 2046     		mov	r0, r4
 1380 0016 10BD     		pop	{r4, pc}
 205:TOOL/cJSON.c  **** 
 1381              		.loc 1 205 1 view .LVU405
 1382              		.cfi_endproc
 1383              	.LFE76:
 1385              		.section	.text.skip_utf8_bom,"ax",%progbits
 1386              		.align	1
 1387              		.syntax unified
 1388              		.thumb
 1389              		.thumb_func
 1390              		.fpu softvfp
 1392              	skip_utf8_bom:
ARM GAS  /var/folders/ww/n4ctlbrs3x70633t9y2ks63c0000gn/T//ccTX1xk7.s 			page 60


 1393              	.LVL134:
 1394              	.LFB90:
 979:TOOL/cJSON.c  ****     if ((buffer == NULL) || (buffer->content == NULL) || (buffer->offset != 0))
 1395              		.loc 1 979 1 is_stmt 1 view -0
 1396              		.cfi_startproc
 1397              		@ args = 0, pretend = 0, frame = 0
 1398              		@ frame_needed = 0, uses_anonymous_args = 0
 979:TOOL/cJSON.c  ****     if ((buffer == NULL) || (buffer->content == NULL) || (buffer->offset != 0))
 1399              		.loc 1 979 1 is_stmt 0 view .LVU407
 1400 0000 38B5     		push	{r3, r4, r5, lr}
 1401              	.LCFI16:
 1402              		.cfi_def_cfa_offset 16
 1403              		.cfi_offset 3, -16
 1404              		.cfi_offset 4, -12
 1405              		.cfi_offset 5, -8
 1406              		.cfi_offset 14, -4
 980:TOOL/cJSON.c  ****     {
 1407              		.loc 1 980 5 is_stmt 1 view .LVU408
 980:TOOL/cJSON.c  ****     {
 1408              		.loc 1 980 8 is_stmt 0 view .LVU409
 1409 0002 0446     		mov	r4, r0
 1410 0004 78B1     		cbz	r0, .L114
 980:TOOL/cJSON.c  ****     {
 1411              		.loc 1 980 36 discriminator 1 view .LVU410
 1412 0006 0068     		ldr	r0, [r0]
 1413              	.LVL135:
 980:TOOL/cJSON.c  ****     {
 1414              		.loc 1 980 26 discriminator 1 view .LVU411
 1415 0008 78B1     		cbz	r0, .L115
 980:TOOL/cJSON.c  ****     {
 1416              		.loc 1 980 65 discriminator 2 view .LVU412
 1417 000a A568     		ldr	r5, [r4, #8]
 980:TOOL/cJSON.c  ****     {
 1418              		.loc 1 980 55 discriminator 2 view .LVU413
 1419 000c 7DB9     		cbnz	r5, .L116
 985:TOOL/cJSON.c  ****     {
 1420              		.loc 1 985 5 is_stmt 1 discriminator 1 view .LVU414
 985:TOOL/cJSON.c  ****     {
 1421              		.loc 1 985 9 is_stmt 0 discriminator 1 view .LVU415
 1422 000e 2B1D     		adds	r3, r5, #4
 1423 0010 6268     		ldr	r2, [r4, #4]
 1424 0012 9342     		cmp	r3, r2
 1425 0014 07D2     		bcs	.L114
 985:TOOL/cJSON.c  ****     {
 1426              		.loc 1 985 44 discriminator 2 view .LVU416
 1427 0016 0322     		movs	r2, #3
 1428 0018 0649     		ldr	r1, .L118
 1429 001a 2844     		add	r0, r0, r5
 1430 001c FFF7FEFF 		bl	strncmp
 1431              	.LVL136:
 985:TOOL/cJSON.c  ****     {
 1432              		.loc 1 985 40 discriminator 2 view .LVU417
 1433 0020 08B9     		cbnz	r0, .L114
 987:TOOL/cJSON.c  ****     }
 1434              		.loc 1 987 9 is_stmt 1 view .LVU418
 987:TOOL/cJSON.c  ****     }
 1435              		.loc 1 987 24 is_stmt 0 view .LVU419
ARM GAS  /var/folders/ww/n4ctlbrs3x70633t9y2ks63c0000gn/T//ccTX1xk7.s 			page 61


 1436 0022 0335     		adds	r5, r5, #3
 1437 0024 A560     		str	r5, [r4, #8]
 1438              	.LVL137:
 1439              	.L114:
 991:TOOL/cJSON.c  **** 
 1440              		.loc 1 991 1 view .LVU420
 1441 0026 2046     		mov	r0, r4
 1442 0028 38BD     		pop	{r3, r4, r5, pc}
 1443              	.LVL138:
 1444              	.L115:
 982:TOOL/cJSON.c  ****     }
 1445              		.loc 1 982 16 view .LVU421
 1446 002a 0446     		mov	r4, r0
 1447              	.LVL139:
 982:TOOL/cJSON.c  ****     }
 1448              		.loc 1 982 16 view .LVU422
 1449 002c FBE7     		b	.L114
 1450              	.LVL140:
 1451              	.L116:
 982:TOOL/cJSON.c  ****     }
 1452              		.loc 1 982 16 view .LVU423
 1453 002e 0024     		movs	r4, #0
 1454              	.LVL141:
 982:TOOL/cJSON.c  ****     }
 1455              		.loc 1 982 16 view .LVU424
 1456 0030 F9E7     		b	.L114
 1457              	.L119:
 1458 0032 00BF     		.align	2
 1459              	.L118:
 1460 0034 00000000 		.word	.LC0
 1461              		.cfi_endproc
 1462              	.LFE90:
 1464              		.global	__aeabi_dcmpge
 1465              		.global	__aeabi_dcmple
 1466              		.global	__aeabi_d2iz
 1467              		.section	.text.parse_number,"ax",%progbits
 1468              		.align	1
 1469              		.syntax unified
 1470              		.thumb
 1471              		.thumb_func
 1472              		.fpu softvfp
 1474              	parse_number:
 1475              	.LVL142:
 1476              	.LFB79:
 261:TOOL/cJSON.c  ****     double number = 0;
 1477              		.loc 1 261 1 is_stmt 1 view -0
 1478              		.cfi_startproc
 1479              		@ args = 0, pretend = 0, frame = 72
 1480              		@ frame_needed = 0, uses_anonymous_args = 0
 261:TOOL/cJSON.c  ****     double number = 0;
 1481              		.loc 1 261 1 is_stmt 0 view .LVU426
 1482 0000 2DE9F043 		push	{r4, r5, r6, r7, r8, r9, lr}
 1483              	.LCFI17:
 1484              		.cfi_def_cfa_offset 28
 1485              		.cfi_offset 4, -28
 1486              		.cfi_offset 5, -24
 1487              		.cfi_offset 6, -20
ARM GAS  /var/folders/ww/n4ctlbrs3x70633t9y2ks63c0000gn/T//ccTX1xk7.s 			page 62


 1488              		.cfi_offset 7, -16
 1489              		.cfi_offset 8, -12
 1490              		.cfi_offset 9, -8
 1491              		.cfi_offset 14, -4
 1492 0004 93B0     		sub	sp, sp, #76
 1493              	.LCFI18:
 1494              		.cfi_def_cfa_offset 104
 1495 0006 0546     		mov	r5, r0
 1496 0008 0C46     		mov	r4, r1
 262:TOOL/cJSON.c  ****     unsigned char *after_end = NULL;
 1497              		.loc 1 262 5 is_stmt 1 view .LVU427
 1498              	.LVL143:
 263:TOOL/cJSON.c  ****     unsigned char number_c_string[64];
 1499              		.loc 1 263 5 view .LVU428
 263:TOOL/cJSON.c  ****     unsigned char number_c_string[64];
 1500              		.loc 1 263 20 is_stmt 0 view .LVU429
 1501 000a 0023     		movs	r3, #0
 1502 000c 1193     		str	r3, [sp, #68]
 264:TOOL/cJSON.c  ****     unsigned char decimal_point = get_decimal_point();
 1503              		.loc 1 264 5 is_stmt 1 view .LVU430
 265:TOOL/cJSON.c  ****     size_t i = 0;
 1504              		.loc 1 265 5 view .LVU431
 265:TOOL/cJSON.c  ****     size_t i = 0;
 1505              		.loc 1 265 35 is_stmt 0 view .LVU432
 1506 000e FFF7FEFF 		bl	get_decimal_point
 1507              	.LVL144:
 266:TOOL/cJSON.c  **** 
 1508              		.loc 1 266 5 is_stmt 1 view .LVU433
 268:TOOL/cJSON.c  ****     {
 1509              		.loc 1 268 5 view .LVU434
 268:TOOL/cJSON.c  ****     {
 1510              		.loc 1 268 8 is_stmt 0 view .LVU435
 1511 0012 002C     		cmp	r4, #0
 1512 0014 00F0CF80 		beq	.L134
 268:TOOL/cJSON.c  ****     {
 1513              		.loc 1 268 48 discriminator 1 view .LVU436
 1514 0018 2368     		ldr	r3, [r4]
 268:TOOL/cJSON.c  ****     {
 1515              		.loc 1 268 32 discriminator 1 view .LVU437
 1516 001a 002B     		cmp	r3, #0
 1517 001c 00F0CD80 		beq	.L135
 276:TOOL/cJSON.c  ****     {
 1518              		.loc 1 276 12 view .LVU438
 1519 0020 0023     		movs	r3, #0
 1520 0022 04E0     		b	.L122
 1521              	.LVL145:
 1522              	.L124:
 294:TOOL/cJSON.c  ****                 break;
 1523              		.loc 1 294 17 is_stmt 1 view .LVU439
 294:TOOL/cJSON.c  ****                 break;
 1524              		.loc 1 294 36 is_stmt 0 view .LVU440
 1525 0024 12AA     		add	r2, sp, #72
 1526 0026 1A44     		add	r2, r2, r3
 1527 0028 02F8441C 		strb	r1, [r2, #-68]
 295:TOOL/cJSON.c  **** 
 1528              		.loc 1 295 17 is_stmt 1 view .LVU441
 1529              	.L127:
ARM GAS  /var/folders/ww/n4ctlbrs3x70633t9y2ks63c0000gn/T//ccTX1xk7.s 			page 63


 276:TOOL/cJSON.c  ****     {
 1530              		.loc 1 276 95 is_stmt 0 discriminator 2 view .LVU442
 1531 002c 0133     		adds	r3, r3, #1
 1532              	.LVL146:
 1533              	.L122:
 276:TOOL/cJSON.c  ****     {
 1534              		.loc 1 276 5 discriminator 1 view .LVU443
 1535 002e 3E2B     		cmp	r3, #62
 1536 0030 00F28B80 		bhi	.L123
 276:TOOL/cJSON.c  ****     {
 1537              		.loc 1 276 56 discriminator 4 view .LVU444
 1538 0034 A268     		ldr	r2, [r4, #8]
 1539 0036 1A44     		add	r2, r2, r3
 1540 0038 6168     		ldr	r1, [r4, #4]
 1541 003a 8A42     		cmp	r2, r1
 1542 003c 80F08580 		bcs	.L123
 278:TOOL/cJSON.c  ****         {
 1543              		.loc 1 278 9 is_stmt 1 view .LVU445
 278:TOOL/cJSON.c  ****         {
 1544              		.loc 1 278 17 is_stmt 0 view .LVU446
 1545 0040 2168     		ldr	r1, [r4]
 278:TOOL/cJSON.c  ****         {
 1546              		.loc 1 278 47 view .LVU447
 1547 0042 895C     		ldrb	r1, [r1, r2]	@ zero_extendqisi2
 278:TOOL/cJSON.c  ****         {
 1548              		.loc 1 278 9 view .LVU448
 1549 0044 A1F12B02 		sub	r2, r1, #43
 1550 0048 3A2A     		cmp	r2, #58
 1551 004a 7ED8     		bhi	.L123
 1552 004c 01A6     		adr	r6, .L125
 1553 004e 56F822F0 		ldr	pc, [r6, r2, lsl #2]
 1554 0052 00BF     		.p2align 2
 1555              	.L125:
 1556 0054 25000000 		.word	.L124+1
 1557 0058 4B010000 		.word	.L123+1
 1558 005c 25000000 		.word	.L124+1
 1559 0060 41010000 		.word	.L126+1
 1560 0064 4B010000 		.word	.L123+1
 1561 0068 25000000 		.word	.L124+1
 1562 006c 25000000 		.word	.L124+1
 1563 0070 25000000 		.word	.L124+1
 1564 0074 25000000 		.word	.L124+1
 1565 0078 25000000 		.word	.L124+1
 1566 007c 25000000 		.word	.L124+1
 1567 0080 25000000 		.word	.L124+1
 1568 0084 25000000 		.word	.L124+1
 1569 0088 25000000 		.word	.L124+1
 1570 008c 25000000 		.word	.L124+1
 1571 0090 4B010000 		.word	.L123+1
 1572 0094 4B010000 		.word	.L123+1
 1573 0098 4B010000 		.word	.L123+1
 1574 009c 4B010000 		.word	.L123+1
 1575 00a0 4B010000 		.word	.L123+1
 1576 00a4 4B010000 		.word	.L123+1
 1577 00a8 4B010000 		.word	.L123+1
 1578 00ac 4B010000 		.word	.L123+1
 1579 00b0 4B010000 		.word	.L123+1
ARM GAS  /var/folders/ww/n4ctlbrs3x70633t9y2ks63c0000gn/T//ccTX1xk7.s 			page 64


 1580 00b4 4B010000 		.word	.L123+1
 1581 00b8 4B010000 		.word	.L123+1
 1582 00bc 25000000 		.word	.L124+1
 1583 00c0 4B010000 		.word	.L123+1
 1584 00c4 4B010000 		.word	.L123+1
 1585 00c8 4B010000 		.word	.L123+1
 1586 00cc 4B010000 		.word	.L123+1
 1587 00d0 4B010000 		.word	.L123+1
 1588 00d4 4B010000 		.word	.L123+1
 1589 00d8 4B010000 		.word	.L123+1
 1590 00dc 4B010000 		.word	.L123+1
 1591 00e0 4B010000 		.word	.L123+1
 1592 00e4 4B010000 		.word	.L123+1
 1593 00e8 4B010000 		.word	.L123+1
 1594 00ec 4B010000 		.word	.L123+1
 1595 00f0 4B010000 		.word	.L123+1
 1596 00f4 4B010000 		.word	.L123+1
 1597 00f8 4B010000 		.word	.L123+1
 1598 00fc 4B010000 		.word	.L123+1
 1599 0100 4B010000 		.word	.L123+1
 1600 0104 4B010000 		.word	.L123+1
 1601 0108 4B010000 		.word	.L123+1
 1602 010c 4B010000 		.word	.L123+1
 1603 0110 4B010000 		.word	.L123+1
 1604 0114 4B010000 		.word	.L123+1
 1605 0118 4B010000 		.word	.L123+1
 1606 011c 4B010000 		.word	.L123+1
 1607 0120 4B010000 		.word	.L123+1
 1608 0124 4B010000 		.word	.L123+1
 1609 0128 4B010000 		.word	.L123+1
 1610 012c 4B010000 		.word	.L123+1
 1611 0130 4B010000 		.word	.L123+1
 1612 0134 4B010000 		.word	.L123+1
 1613 0138 4B010000 		.word	.L123+1
 1614 013c 25000000 		.word	.L124+1
 1615              		.p2align 1
 1616              	.L126:
 298:TOOL/cJSON.c  ****                 break;
 1617              		.loc 1 298 17 is_stmt 1 view .LVU449
 298:TOOL/cJSON.c  ****                 break;
 1618              		.loc 1 298 36 is_stmt 0 view .LVU450
 1619 0140 12AA     		add	r2, sp, #72
 1620 0142 1A44     		add	r2, r2, r3
 1621 0144 02F8440C 		strb	r0, [r2, #-68]
 299:TOOL/cJSON.c  **** 
 1622              		.loc 1 299 17 is_stmt 1 view .LVU451
 1623 0148 70E7     		b	.L127
 1624              	.L123:
 306:TOOL/cJSON.c  **** 
 1625              		.loc 1 306 5 view .LVU452
 306:TOOL/cJSON.c  **** 
 1626              		.loc 1 306 24 is_stmt 0 view .LVU453
 1627 014a 12AA     		add	r2, sp, #72
 1628 014c 1344     		add	r3, r3, r2
 1629              	.LVL147:
 306:TOOL/cJSON.c  **** 
 1630              		.loc 1 306 24 view .LVU454
ARM GAS  /var/folders/ww/n4ctlbrs3x70633t9y2ks63c0000gn/T//ccTX1xk7.s 			page 65


 1631 014e 0022     		movs	r2, #0
 1632 0150 03F8442C 		strb	r2, [r3, #-68]
 308:TOOL/cJSON.c  ****     if (number_c_string == after_end)
 1633              		.loc 1 308 5 is_stmt 1 view .LVU455
 308:TOOL/cJSON.c  ****     if (number_c_string == after_end)
 1634              		.loc 1 308 14 is_stmt 0 view .LVU456
 1635 0154 01AF     		add	r7, sp, #4
 1636 0156 11A9     		add	r1, sp, #68
 1637 0158 3846     		mov	r0, r7
 1638              	.LVL148:
 308:TOOL/cJSON.c  ****     if (number_c_string == after_end)
 1639              		.loc 1 308 14 view .LVU457
 1640 015a FFF7FEFF 		bl	strtod
 1641              	.LVL149:
 1642 015e 8046     		mov	r8, r0
 1643 0160 8946     		mov	r9, r1
 1644              	.LVL150:
 309:TOOL/cJSON.c  ****     {
 1645              		.loc 1 309 5 is_stmt 1 view .LVU458
 309:TOOL/cJSON.c  ****     {
 1646              		.loc 1 309 25 is_stmt 0 view .LVU459
 1647 0162 119E     		ldr	r6, [sp, #68]
 309:TOOL/cJSON.c  ****     {
 1648              		.loc 1 309 8 view .LVU460
 1649 0164 BE42     		cmp	r6, r7
 1650 0166 2AD0     		beq	.L136
 314:TOOL/cJSON.c  **** 
 1651              		.loc 1 314 5 is_stmt 1 view .LVU461
 314:TOOL/cJSON.c  **** 
 1652              		.loc 1 314 23 is_stmt 0 view .LVU462
 1653 0168 C5E90689 		strd	r8, [r5, #24]
 317:TOOL/cJSON.c  ****     {
 1654              		.loc 1 317 5 is_stmt 1 view .LVU463
 317:TOOL/cJSON.c  ****     {
 1655              		.loc 1 317 8 is_stmt 0 view .LVU464
 1656 016c 16A3     		adr	r3, .L142
 1657 016e D3E90023 		ldrd	r2, [r3]
 1658 0172 FFF7FEFF 		bl	__aeabi_dcmpge
 1659              	.LVL151:
 1660 0176 68B1     		cbz	r0, .L139
 319:TOOL/cJSON.c  ****     }
 1661              		.loc 1 319 9 is_stmt 1 view .LVU465
 319:TOOL/cJSON.c  ****     }
 1662              		.loc 1 319 24 is_stmt 0 view .LVU466
 1663 0178 6FF00043 		mvn	r3, #-2147483648
 1664 017c 6B61     		str	r3, [r5, #20]
 1665              	.L131:
 330:TOOL/cJSON.c  **** 
 1666              		.loc 1 330 5 is_stmt 1 view .LVU467
 330:TOOL/cJSON.c  **** 
 1667              		.loc 1 330 16 is_stmt 0 view .LVU468
 1668 017e 0823     		movs	r3, #8
 1669 0180 EB60     		str	r3, [r5, #12]
 332:TOOL/cJSON.c  ****     return true;
 1670              		.loc 1 332 5 is_stmt 1 view .LVU469
 332:TOOL/cJSON.c  ****     return true;
 1671              		.loc 1 332 48 is_stmt 0 view .LVU470
ARM GAS  /var/folders/ww/n4ctlbrs3x70633t9y2ks63c0000gn/T//ccTX1xk7.s 			page 66


 1672 0182 01AB     		add	r3, sp, #4
 1673 0184 F61A     		subs	r6, r6, r3
 332:TOOL/cJSON.c  ****     return true;
 1674              		.loc 1 332 26 view .LVU471
 1675 0186 A368     		ldr	r3, [r4, #8]
 1676 0188 1E44     		add	r6, r6, r3
 1677 018a A660     		str	r6, [r4, #8]
 333:TOOL/cJSON.c  **** }
 1678              		.loc 1 333 5 is_stmt 1 view .LVU472
 333:TOOL/cJSON.c  **** }
 1679              		.loc 1 333 12 is_stmt 0 view .LVU473
 1680 018c 0120     		movs	r0, #1
 1681              	.LVL152:
 1682              	.L120:
 334:TOOL/cJSON.c  **** 
 1683              		.loc 1 334 1 view .LVU474
 1684 018e 13B0     		add	sp, sp, #76
 1685              	.LCFI19:
 1686              		.cfi_remember_state
 1687              		.cfi_def_cfa_offset 28
 1688              		@ sp needed
 1689 0190 BDE8F083 		pop	{r4, r5, r6, r7, r8, r9, pc}
 1690              	.LVL153:
 1691              	.L139:
 1692              	.LCFI20:
 1693              		.cfi_restore_state
 321:TOOL/cJSON.c  ****     {
 1694              		.loc 1 321 10 is_stmt 1 view .LVU475
 321:TOOL/cJSON.c  ****     {
 1695              		.loc 1 321 13 is_stmt 0 view .LVU476
 1696 0194 0022     		movs	r2, #0
 1697 0196 0E4B     		ldr	r3, .L142+8
 1698 0198 4046     		mov	r0, r8
 1699 019a 4946     		mov	r1, r9
 1700 019c FFF7FEFF 		bl	__aeabi_dcmple
 1701              	.LVL154:
 1702 01a0 18B1     		cbz	r0, .L140
 323:TOOL/cJSON.c  ****     }
 1703              		.loc 1 323 9 is_stmt 1 view .LVU477
 323:TOOL/cJSON.c  ****     }
 1704              		.loc 1 323 24 is_stmt 0 view .LVU478
 1705 01a2 4FF00043 		mov	r3, #-2147483648
 1706 01a6 6B61     		str	r3, [r5, #20]
 1707 01a8 E9E7     		b	.L131
 1708              	.L140:
 327:TOOL/cJSON.c  ****     }
 1709              		.loc 1 327 9 is_stmt 1 view .LVU479
 327:TOOL/cJSON.c  ****     }
 1710              		.loc 1 327 26 is_stmt 0 view .LVU480
 1711 01aa 4046     		mov	r0, r8
 1712 01ac 4946     		mov	r1, r9
 1713 01ae FFF7FEFF 		bl	__aeabi_d2iz
 1714              	.LVL155:
 327:TOOL/cJSON.c  ****     }
 1715              		.loc 1 327 24 view .LVU481
 1716 01b2 6861     		str	r0, [r5, #20]
 1717 01b4 E3E7     		b	.L131
ARM GAS  /var/folders/ww/n4ctlbrs3x70633t9y2ks63c0000gn/T//ccTX1xk7.s 			page 67


 1718              	.LVL156:
 1719              	.L134:
 270:TOOL/cJSON.c  ****     }
 1720              		.loc 1 270 16 view .LVU482
 1721 01b6 0020     		movs	r0, #0
 1722              	.LVL157:
 270:TOOL/cJSON.c  ****     }
 1723              		.loc 1 270 16 view .LVU483
 1724 01b8 E9E7     		b	.L120
 1725              	.LVL158:
 1726              	.L135:
 270:TOOL/cJSON.c  ****     }
 1727              		.loc 1 270 16 view .LVU484
 1728 01ba 0020     		movs	r0, #0
 1729              	.LVL159:
 270:TOOL/cJSON.c  ****     }
 1730              		.loc 1 270 16 view .LVU485
 1731 01bc E7E7     		b	.L120
 1732              	.LVL160:
 1733              	.L136:
 311:TOOL/cJSON.c  ****     }
 1734              		.loc 1 311 16 view .LVU486
 1735 01be 0020     		movs	r0, #0
 1736 01c0 E5E7     		b	.L120
 1737              	.L143:
 1738 01c2 00BFAFF3 		.align	3
 1738      0080
 1739              	.L142:
 1740 01c8 0000C0FF 		.word	4290772992
 1741 01cc FFFFDF41 		.word	1105199103
 1742 01d0 0000E0C1 		.word	-1042284544
 1743              		.cfi_endproc
 1744              	.LFE79:
 1746              		.section	.text.ensure,"ax",%progbits
 1747              		.align	1
 1748              		.syntax unified
 1749              		.thumb
 1750              		.thumb_func
 1751              		.fpu softvfp
 1753              	ensure:
 1754              	.LVL161:
 1755              	.LFB81:
 368:TOOL/cJSON.c  ****     unsigned char *newbuffer = NULL;
 1756              		.loc 1 368 1 is_stmt 1 view -0
 1757              		.cfi_startproc
 1758              		@ args = 0, pretend = 0, frame = 0
 1759              		@ frame_needed = 0, uses_anonymous_args = 0
 368:TOOL/cJSON.c  ****     unsigned char *newbuffer = NULL;
 1760              		.loc 1 368 1 is_stmt 0 view .LVU488
 1761 0000 70B5     		push	{r4, r5, r6, lr}
 1762              	.LCFI21:
 1763              		.cfi_def_cfa_offset 16
 1764              		.cfi_offset 4, -16
 1765              		.cfi_offset 5, -12
 1766              		.cfi_offset 6, -8
 1767              		.cfi_offset 14, -4
 369:TOOL/cJSON.c  ****     size_t newsize = 0;
ARM GAS  /var/folders/ww/n4ctlbrs3x70633t9y2ks63c0000gn/T//ccTX1xk7.s 			page 68


 1768              		.loc 1 369 5 is_stmt 1 view .LVU489
 1769              	.LVL162:
 370:TOOL/cJSON.c  **** 
 1770              		.loc 1 370 5 view .LVU490
 372:TOOL/cJSON.c  ****     {
 1771              		.loc 1 372 5 view .LVU491
 372:TOOL/cJSON.c  ****     {
 1772              		.loc 1 372 8 is_stmt 0 view .LVU492
 1773 0002 0446     		mov	r4, r0
 1774 0004 0028     		cmp	r0, #0
 1775 0006 46D0     		beq	.L153
 372:TOOL/cJSON.c  ****     {
 1776              		.loc 1 372 26 discriminator 1 view .LVU493
 1777 0008 0668     		ldr	r6, [r0]
 372:TOOL/cJSON.c  ****     {
 1778              		.loc 1 372 21 discriminator 1 view .LVU494
 1779 000a 36B3     		cbz	r6, .L144
 377:TOOL/cJSON.c  ****     {
 1780              		.loc 1 377 5 is_stmt 1 view .LVU495
 377:TOOL/cJSON.c  ****     {
 1781              		.loc 1 377 11 is_stmt 0 view .LVU496
 1782 000c 4268     		ldr	r2, [r0, #4]
 377:TOOL/cJSON.c  ****     {
 1783              		.loc 1 377 8 view .LVU497
 1784 000e 12B1     		cbz	r2, .L146
 377:TOOL/cJSON.c  ****     {
 1785              		.loc 1 377 30 discriminator 1 view .LVU498
 1786 0010 8068     		ldr	r0, [r0, #8]
 1787              	.LVL163:
 377:TOOL/cJSON.c  ****     {
 1788              		.loc 1 377 25 discriminator 1 view .LVU499
 1789 0012 8242     		cmp	r2, r0
 1790 0014 41D9     		bls	.L154
 1791              	.L146:
 383:TOOL/cJSON.c  ****     {
 1792              		.loc 1 383 5 is_stmt 1 view .LVU500
 383:TOOL/cJSON.c  ****     {
 1793              		.loc 1 383 8 is_stmt 0 view .LVU501
 1794 0016 0029     		cmp	r1, #0
 1795 0018 41DB     		blt	.L155
 389:TOOL/cJSON.c  ****     if (needed <= p->length)
 1796              		.loc 1 389 5 is_stmt 1 view .LVU502
 389:TOOL/cJSON.c  ****     if (needed <= p->length)
 1797              		.loc 1 389 16 is_stmt 0 view .LVU503
 1798 001a A068     		ldr	r0, [r4, #8]
 389:TOOL/cJSON.c  ****     if (needed <= p->length)
 1799              		.loc 1 389 12 view .LVU504
 1800 001c 0144     		add	r1, r1, r0
 1801              	.LVL164:
 389:TOOL/cJSON.c  ****     if (needed <= p->length)
 1802              		.loc 1 389 12 view .LVU505
 1803 001e 0131     		adds	r1, r1, #1
 1804              	.LVL165:
 390:TOOL/cJSON.c  ****     {
 1805              		.loc 1 390 5 is_stmt 1 view .LVU506
 390:TOOL/cJSON.c  ****     {
 1806              		.loc 1 390 8 is_stmt 0 view .LVU507
ARM GAS  /var/folders/ww/n4ctlbrs3x70633t9y2ks63c0000gn/T//ccTX1xk7.s 			page 69


 1807 0020 8A42     		cmp	r2, r1
 1808 0022 0AD2     		bcs	.L159
 395:TOOL/cJSON.c  ****         return NULL;
 1809              		.loc 1 395 5 is_stmt 1 view .LVU508
 395:TOOL/cJSON.c  ****         return NULL;
 1810              		.loc 1 395 10 is_stmt 0 view .LVU509
 1811 0024 2269     		ldr	r2, [r4, #16]
 395:TOOL/cJSON.c  ****         return NULL;
 1812              		.loc 1 395 8 view .LVU510
 1813 0026 002A     		cmp	r2, #0
 1814 0028 3BD1     		bne	.L156
 400:TOOL/cJSON.c  ****     {
 1815              		.loc 1 400 5 is_stmt 1 view .LVU511
 400:TOOL/cJSON.c  ****     {
 1816              		.loc 1 400 8 is_stmt 0 view .LVU512
 1817 002a B1F1804F 		cmp	r1, #1073741824
 1818 002e 08D3     		bcc	.L148
 403:TOOL/cJSON.c  ****         {
 1819              		.loc 1 403 9 is_stmt 1 view .LVU513
 403:TOOL/cJSON.c  ****         {
 1820              		.loc 1 403 12 is_stmt 0 view .LVU514
 1821 0030 0029     		cmp	r1, #0
 1822 0032 04DB     		blt	.L160
 405:TOOL/cJSON.c  ****         }
 1823              		.loc 1 405 21 view .LVU515
 1824 0034 6FF00045 		mvn	r5, #-2147483648
 1825 0038 04E0     		b	.L149
 1826              	.L159:
 392:TOOL/cJSON.c  ****     }
 1827              		.loc 1 392 9 is_stmt 1 view .LVU516
 392:TOOL/cJSON.c  ****     }
 1828              		.loc 1 392 26 is_stmt 0 view .LVU517
 1829 003a 0644     		add	r6, r6, r0
 1830 003c 0DE0     		b	.L144
 1831              	.L160:
 409:TOOL/cJSON.c  ****         }
 1832              		.loc 1 409 20 view .LVU518
 1833 003e 0026     		movs	r6, #0
 1834 0040 0BE0     		b	.L144
 1835              	.L148:
 414:TOOL/cJSON.c  ****     }
 1836              		.loc 1 414 9 is_stmt 1 view .LVU519
 414:TOOL/cJSON.c  ****     }
 1837              		.loc 1 414 17 is_stmt 0 view .LVU520
 1838 0042 4D00     		lsls	r5, r1, #1
 1839              	.LVL166:
 1840              	.L149:
 417:TOOL/cJSON.c  ****     {
 1841              		.loc 1 417 5 is_stmt 1 view .LVU521
 417:TOOL/cJSON.c  ****     {
 1842              		.loc 1 417 17 is_stmt 0 view .LVU522
 1843 0044 236A     		ldr	r3, [r4, #32]
 417:TOOL/cJSON.c  ****     {
 1844              		.loc 1 417 8 view .LVU523
 1845 0046 8BB1     		cbz	r3, .L150
 420:TOOL/cJSON.c  ****         if (newbuffer == NULL)
 1846              		.loc 1 420 9 is_stmt 1 view .LVU524
ARM GAS  /var/folders/ww/n4ctlbrs3x70633t9y2ks63c0000gn/T//ccTX1xk7.s 			page 70


 420:TOOL/cJSON.c  ****         if (newbuffer == NULL)
 1847              		.loc 1 420 37 is_stmt 0 view .LVU525
 1848 0048 2946     		mov	r1, r5
 1849              	.LVL167:
 420:TOOL/cJSON.c  ****         if (newbuffer == NULL)
 1850              		.loc 1 420 37 view .LVU526
 1851 004a 3046     		mov	r0, r6
 1852              	.LVL168:
 420:TOOL/cJSON.c  ****         if (newbuffer == NULL)
 1853              		.loc 1 420 37 view .LVU527
 1854 004c 9847     		blx	r3
 1855              	.LVL169:
 421:TOOL/cJSON.c  ****         {
 1856              		.loc 1 421 9 is_stmt 1 view .LVU528
 421:TOOL/cJSON.c  ****         {
 1857              		.loc 1 421 12 is_stmt 0 view .LVU529
 1858 004e 0646     		mov	r6, r0
 1859 0050 28B1     		cbz	r0, .L161
 1860              	.LVL170:
 1861              	.L151:
 448:TOOL/cJSON.c  ****     p->buffer = newbuffer;
 1862              		.loc 1 448 5 is_stmt 1 view .LVU530
 448:TOOL/cJSON.c  ****     p->buffer = newbuffer;
 1863              		.loc 1 448 15 is_stmt 0 view .LVU531
 1864 0052 6560     		str	r5, [r4, #4]
 449:TOOL/cJSON.c  **** 
 1865              		.loc 1 449 5 is_stmt 1 view .LVU532
 449:TOOL/cJSON.c  **** 
 1866              		.loc 1 449 15 is_stmt 0 view .LVU533
 1867 0054 2660     		str	r6, [r4]
 451:TOOL/cJSON.c  **** }
 1868              		.loc 1 451 5 is_stmt 1 view .LVU534
 451:TOOL/cJSON.c  **** }
 1869              		.loc 1 451 25 is_stmt 0 view .LVU535
 1870 0056 A368     		ldr	r3, [r4, #8]
 451:TOOL/cJSON.c  **** }
 1871              		.loc 1 451 22 view .LVU536
 1872 0058 1E44     		add	r6, r6, r3
 1873              	.LVL171:
 1874              	.L144:
 452:TOOL/cJSON.c  **** 
 1875              		.loc 1 452 1 view .LVU537
 1876 005a 3046     		mov	r0, r6
 1877 005c 70BD     		pop	{r4, r5, r6, pc}
 1878              	.LVL172:
 1879              	.L161:
 423:TOOL/cJSON.c  ****             p->length = 0;
 1880              		.loc 1 423 13 is_stmt 1 view .LVU538
 423:TOOL/cJSON.c  ****             p->length = 0;
 1881              		.loc 1 423 21 is_stmt 0 view .LVU539
 1882 005e E369     		ldr	r3, [r4, #28]
 423:TOOL/cJSON.c  ****             p->length = 0;
 1883              		.loc 1 423 13 view .LVU540
 1884 0060 2068     		ldr	r0, [r4]
 1885              	.LVL173:
 423:TOOL/cJSON.c  ****             p->length = 0;
 1886              		.loc 1 423 13 view .LVU541
ARM GAS  /var/folders/ww/n4ctlbrs3x70633t9y2ks63c0000gn/T//ccTX1xk7.s 			page 71


 1887 0062 9847     		blx	r3
 1888              	.LVL174:
 424:TOOL/cJSON.c  ****             p->buffer = NULL;
 1889              		.loc 1 424 13 is_stmt 1 view .LVU542
 424:TOOL/cJSON.c  ****             p->buffer = NULL;
 1890              		.loc 1 424 23 is_stmt 0 view .LVU543
 1891 0064 0023     		movs	r3, #0
 1892 0066 6360     		str	r3, [r4, #4]
 425:TOOL/cJSON.c  **** 
 1893              		.loc 1 425 13 is_stmt 1 view .LVU544
 425:TOOL/cJSON.c  **** 
 1894              		.loc 1 425 23 is_stmt 0 view .LVU545
 1895 0068 2360     		str	r3, [r4]
 427:TOOL/cJSON.c  ****         }
 1896              		.loc 1 427 13 is_stmt 1 view .LVU546
 427:TOOL/cJSON.c  ****         }
 1897              		.loc 1 427 20 is_stmt 0 view .LVU547
 1898 006a F6E7     		b	.L144
 1899              	.LVL175:
 1900              	.L150:
 433:TOOL/cJSON.c  ****         if (!newbuffer)
 1901              		.loc 1 433 9 is_stmt 1 view .LVU548
 433:TOOL/cJSON.c  ****         if (!newbuffer)
 1902              		.loc 1 433 45 is_stmt 0 view .LVU549
 1903 006c A369     		ldr	r3, [r4, #24]
 433:TOOL/cJSON.c  ****         if (!newbuffer)
 1904              		.loc 1 433 37 view .LVU550
 1905 006e 2846     		mov	r0, r5
 1906 0070 9847     		blx	r3
 1907              	.LVL176:
 434:TOOL/cJSON.c  ****         {
 1908              		.loc 1 434 9 is_stmt 1 view .LVU551
 434:TOOL/cJSON.c  ****         {
 1909              		.loc 1 434 12 is_stmt 0 view .LVU552
 1910 0072 0646     		mov	r6, r0
 1911 0074 40B1     		cbz	r0, .L162
 442:TOOL/cJSON.c  ****         {
 1912              		.loc 1 442 9 is_stmt 1 view .LVU553
 444:TOOL/cJSON.c  ****         }
 1913              		.loc 1 444 13 view .LVU554
 444:TOOL/cJSON.c  ****         }
 1914              		.loc 1 444 43 is_stmt 0 view .LVU555
 1915 0076 A268     		ldr	r2, [r4, #8]
 444:TOOL/cJSON.c  ****         }
 1916              		.loc 1 444 13 view .LVU556
 1917 0078 0132     		adds	r2, r2, #1
 1918 007a 2168     		ldr	r1, [r4]
 1919 007c FFF7FEFF 		bl	memcpy
 1920              	.LVL177:
 446:TOOL/cJSON.c  ****     }
 1921              		.loc 1 446 9 is_stmt 1 view .LVU557
 446:TOOL/cJSON.c  ****     }
 1922              		.loc 1 446 17 is_stmt 0 view .LVU558
 1923 0080 E369     		ldr	r3, [r4, #28]
 446:TOOL/cJSON.c  ****     }
 1924              		.loc 1 446 9 view .LVU559
 1925 0082 2068     		ldr	r0, [r4]
ARM GAS  /var/folders/ww/n4ctlbrs3x70633t9y2ks63c0000gn/T//ccTX1xk7.s 			page 72


 1926 0084 9847     		blx	r3
 1927              	.LVL178:
 1928 0086 E4E7     		b	.L151
 1929              	.LVL179:
 1930              	.L162:
 436:TOOL/cJSON.c  ****             p->length = 0;
 1931              		.loc 1 436 13 is_stmt 1 view .LVU560
 436:TOOL/cJSON.c  ****             p->length = 0;
 1932              		.loc 1 436 21 is_stmt 0 view .LVU561
 1933 0088 E369     		ldr	r3, [r4, #28]
 436:TOOL/cJSON.c  ****             p->length = 0;
 1934              		.loc 1 436 13 view .LVU562
 1935 008a 2068     		ldr	r0, [r4]
 1936              	.LVL180:
 436:TOOL/cJSON.c  ****             p->length = 0;
 1937              		.loc 1 436 13 view .LVU563
 1938 008c 9847     		blx	r3
 1939              	.LVL181:
 437:TOOL/cJSON.c  ****             p->buffer = NULL;
 1940              		.loc 1 437 13 is_stmt 1 view .LVU564
 437:TOOL/cJSON.c  ****             p->buffer = NULL;
 1941              		.loc 1 437 23 is_stmt 0 view .LVU565
 1942 008e 0023     		movs	r3, #0
 1943 0090 6360     		str	r3, [r4, #4]
 438:TOOL/cJSON.c  **** 
 1944              		.loc 1 438 13 is_stmt 1 view .LVU566
 438:TOOL/cJSON.c  **** 
 1945              		.loc 1 438 23 is_stmt 0 view .LVU567
 1946 0092 2360     		str	r3, [r4]
 440:TOOL/cJSON.c  ****         }
 1947              		.loc 1 440 13 is_stmt 1 view .LVU568
 440:TOOL/cJSON.c  ****         }
 1948              		.loc 1 440 20 is_stmt 0 view .LVU569
 1949 0094 E1E7     		b	.L144
 1950              	.LVL182:
 1951              	.L153:
 374:TOOL/cJSON.c  ****     }
 1952              		.loc 1 374 16 view .LVU570
 1953 0096 0646     		mov	r6, r0
 1954 0098 DFE7     		b	.L144
 1955              	.LVL183:
 1956              	.L154:
 380:TOOL/cJSON.c  ****     }
 1957              		.loc 1 380 16 view .LVU571
 1958 009a 0026     		movs	r6, #0
 1959 009c DDE7     		b	.L144
 1960              	.L155:
 386:TOOL/cJSON.c  ****     }
 1961              		.loc 1 386 16 view .LVU572
 1962 009e 0026     		movs	r6, #0
 1963 00a0 DBE7     		b	.L144
 1964              	.L156:
 396:TOOL/cJSON.c  ****     }
 1965              		.loc 1 396 16 view .LVU573
 1966 00a2 0026     		movs	r6, #0
 1967 00a4 D9E7     		b	.L144
 1968              		.cfi_endproc
ARM GAS  /var/folders/ww/n4ctlbrs3x70633t9y2ks63c0000gn/T//ccTX1xk7.s 			page 73


 1969              	.LFE81:
 1971              		.section	.text.cJSON_strdup,"ax",%progbits
 1972              		.align	1
 1973              		.syntax unified
 1974              		.thumb
 1975              		.thumb_func
 1976              		.fpu softvfp
 1978              	cJSON_strdup:
 1979              	.LVL184:
 1980              	.LFB74:
 144:TOOL/cJSON.c  ****     size_t length = 0;
 1981              		.loc 1 144 1 is_stmt 1 view -0
 1982              		.cfi_startproc
 1983              		@ args = 0, pretend = 0, frame = 0
 1984              		@ frame_needed = 0, uses_anonymous_args = 0
 144:TOOL/cJSON.c  ****     size_t length = 0;
 1985              		.loc 1 144 1 is_stmt 0 view .LVU575
 1986 0000 70B5     		push	{r4, r5, r6, lr}
 1987              	.LCFI22:
 1988              		.cfi_def_cfa_offset 16
 1989              		.cfi_offset 4, -16
 1990              		.cfi_offset 5, -12
 1991              		.cfi_offset 6, -8
 1992              		.cfi_offset 14, -4
 145:TOOL/cJSON.c  ****     unsigned char *copy = NULL;
 1993              		.loc 1 145 5 is_stmt 1 view .LVU576
 1994              	.LVL185:
 146:TOOL/cJSON.c  **** 
 1995              		.loc 1 146 5 view .LVU577
 148:TOOL/cJSON.c  ****     {
 1996              		.loc 1 148 5 view .LVU578
 148:TOOL/cJSON.c  ****     {
 1997              		.loc 1 148 8 is_stmt 0 view .LVU579
 1998 0002 0446     		mov	r4, r0
 1999 0004 70B1     		cbz	r0, .L165
 2000 0006 0D46     		mov	r5, r1
 153:TOOL/cJSON.c  ****     copy = (unsigned char*)hooks->allocate(length);
 2001              		.loc 1 153 5 is_stmt 1 view .LVU580
 153:TOOL/cJSON.c  ****     copy = (unsigned char*)hooks->allocate(length);
 2002              		.loc 1 153 14 is_stmt 0 view .LVU581
 2003 0008 FFF7FEFF 		bl	strlen
 2004              	.LVL186:
 153:TOOL/cJSON.c  ****     copy = (unsigned char*)hooks->allocate(length);
 2005              		.loc 1 153 12 view .LVU582
 2006 000c 461C     		adds	r6, r0, #1
 2007              	.LVL187:
 154:TOOL/cJSON.c  ****     if (copy == NULL)
 2008              		.loc 1 154 5 is_stmt 1 view .LVU583
 154:TOOL/cJSON.c  ****     if (copy == NULL)
 2009              		.loc 1 154 33 is_stmt 0 view .LVU584
 2010 000e 2B68     		ldr	r3, [r5]
 154:TOOL/cJSON.c  ****     if (copy == NULL)
 2011              		.loc 1 154 28 view .LVU585
 2012 0010 3046     		mov	r0, r6
 2013 0012 9847     		blx	r3
 2014              	.LVL188:
 155:TOOL/cJSON.c  ****     {
ARM GAS  /var/folders/ww/n4ctlbrs3x70633t9y2ks63c0000gn/T//ccTX1xk7.s 			page 74


 2015              		.loc 1 155 5 is_stmt 1 view .LVU586
 155:TOOL/cJSON.c  ****     {
 2016              		.loc 1 155 8 is_stmt 0 view .LVU587
 2017 0014 0546     		mov	r5, r0
 2018              	.LVL189:
 155:TOOL/cJSON.c  ****     {
 2019              		.loc 1 155 8 view .LVU588
 2020 0016 18B1     		cbz	r0, .L163
 159:TOOL/cJSON.c  **** 
 2021              		.loc 1 159 5 is_stmt 1 view .LVU589
 2022 0018 3246     		mov	r2, r6
 2023 001a 2146     		mov	r1, r4
 2024 001c FFF7FEFF 		bl	memcpy
 2025              	.LVL190:
 161:TOOL/cJSON.c  **** }
 2026              		.loc 1 161 5 view .LVU590
 2027              	.L163:
 162:TOOL/cJSON.c  **** 
 2028              		.loc 1 162 1 is_stmt 0 view .LVU591
 2029 0020 2846     		mov	r0, r5
 2030 0022 70BD     		pop	{r4, r5, r6, pc}
 2031              	.LVL191:
 2032              	.L165:
 150:TOOL/cJSON.c  ****     }
 2033              		.loc 1 150 16 view .LVU592
 2034 0024 0546     		mov	r5, r0
 2035 0026 FBE7     		b	.L163
 2036              		.cfi_endproc
 2037              	.LFE74:
 2039              		.section	.text.create_reference,"ax",%progbits
 2040              		.align	1
 2041              		.syntax unified
 2042              		.thumb
 2043              		.thumb_func
 2044              		.fpu softvfp
 2046              	create_reference:
 2047              	.LVL192:
 2048              	.LFB112:
1817:TOOL/cJSON.c  **** 
1818:TOOL/cJSON.c  **** /* Utility for handling references. */
1819:TOOL/cJSON.c  **** static cJSON *create_reference(const cJSON *item, const internal_hooks * const hooks)
1820:TOOL/cJSON.c  **** {
 2049              		.loc 1 1820 1 is_stmt 1 view -0
 2050              		.cfi_startproc
 2051              		@ args = 0, pretend = 0, frame = 0
 2052              		@ frame_needed = 0, uses_anonymous_args = 0
 2053              		.loc 1 1820 1 is_stmt 0 view .LVU594
 2054 0000 F8B5     		push	{r3, r4, r5, r6, r7, lr}
 2055              	.LCFI23:
 2056              		.cfi_def_cfa_offset 24
 2057              		.cfi_offset 3, -24
 2058              		.cfi_offset 4, -20
 2059              		.cfi_offset 5, -16
 2060              		.cfi_offset 6, -12
 2061              		.cfi_offset 7, -8
 2062              		.cfi_offset 14, -4
1821:TOOL/cJSON.c  ****     cJSON *reference = NULL;
ARM GAS  /var/folders/ww/n4ctlbrs3x70633t9y2ks63c0000gn/T//ccTX1xk7.s 			page 75


 2063              		.loc 1 1821 5 is_stmt 1 view .LVU595
 2064              	.LVL193:
1822:TOOL/cJSON.c  ****     if (item == NULL)
 2065              		.loc 1 1822 5 view .LVU596
 2066              		.loc 1 1822 8 is_stmt 0 view .LVU597
 2067 0002 0446     		mov	r4, r0
 2068 0004 08B3     		cbz	r0, .L170
 2069 0006 0846     		mov	r0, r1
 2070              	.LVL194:
1823:TOOL/cJSON.c  ****     {
1824:TOOL/cJSON.c  ****         return NULL;
1825:TOOL/cJSON.c  ****     }
1826:TOOL/cJSON.c  **** 
1827:TOOL/cJSON.c  ****     reference = cJSON_New_Item(hooks);
 2071              		.loc 1 1827 5 is_stmt 1 view .LVU598
 2072              		.loc 1 1827 17 is_stmt 0 view .LVU599
 2073 0008 FFF7FEFF 		bl	cJSON_New_Item
 2074              	.LVL195:
1828:TOOL/cJSON.c  ****     if (reference == NULL)
 2075              		.loc 1 1828 5 is_stmt 1 view .LVU600
 2076              		.loc 1 1828 8 is_stmt 0 view .LVU601
 2077 000c 0146     		mov	r1, r0
 2078 000e D0B1     		cbz	r0, .L167
1829:TOOL/cJSON.c  ****     {
1830:TOOL/cJSON.c  ****         return NULL;
1831:TOOL/cJSON.c  ****     }
1832:TOOL/cJSON.c  **** 
1833:TOOL/cJSON.c  ****     memcpy(reference, item, sizeof(cJSON));
 2079              		.loc 1 1833 5 is_stmt 1 view .LVU602
 2080 0010 2346     		mov	r3, r4
 2081 0012 0246     		mov	r2, r0
 2082 0014 2034     		adds	r4, r4, #32
 2083              	.LVL196:
 2084              	.L169:
 2085              		.loc 1 1833 5 is_stmt 0 view .LVU603
 2086 0016 1F68     		ldr	r7, [r3]	@ unaligned
 2087 0018 5E68     		ldr	r6, [r3, #4]	@ unaligned
 2088 001a 9D68     		ldr	r5, [r3, #8]	@ unaligned
 2089 001c D868     		ldr	r0, [r3, #12]	@ unaligned
 2090 001e 1760     		str	r7, [r2]	@ unaligned
 2091 0020 5660     		str	r6, [r2, #4]	@ unaligned
 2092 0022 9560     		str	r5, [r2, #8]	@ unaligned
 2093 0024 D060     		str	r0, [r2, #12]	@ unaligned
 2094 0026 1033     		adds	r3, r3, #16
 2095 0028 1032     		adds	r2, r2, #16
 2096 002a A342     		cmp	r3, r4
 2097 002c F3D1     		bne	.L169
 2098 002e 1868     		ldr	r0, [r3]	@ unaligned
 2099 0030 5B68     		ldr	r3, [r3, #4]	@ unaligned
 2100 0032 1060     		str	r0, [r2]	@ unaligned
 2101 0034 5360     		str	r3, [r2, #4]	@ unaligned
1834:TOOL/cJSON.c  ****     reference->string = NULL;
 2102              		.loc 1 1834 5 is_stmt 1 view .LVU604
 2103              		.loc 1 1834 23 is_stmt 0 view .LVU605
 2104 0036 0023     		movs	r3, #0
 2105 0038 0B62     		str	r3, [r1, #32]
1835:TOOL/cJSON.c  ****     reference->type |= cJSON_IsReference;
ARM GAS  /var/folders/ww/n4ctlbrs3x70633t9y2ks63c0000gn/T//ccTX1xk7.s 			page 76


 2106              		.loc 1 1835 5 is_stmt 1 view .LVU606
 2107              		.loc 1 1835 21 is_stmt 0 view .LVU607
 2108 003a CA68     		ldr	r2, [r1, #12]
 2109 003c 42F48072 		orr	r2, r2, #256
 2110 0040 CA60     		str	r2, [r1, #12]
1836:TOOL/cJSON.c  ****     reference->next = reference->prev = NULL;
 2111              		.loc 1 1836 5 is_stmt 1 view .LVU608
 2112              		.loc 1 1836 39 is_stmt 0 view .LVU609
 2113 0042 4B60     		str	r3, [r1, #4]
 2114              		.loc 1 1836 21 view .LVU610
 2115 0044 0B60     		str	r3, [r1]
1837:TOOL/cJSON.c  ****     return reference;
 2116              		.loc 1 1837 5 is_stmt 1 view .LVU611
 2117              	.LVL197:
 2118              	.L167:
1838:TOOL/cJSON.c  **** }
 2119              		.loc 1 1838 1 is_stmt 0 view .LVU612
 2120 0046 0846     		mov	r0, r1
 2121 0048 F8BD     		pop	{r3, r4, r5, r6, r7, pc}
 2122              	.LVL198:
 2123              	.L170:
1824:TOOL/cJSON.c  ****     }
 2124              		.loc 1 1824 16 view .LVU613
 2125 004a 0146     		mov	r1, r0
 2126              	.LVL199:
1824:TOOL/cJSON.c  ****     }
 2127              		.loc 1 1824 16 view .LVU614
 2128 004c FBE7     		b	.L167
 2129              		.cfi_endproc
 2130              	.LFE112:
 2132              		.section	.text.print_string_ptr,"ax",%progbits
 2133              		.align	1
 2134              		.syntax unified
 2135              		.thumb
 2136              		.thumb_func
 2137              		.fpu softvfp
 2139              	print_string_ptr:
 2140              	.LVL200:
 2141              	.LFB87:
 822:TOOL/cJSON.c  ****     const unsigned char *input_pointer = NULL;
 2142              		.loc 1 822 1 is_stmt 1 view -0
 2143              		.cfi_startproc
 2144              		@ args = 0, pretend = 0, frame = 0
 2145              		@ frame_needed = 0, uses_anonymous_args = 0
 823:TOOL/cJSON.c  ****     unsigned char *output = NULL;
 2146              		.loc 1 823 5 view .LVU616
 824:TOOL/cJSON.c  ****     unsigned char *output_pointer = NULL;
 2147              		.loc 1 824 5 view .LVU617
 825:TOOL/cJSON.c  ****     size_t output_length = 0;
 2148              		.loc 1 825 5 view .LVU618
 826:TOOL/cJSON.c  ****     /* numbers of additional characters needed for escaping */
 2149              		.loc 1 826 5 view .LVU619
 828:TOOL/cJSON.c  **** 
 2150              		.loc 1 828 5 view .LVU620
 830:TOOL/cJSON.c  ****     {
 2151              		.loc 1 830 5 view .LVU621
 830:TOOL/cJSON.c  ****     {
ARM GAS  /var/folders/ww/n4ctlbrs3x70633t9y2ks63c0000gn/T//ccTX1xk7.s 			page 77


 2152              		.loc 1 830 8 is_stmt 0 view .LVU622
 2153 0000 0029     		cmp	r1, #0
 2154 0002 00F08780 		beq	.L194
 822:TOOL/cJSON.c  ****     const unsigned char *input_pointer = NULL;
 2155              		.loc 1 822 1 view .LVU623
 2156 0006 F8B5     		push	{r3, r4, r5, r6, r7, lr}
 2157              	.LCFI24:
 2158              		.cfi_def_cfa_offset 24
 2159              		.cfi_offset 3, -24
 2160              		.cfi_offset 4, -20
 2161              		.cfi_offset 5, -16
 2162              		.cfi_offset 6, -12
 2163              		.cfi_offset 7, -8
 2164              		.cfi_offset 14, -4
 2165 0008 0546     		mov	r5, r0
 2166 000a 0846     		mov	r0, r1
 2167              	.LVL201:
 836:TOOL/cJSON.c  ****     {
 2168              		.loc 1 836 5 is_stmt 1 view .LVU624
 836:TOOL/cJSON.c  ****     {
 2169              		.loc 1 836 8 is_stmt 0 view .LVU625
 2170 000c 15B1     		cbz	r5, .L202
 849:TOOL/cJSON.c  ****     {
 2171              		.loc 1 849 24 view .LVU626
 2172 000e 2946     		mov	r1, r5
 2173              	.LVL202:
 828:TOOL/cJSON.c  **** 
 2174              		.loc 1 828 12 view .LVU627
 2175 0010 0026     		movs	r6, #0
 2176 0012 12E0     		b	.L174
 2177              	.L202:
 838:TOOL/cJSON.c  ****         if (output == NULL)
 2178              		.loc 1 838 9 is_stmt 1 view .LVU628
 838:TOOL/cJSON.c  ****         if (output == NULL)
 2179              		.loc 1 838 18 is_stmt 0 view .LVU629
 2180 0014 0321     		movs	r1, #3
 2181 0016 FFF7FEFF 		bl	ensure
 2182              	.LVL203:
 839:TOOL/cJSON.c  ****         {
 2183              		.loc 1 839 9 is_stmt 1 view .LVU630
 839:TOOL/cJSON.c  ****         {
 2184              		.loc 1 839 12 is_stmt 0 view .LVU631
 2185 001a 0346     		mov	r3, r0
 2186 001c 0028     		cmp	r0, #0
 2187 001e 7BD0     		beq	.L196
 843:TOOL/cJSON.c  **** 
 2188              		.loc 1 843 9 is_stmt 1 view .LVU632
 2189 0020 3F4A     		ldr	r2, .L208
 2190 0022 1188     		ldrh	r1, [r2]	@ unaligned
 2191 0024 9278     		ldrb	r2, [r2, #2]	@ zero_extendqisi2
 2192 0026 1980     		strh	r1, [r3]	@ unaligned
 2193 0028 9A70     		strb	r2, [r3, #2]
 845:TOOL/cJSON.c  ****     }
 2194              		.loc 1 845 9 view .LVU633
 845:TOOL/cJSON.c  ****     }
 2195              		.loc 1 845 16 is_stmt 0 view .LVU634
 2196 002a 0120     		movs	r0, #1
ARM GAS  /var/folders/ww/n4ctlbrs3x70633t9y2ks63c0000gn/T//ccTX1xk7.s 			page 78


 2197              	.LVL204:
 845:TOOL/cJSON.c  ****     }
 2198              		.loc 1 845 16 view .LVU635
 2199 002c 71E0     		b	.L172
 2200              	.LVL205:
 2201              	.L175:
 851:TOOL/cJSON.c  ****         {
 2202              		.loc 1 851 9 view .LVU636
 2203 002e 222B     		cmp	r3, #34
 2204 0030 01D0     		beq	.L176
 2205 0032 5C2B     		cmp	r3, #92
 2206 0034 0CD1     		bne	.L177
 2207              	.L176:
 861:TOOL/cJSON.c  ****                 break;
 2208              		.loc 1 861 17 is_stmt 1 view .LVU637
 861:TOOL/cJSON.c  ****                 break;
 2209              		.loc 1 861 34 is_stmt 0 view .LVU638
 2210 0036 0136     		adds	r6, r6, #1
 2211              	.LVL206:
 862:TOOL/cJSON.c  ****             default:
 2212              		.loc 1 862 17 is_stmt 1 view .LVU639
 2213              	.L178:
 849:TOOL/cJSON.c  ****     {
 2214              		.loc 1 849 62 is_stmt 0 discriminator 2 view .LVU640
 2215 0038 0131     		adds	r1, r1, #1
 2216              	.LVL207:
 2217              	.L174:
 849:TOOL/cJSON.c  ****     {
 2218              		.loc 1 849 33 discriminator 1 view .LVU641
 2219 003a 0B78     		ldrb	r3, [r1]	@ zero_extendqisi2
 849:TOOL/cJSON.c  ****     {
 2220              		.loc 1 849 5 discriminator 1 view .LVU642
 2221 003c 63B1     		cbz	r3, .L203
 851:TOOL/cJSON.c  ****         {
 2222              		.loc 1 851 9 is_stmt 1 view .LVU643
 2223 003e 0D2B     		cmp	r3, #13
 2224 0040 F5D8     		bhi	.L175
 2225 0042 0C2B     		cmp	r3, #12
 2226 0044 F7D2     		bcs	.L176
 2227 0046 A3F10802 		sub	r2, r3, #8
 2228 004a D2B2     		uxtb	r2, r2
 2229 004c 022A     		cmp	r2, #2
 2230 004e F2D9     		bls	.L176
 2231              	.L177:
 864:TOOL/cJSON.c  ****                 {
 2232              		.loc 1 864 17 view .LVU644
 864:TOOL/cJSON.c  ****                 {
 2233              		.loc 1 864 20 is_stmt 0 view .LVU645
 2234 0050 1F2B     		cmp	r3, #31
 2235 0052 F1D8     		bhi	.L178
 867:TOOL/cJSON.c  ****                 }
 2236              		.loc 1 867 21 is_stmt 1 view .LVU646
 867:TOOL/cJSON.c  ****                 }
 2237              		.loc 1 867 39 is_stmt 0 view .LVU647
 2238 0054 0536     		adds	r6, r6, #5
 2239              	.LVL208:
 867:TOOL/cJSON.c  ****                 }
ARM GAS  /var/folders/ww/n4ctlbrs3x70633t9y2ks63c0000gn/T//ccTX1xk7.s 			page 79


 2240              		.loc 1 867 39 view .LVU648
 2241 0056 EFE7     		b	.L178
 2242              	.L203:
 872:TOOL/cJSON.c  **** 
 2243              		.loc 1 872 5 is_stmt 1 view .LVU649
 872:TOOL/cJSON.c  **** 
 2244              		.loc 1 872 44 is_stmt 0 view .LVU650
 2245 0058 491B     		subs	r1, r1, r5
 2246              	.LVL209:
 872:TOOL/cJSON.c  **** 
 2247              		.loc 1 872 19 view .LVU651
 2248 005a 8C19     		adds	r4, r1, r6
 2249              	.LVL210:
 874:TOOL/cJSON.c  ****     if (output == NULL)
 2250              		.loc 1 874 5 is_stmt 1 view .LVU652
 874:TOOL/cJSON.c  ****     if (output == NULL)
 2251              		.loc 1 874 14 is_stmt 0 view .LVU653
 2252 005c E11C     		adds	r1, r4, #3
 2253 005e FFF7FEFF 		bl	ensure
 2254              	.LVL211:
 875:TOOL/cJSON.c  ****     {
 2255              		.loc 1 875 5 is_stmt 1 view .LVU654
 875:TOOL/cJSON.c  ****     {
 2256              		.loc 1 875 8 is_stmt 0 view .LVU655
 2257 0062 0746     		mov	r7, r0
 2258 0064 0028     		cmp	r0, #0
 2259 0066 59D0     		beq	.L197
 881:TOOL/cJSON.c  ****     {
 2260              		.loc 1 881 5 is_stmt 1 view .LVU656
 881:TOOL/cJSON.c  ****     {
 2261              		.loc 1 881 8 is_stmt 0 view .LVU657
 2262 0068 26B1     		cbz	r6, .L204
 891:TOOL/cJSON.c  ****     output_pointer = output + 1;
 2263              		.loc 1 891 5 is_stmt 1 view .LVU658
 891:TOOL/cJSON.c  ****     output_pointer = output + 1;
 2264              		.loc 1 891 15 is_stmt 0 view .LVU659
 2265 006a 0646     		mov	r6, r0
 2266              	.LVL212:
 891:TOOL/cJSON.c  ****     output_pointer = output + 1;
 2267              		.loc 1 891 15 view .LVU660
 2268 006c 2223     		movs	r3, #34
 2269 006e 06F8013B 		strb	r3, [r6], #1
 892:TOOL/cJSON.c  ****     /* copy the string */
 2270              		.loc 1 892 5 is_stmt 1 view .LVU661
 2271              	.LVL213:
 894:TOOL/cJSON.c  ****     {
 2272              		.loc 1 894 5 view .LVU662
 894:TOOL/cJSON.c  ****     {
 2273              		.loc 1 894 5 is_stmt 0 view .LVU663
 2274 0072 11E0     		b	.L181
 2275              	.LVL214:
 2276              	.L204:
 883:TOOL/cJSON.c  ****         memcpy(output + 1, input, output_length);
 2277              		.loc 1 883 9 is_stmt 1 view .LVU664
 883:TOOL/cJSON.c  ****         memcpy(output + 1, input, output_length);
 2278              		.loc 1 883 19 is_stmt 0 view .LVU665
 2279 0074 2226     		movs	r6, #34
ARM GAS  /var/folders/ww/n4ctlbrs3x70633t9y2ks63c0000gn/T//ccTX1xk7.s 			page 80


 2280              	.LVL215:
 883:TOOL/cJSON.c  ****         memcpy(output + 1, input, output_length);
 2281              		.loc 1 883 19 view .LVU666
 2282 0076 00F8016B 		strb	r6, [r0], #1
 2283              	.LVL216:
 884:TOOL/cJSON.c  ****         output[output_length + 1] = '\"';
 2284              		.loc 1 884 9 is_stmt 1 view .LVU667
 2285 007a 2246     		mov	r2, r4
 2286 007c 2946     		mov	r1, r5
 2287 007e FFF7FEFF 		bl	memcpy
 2288              	.LVL217:
 885:TOOL/cJSON.c  ****         output[output_length + 2] = '\0';
 2289              		.loc 1 885 9 view .LVU668
 885:TOOL/cJSON.c  ****         output[output_length + 2] = '\0';
 2290              		.loc 1 885 15 is_stmt 0 view .LVU669
 2291 0082 631C     		adds	r3, r4, #1
 885:TOOL/cJSON.c  ****         output[output_length + 2] = '\0';
 2292              		.loc 1 885 35 view .LVU670
 2293 0084 FE54     		strb	r6, [r7, r3]
 886:TOOL/cJSON.c  **** 
 2294              		.loc 1 886 9 is_stmt 1 view .LVU671
 886:TOOL/cJSON.c  **** 
 2295              		.loc 1 886 15 is_stmt 0 view .LVU672
 2296 0086 0234     		adds	r4, r4, #2
 2297              	.LVL218:
 886:TOOL/cJSON.c  **** 
 2298              		.loc 1 886 35 view .LVU673
 2299 0088 0023     		movs	r3, #0
 2300 008a 3B55     		strb	r3, [r7, r4]
 888:TOOL/cJSON.c  ****     }
 2301              		.loc 1 888 9 is_stmt 1 view .LVU674
 888:TOOL/cJSON.c  ****     }
 2302              		.loc 1 888 16 is_stmt 0 view .LVU675
 2303 008c 0120     		movs	r0, #1
 2304 008e 40E0     		b	.L172
 2305              	.LVL219:
 2306              	.L206:
 899:TOOL/cJSON.c  ****         }
 2307              		.loc 1 899 13 is_stmt 1 view .LVU676
 899:TOOL/cJSON.c  ****         }
 2308              		.loc 1 899 29 is_stmt 0 view .LVU677
 2309 0090 3370     		strb	r3, [r6]
 2310 0092 3046     		mov	r0, r6
 2311              	.LVL220:
 2312              	.L183:
 894:TOOL/cJSON.c  ****     {
 2313              		.loc 1 894 57 discriminator 2 view .LVU678
 2314 0094 0135     		adds	r5, r5, #1
 2315              	.LVL221:
 894:TOOL/cJSON.c  ****     {
 2316              		.loc 1 894 94 discriminator 2 view .LVU679
 2317 0096 461C     		adds	r6, r0, #1
 2318              	.LVL222:
 2319              	.L181:
 894:TOOL/cJSON.c  ****     {
 2320              		.loc 1 894 33 discriminator 1 view .LVU680
 2321 0098 2B78     		ldrb	r3, [r5]	@ zero_extendqisi2
ARM GAS  /var/folders/ww/n4ctlbrs3x70633t9y2ks63c0000gn/T//ccTX1xk7.s 			page 81


 894:TOOL/cJSON.c  ****     {
 2322              		.loc 1 894 5 discriminator 1 view .LVU681
 2323 009a 9BB3     		cbz	r3, .L205
 896:TOOL/cJSON.c  ****         {
 2324              		.loc 1 896 9 is_stmt 1 view .LVU682
 896:TOOL/cJSON.c  ****         {
 2325              		.loc 1 896 12 is_stmt 0 view .LVU683
 2326 009c 1F2B     		cmp	r3, #31
 2327 009e 03D9     		bls	.L182
 896:TOOL/cJSON.c  ****         {
 2328              		.loc 1 896 35 discriminator 1 view .LVU684
 2329 00a0 222B     		cmp	r3, #34
 2330 00a2 01D0     		beq	.L182
 896:TOOL/cJSON.c  ****         {
 2331              		.loc 1 896 63 discriminator 2 view .LVU685
 2332 00a4 5C2B     		cmp	r3, #92
 2333 00a6 F3D1     		bne	.L206
 2334              	.L182:
 904:TOOL/cJSON.c  ****             switch (*input_pointer)
 2335              		.loc 1 904 13 is_stmt 1 view .LVU686
 904:TOOL/cJSON.c  ****             switch (*input_pointer)
 2336              		.loc 1 904 28 is_stmt 0 view .LVU687
 2337 00a8 3046     		mov	r0, r6
 2338              	.LVL223:
 904:TOOL/cJSON.c  ****             switch (*input_pointer)
 2339              		.loc 1 904 31 view .LVU688
 2340 00aa 5C23     		movs	r3, #92
 2341 00ac 00F8013B 		strb	r3, [r0], #1
 2342              	.LVL224:
 905:TOOL/cJSON.c  ****             {
 2343              		.loc 1 905 13 is_stmt 1 view .LVU689
 905:TOOL/cJSON.c  ****             {
 2344              		.loc 1 905 21 is_stmt 0 view .LVU690
 2345 00b0 2A78     		ldrb	r2, [r5]	@ zero_extendqisi2
 905:TOOL/cJSON.c  ****             {
 2346              		.loc 1 905 13 view .LVU691
 2347 00b2 0C2A     		cmp	r2, #12
 2348 00b4 1DD0     		beq	.L184
 2349 00b6 0AD8     		bhi	.L185
 2350 00b8 092A     		cmp	r2, #9
 2351 00ba 20D0     		beq	.L186
 2352 00bc 0A2A     		cmp	r2, #10
 2353 00be 1BD0     		beq	.L187
 2354 00c0 082A     		cmp	r2, #8
 2355 00c2 13D0     		beq	.L207
 2356              	.L189:
 930:TOOL/cJSON.c  ****                     output_pointer += 4;
 2357              		.loc 1 930 21 is_stmt 1 view .LVU692
 2358 00c4 1749     		ldr	r1, .L208+4
 2359 00c6 FFF7FEFF 		bl	sprintf
 2360              	.LVL225:
 931:TOOL/cJSON.c  ****                     break;
 2361              		.loc 1 931 21 view .LVU693
 931:TOOL/cJSON.c  ****                     break;
 2362              		.loc 1 931 36 is_stmt 0 view .LVU694
 2363 00ca 701D     		adds	r0, r6, #5
 2364              	.LVL226:
ARM GAS  /var/folders/ww/n4ctlbrs3x70633t9y2ks63c0000gn/T//ccTX1xk7.s 			page 82


 932:TOOL/cJSON.c  ****             }
 2365              		.loc 1 932 21 is_stmt 1 view .LVU695
 2366 00cc E2E7     		b	.L183
 2367              	.LVL227:
 2368              	.L185:
 905:TOOL/cJSON.c  ****             {
 2369              		.loc 1 905 13 is_stmt 0 view .LVU696
 2370 00ce 222A     		cmp	r2, #34
 2371 00d0 09D0     		beq	.L190
 2372 00d2 5C2A     		cmp	r2, #92
 2373 00d4 04D0     		beq	.L191
 2374 00d6 0D2A     		cmp	r2, #13
 2375 00d8 F4D1     		bne	.L189
 923:TOOL/cJSON.c  ****                     break;
 2376              		.loc 1 923 21 is_stmt 1 view .LVU697
 923:TOOL/cJSON.c  ****                     break;
 2377              		.loc 1 923 37 is_stmt 0 view .LVU698
 2378 00da 7223     		movs	r3, #114
 2379 00dc 7370     		strb	r3, [r6, #1]
 924:TOOL/cJSON.c  ****                 case '\t':
 2380              		.loc 1 924 21 is_stmt 1 view .LVU699
 2381 00de D9E7     		b	.L183
 2382              	.L191:
 908:TOOL/cJSON.c  ****                     break;
 2383              		.loc 1 908 21 view .LVU700
 908:TOOL/cJSON.c  ****                     break;
 2384              		.loc 1 908 37 is_stmt 0 view .LVU701
 2385 00e0 5C23     		movs	r3, #92
 2386 00e2 7370     		strb	r3, [r6, #1]
 909:TOOL/cJSON.c  ****                 case '\"':
 2387              		.loc 1 909 21 is_stmt 1 view .LVU702
 2388 00e4 D6E7     		b	.L183
 2389              	.L190:
 911:TOOL/cJSON.c  ****                     break;
 2390              		.loc 1 911 21 view .LVU703
 911:TOOL/cJSON.c  ****                     break;
 2391              		.loc 1 911 37 is_stmt 0 view .LVU704
 2392 00e6 2223     		movs	r3, #34
 2393 00e8 7370     		strb	r3, [r6, #1]
 912:TOOL/cJSON.c  ****                 case '\b':
 2394              		.loc 1 912 21 is_stmt 1 view .LVU705
 2395 00ea D3E7     		b	.L183
 2396              	.L207:
 914:TOOL/cJSON.c  ****                     break;
 2397              		.loc 1 914 21 view .LVU706
 914:TOOL/cJSON.c  ****                     break;
 2398              		.loc 1 914 37 is_stmt 0 view .LVU707
 2399 00ec 6223     		movs	r3, #98
 2400 00ee 7370     		strb	r3, [r6, #1]
 915:TOOL/cJSON.c  ****                 case '\f':
 2401              		.loc 1 915 21 is_stmt 1 view .LVU708
 2402 00f0 D0E7     		b	.L183
 2403              	.L184:
 917:TOOL/cJSON.c  ****                     break;
 2404              		.loc 1 917 21 view .LVU709
 917:TOOL/cJSON.c  ****                     break;
 2405              		.loc 1 917 37 is_stmt 0 view .LVU710
ARM GAS  /var/folders/ww/n4ctlbrs3x70633t9y2ks63c0000gn/T//ccTX1xk7.s 			page 83


 2406 00f2 6623     		movs	r3, #102
 2407 00f4 7370     		strb	r3, [r6, #1]
 918:TOOL/cJSON.c  ****                 case '\n':
 2408              		.loc 1 918 21 is_stmt 1 view .LVU711
 2409 00f6 CDE7     		b	.L183
 2410              	.L187:
 920:TOOL/cJSON.c  ****                     break;
 2411              		.loc 1 920 21 view .LVU712
 920:TOOL/cJSON.c  ****                     break;
 2412              		.loc 1 920 37 is_stmt 0 view .LVU713
 2413 00f8 6E23     		movs	r3, #110
 2414 00fa 7370     		strb	r3, [r6, #1]
 921:TOOL/cJSON.c  ****                 case '\r':
 2415              		.loc 1 921 21 is_stmt 1 view .LVU714
 2416 00fc CAE7     		b	.L183
 2417              	.L186:
 926:TOOL/cJSON.c  ****                     break;
 2418              		.loc 1 926 21 view .LVU715
 926:TOOL/cJSON.c  ****                     break;
 2419              		.loc 1 926 37 is_stmt 0 view .LVU716
 2420 00fe 7423     		movs	r3, #116
 2421 0100 7370     		strb	r3, [r6, #1]
 927:TOOL/cJSON.c  ****                 default:
 2422              		.loc 1 927 21 is_stmt 1 view .LVU717
 2423 0102 C7E7     		b	.L183
 2424              	.L205:
 936:TOOL/cJSON.c  ****     output[output_length + 2] = '\0';
 2425              		.loc 1 936 5 view .LVU718
 936:TOOL/cJSON.c  ****     output[output_length + 2] = '\0';
 2426              		.loc 1 936 11 is_stmt 0 view .LVU719
 2427 0104 631C     		adds	r3, r4, #1
 936:TOOL/cJSON.c  ****     output[output_length + 2] = '\0';
 2428              		.loc 1 936 31 view .LVU720
 2429 0106 2222     		movs	r2, #34
 2430 0108 FA54     		strb	r2, [r7, r3]
 937:TOOL/cJSON.c  **** 
 2431              		.loc 1 937 5 is_stmt 1 view .LVU721
 937:TOOL/cJSON.c  **** 
 2432              		.loc 1 937 11 is_stmt 0 view .LVU722
 2433 010a 0234     		adds	r4, r4, #2
 2434              	.LVL228:
 937:TOOL/cJSON.c  **** 
 2435              		.loc 1 937 31 view .LVU723
 2436 010c 0023     		movs	r3, #0
 2437 010e 3B55     		strb	r3, [r7, r4]
 939:TOOL/cJSON.c  **** }
 2438              		.loc 1 939 5 is_stmt 1 view .LVU724
 939:TOOL/cJSON.c  **** }
 2439              		.loc 1 939 12 is_stmt 0 view .LVU725
 2440 0110 0120     		movs	r0, #1
 2441              	.LVL229:
 2442              	.L172:
 940:TOOL/cJSON.c  **** 
 2443              		.loc 1 940 1 view .LVU726
 2444 0112 F8BD     		pop	{r3, r4, r5, r6, r7, pc}
 2445              	.LVL230:
 2446              	.L194:
ARM GAS  /var/folders/ww/n4ctlbrs3x70633t9y2ks63c0000gn/T//ccTX1xk7.s 			page 84


 2447              	.LCFI25:
 2448              		.cfi_def_cfa_offset 0
 2449              		.cfi_restore 3
 2450              		.cfi_restore 4
 2451              		.cfi_restore 5
 2452              		.cfi_restore 6
 2453              		.cfi_restore 7
 2454              		.cfi_restore 14
 832:TOOL/cJSON.c  ****     }
 2455              		.loc 1 832 16 view .LVU727
 2456 0114 0020     		movs	r0, #0
 2457              	.LVL231:
 940:TOOL/cJSON.c  **** 
 2458              		.loc 1 940 1 view .LVU728
 2459 0116 7047     		bx	lr
 2460              	.LVL232:
 2461              	.L196:
 2462              	.LCFI26:
 2463              		.cfi_def_cfa_offset 24
 2464              		.cfi_offset 3, -24
 2465              		.cfi_offset 4, -20
 2466              		.cfi_offset 5, -16
 2467              		.cfi_offset 6, -12
 2468              		.cfi_offset 7, -8
 2469              		.cfi_offset 14, -4
 841:TOOL/cJSON.c  ****         }
 2470              		.loc 1 841 20 view .LVU729
 2471 0118 0020     		movs	r0, #0
 2472              	.LVL233:
 841:TOOL/cJSON.c  ****         }
 2473              		.loc 1 841 20 view .LVU730
 2474 011a FAE7     		b	.L172
 2475              	.LVL234:
 2476              	.L197:
 877:TOOL/cJSON.c  ****     }
 2477              		.loc 1 877 16 view .LVU731
 2478 011c 0020     		movs	r0, #0
 2479              	.LVL235:
 877:TOOL/cJSON.c  ****     }
 2480              		.loc 1 877 16 view .LVU732
 2481 011e F8E7     		b	.L172
 2482              	.L209:
 2483              		.align	2
 2484              	.L208:
 2485 0120 00000000 		.word	.LC1
 2486 0124 04000000 		.word	.LC2
 2487              		.cfi_endproc
 2488              	.LFE87:
 2490              		.section	.text.print_string,"ax",%progbits
 2491              		.align	1
 2492              		.syntax unified
 2493              		.thumb
 2494              		.thumb_func
 2495              		.fpu softvfp
 2497              	print_string:
 2498              	.LVL236:
 2499              	.LFB88:
ARM GAS  /var/folders/ww/n4ctlbrs3x70633t9y2ks63c0000gn/T//ccTX1xk7.s 			page 85


 944:TOOL/cJSON.c  ****     return print_string_ptr((unsigned char*)item->valuestring, p);
 2500              		.loc 1 944 1 is_stmt 1 view -0
 2501              		.cfi_startproc
 2502              		@ args = 0, pretend = 0, frame = 0
 2503              		@ frame_needed = 0, uses_anonymous_args = 0
 944:TOOL/cJSON.c  ****     return print_string_ptr((unsigned char*)item->valuestring, p);
 2504              		.loc 1 944 1 is_stmt 0 view .LVU734
 2505 0000 08B5     		push	{r3, lr}
 2506              	.LCFI27:
 2507              		.cfi_def_cfa_offset 8
 2508              		.cfi_offset 3, -8
 2509              		.cfi_offset 14, -4
 945:TOOL/cJSON.c  **** }
 2510              		.loc 1 945 5 is_stmt 1 view .LVU735
 945:TOOL/cJSON.c  **** }
 2511              		.loc 1 945 12 is_stmt 0 view .LVU736
 2512 0002 0069     		ldr	r0, [r0, #16]
 2513              	.LVL237:
 945:TOOL/cJSON.c  **** }
 2514              		.loc 1 945 12 view .LVU737
 2515 0004 FFF7FEFF 		bl	print_string_ptr
 2516              	.LVL238:
 946:TOOL/cJSON.c  **** 
 2517              		.loc 1 946 1 view .LVU738
 2518 0008 08BD     		pop	{r3, pc}
 2519              		.cfi_endproc
 2520              	.LFE88:
 2522              		.global	__aeabi_dmul
 2523              		.global	__aeabi_dcmpeq
 2524              		.section	.text.print_number,"ax",%progbits
 2525              		.align	1
 2526              		.syntax unified
 2527              		.thumb
 2528              		.thumb_func
 2529              		.fpu softvfp
 2531              	print_number:
 2532              	.LVL239:
 2533              	.LFB83:
 469:TOOL/cJSON.c  ****     unsigned char *output_pointer = NULL;
 2534              		.loc 1 469 1 is_stmt 1 view -0
 2535              		.cfi_startproc
 2536              		@ args = 0, pretend = 0, frame = 40
 2537              		@ frame_needed = 0, uses_anonymous_args = 0
 469:TOOL/cJSON.c  ****     unsigned char *output_pointer = NULL;
 2538              		.loc 1 469 1 is_stmt 0 view .LVU740
 2539 0000 2DE9F043 		push	{r4, r5, r6, r7, r8, r9, lr}
 2540              	.LCFI28:
 2541              		.cfi_def_cfa_offset 28
 2542              		.cfi_offset 4, -28
 2543              		.cfi_offset 5, -24
 2544              		.cfi_offset 6, -20
 2545              		.cfi_offset 7, -16
 2546              		.cfi_offset 8, -12
 2547              		.cfi_offset 9, -8
 2548              		.cfi_offset 14, -4
 2549 0004 8BB0     		sub	sp, sp, #44
 2550              	.LCFI29:
ARM GAS  /var/folders/ww/n4ctlbrs3x70633t9y2ks63c0000gn/T//ccTX1xk7.s 			page 86


 2551              		.cfi_def_cfa_offset 72
 2552 0006 0F46     		mov	r7, r1
 470:TOOL/cJSON.c  ****     double d = item->valuedouble;
 2553              		.loc 1 470 5 is_stmt 1 view .LVU741
 2554              	.LVL240:
 471:TOOL/cJSON.c  ****     int length = 0;
 2555              		.loc 1 471 5 view .LVU742
 471:TOOL/cJSON.c  ****     int length = 0;
 2556              		.loc 1 471 12 is_stmt 0 view .LVU743
 2557 0008 D0E90689 		ldrd	r8, [r0, #24]
 2558              	.LVL241:
 472:TOOL/cJSON.c  ****     size_t i = 0;
 2559              		.loc 1 472 5 is_stmt 1 view .LVU744
 473:TOOL/cJSON.c  ****     unsigned char number_buffer[26]; /* temporary buffer to print the number into */
 2560              		.loc 1 473 5 view .LVU745
 474:TOOL/cJSON.c  ****     unsigned char decimal_point = get_decimal_point();
 2561              		.loc 1 474 5 view .LVU746
 475:TOOL/cJSON.c  ****     double test;
 2562              		.loc 1 475 5 view .LVU747
 475:TOOL/cJSON.c  ****     double test;
 2563              		.loc 1 475 35 is_stmt 0 view .LVU748
 2564 000c FFF7FEFF 		bl	get_decimal_point
 2565              	.LVL242:
 476:TOOL/cJSON.c  **** 
 2566              		.loc 1 476 5 is_stmt 1 view .LVU749
 478:TOOL/cJSON.c  ****     {
 2567              		.loc 1 478 5 view .LVU750
 478:TOOL/cJSON.c  ****     {
 2568              		.loc 1 478 8 is_stmt 0 view .LVU751
 2569 0010 002F     		cmp	r7, #0
 2570 0012 53D0     		beq	.L223
 2571 0014 0546     		mov	r5, r0
 484:TOOL/cJSON.c  ****     {
 2572              		.loc 1 484 5 is_stmt 1 view .LVU752
 484:TOOL/cJSON.c  ****     {
 2573              		.loc 1 484 12 is_stmt 0 view .LVU753
 2574 0016 0022     		movs	r2, #0
 2575 0018 0023     		movs	r3, #0
 2576 001a 4046     		mov	r0, r8
 2577              	.LVL243:
 484:TOOL/cJSON.c  ****     {
 2578              		.loc 1 484 12 view .LVU754
 2579 001c 4946     		mov	r1, r9
 2580 001e FFF7FEFF 		bl	__aeabi_dmul
 2581              	.LVL244:
 484:TOOL/cJSON.c  ****     {
 2582              		.loc 1 484 8 view .LVU755
 2583 0022 0022     		movs	r2, #0
 2584 0024 0023     		movs	r3, #0
 2585 0026 FFF7FEFF 		bl	__aeabi_dcmpeq
 2586              	.LVL245:
 2587 002a 68B9     		cbnz	r0, .L227
 486:TOOL/cJSON.c  ****     }
 2588              		.loc 1 486 9 is_stmt 1 view .LVU756
 486:TOOL/cJSON.c  ****     }
 2589              		.loc 1 486 18 is_stmt 0 view .LVU757
 2590 002c 254B     		ldr	r3, .L232
ARM GAS  /var/folders/ww/n4ctlbrs3x70633t9y2ks63c0000gn/T//ccTX1xk7.s 			page 87


 2591 002e 93E80300 		ldm	r3, {r0, r1}
 2592 0032 0390     		str	r0, [sp, #12]
 2593 0034 8DF81010 		strb	r1, [sp, #16]
 2594              	.LVL246:
 486:TOOL/cJSON.c  ****     }
 2595              		.loc 1 486 18 view .LVU758
 2596 0038 0426     		movs	r6, #4
 2597              	.LVL247:
 2598              	.L216:
 502:TOOL/cJSON.c  ****     {
 2599              		.loc 1 502 5 is_stmt 1 view .LVU759
 502:TOOL/cJSON.c  ****     {
 2600              		.loc 1 502 22 is_stmt 0 view .LVU760
 2601 003a 3446     		mov	r4, r6
 502:TOOL/cJSON.c  ****     {
 2602              		.loc 1 502 8 view .LVU761
 2603 003c 192E     		cmp	r6, #25
 2604 003e 21D9     		bls	.L229
 504:TOOL/cJSON.c  ****     }
 2605              		.loc 1 504 16 view .LVU762
 2606 0040 0020     		movs	r0, #0
 2607              	.LVL248:
 2608              	.L212:
 531:TOOL/cJSON.c  **** 
 2609              		.loc 1 531 1 view .LVU763
 2610 0042 0BB0     		add	sp, sp, #44
 2611              	.LCFI30:
 2612              		.cfi_remember_state
 2613              		.cfi_def_cfa_offset 28
 2614              		@ sp needed
 2615 0044 BDE8F083 		pop	{r4, r5, r6, r7, r8, r9, pc}
 2616              	.LVL249:
 2617              	.L227:
 2618              	.LCFI31:
 2619              		.cfi_restore_state
 491:TOOL/cJSON.c  **** 
 2620              		.loc 1 491 9 is_stmt 1 view .LVU764
 491:TOOL/cJSON.c  **** 
 2621              		.loc 1 491 18 is_stmt 0 view .LVU765
 2622 0048 4246     		mov	r2, r8
 2623 004a 4B46     		mov	r3, r9
 2624 004c 1E49     		ldr	r1, .L232+4
 2625 004e 03A8     		add	r0, sp, #12
 2626 0050 FFF7FEFF 		bl	sprintf
 2627              	.LVL250:
 2628 0054 0646     		mov	r6, r0
 2629              	.LVL251:
 494:TOOL/cJSON.c  ****         {
 2630              		.loc 1 494 9 is_stmt 1 view .LVU766
 494:TOOL/cJSON.c  ****         {
 2631              		.loc 1 494 14 is_stmt 0 view .LVU767
 2632 0056 6A46     		mov	r2, sp
 2633 0058 1C49     		ldr	r1, .L232+8
 2634 005a 03A8     		add	r0, sp, #12
 2635              	.LVL252:
 494:TOOL/cJSON.c  ****         {
 2636              		.loc 1 494 14 view .LVU768
ARM GAS  /var/folders/ww/n4ctlbrs3x70633t9y2ks63c0000gn/T//ccTX1xk7.s 			page 88


 2637 005c FFF7FEFF 		bl	sscanf
 2638              	.LVL253:
 494:TOOL/cJSON.c  ****         {
 2639              		.loc 1 494 12 view .LVU769
 2640 0060 0128     		cmp	r0, #1
 2641 0062 07D1     		bne	.L217
 494:TOOL/cJSON.c  ****         {
 2642              		.loc 1 494 63 discriminator 1 view .LVU770
 2643 0064 4246     		mov	r2, r8
 2644 0066 4B46     		mov	r3, r9
 2645 0068 DDE90001 		ldrd	r0, [sp]
 2646 006c FFF7FEFF 		bl	__aeabi_dcmpeq
 2647              	.LVL254:
 2648 0070 0028     		cmp	r0, #0
 2649 0072 E2D1     		bne	.L216
 2650              	.L217:
 497:TOOL/cJSON.c  ****         }
 2651              		.loc 1 497 13 is_stmt 1 view .LVU771
 497:TOOL/cJSON.c  ****         }
 2652              		.loc 1 497 22 is_stmt 0 view .LVU772
 2653 0074 4246     		mov	r2, r8
 2654 0076 4B46     		mov	r3, r9
 2655 0078 1549     		ldr	r1, .L232+12
 2656 007a 03A8     		add	r0, sp, #12
 2657 007c FFF7FEFF 		bl	sprintf
 2658              	.LVL255:
 2659 0080 0646     		mov	r6, r0
 2660              	.LVL256:
 497:TOOL/cJSON.c  ****         }
 2661              		.loc 1 497 22 view .LVU773
 2662 0082 DAE7     		b	.L216
 2663              	.LVL257:
 2664              	.L229:
 508:TOOL/cJSON.c  ****     if (output_pointer == NULL)
 2665              		.loc 1 508 5 is_stmt 1 view .LVU774
 508:TOOL/cJSON.c  ****     if (output_pointer == NULL)
 2666              		.loc 1 508 22 is_stmt 0 view .LVU775
 2667 0084 3146     		mov	r1, r6
 2668 0086 3846     		mov	r0, r7
 2669 0088 FFF7FEFF 		bl	ensure
 2670              	.LVL258:
 509:TOOL/cJSON.c  ****     {
 2671              		.loc 1 509 5 is_stmt 1 view .LVU776
 509:TOOL/cJSON.c  ****     {
 2672              		.loc 1 509 8 is_stmt 0 view .LVU777
 2673 008c 0146     		mov	r1, r0
 2674 008e B8B1     		cbz	r0, .L225
 516:TOOL/cJSON.c  ****     {
 2675              		.loc 1 516 12 view .LVU778
 2676 0090 0023     		movs	r3, #0
 2677 0092 02E0     		b	.L219
 2678              	.LVL259:
 2679              	.L231:
 520:TOOL/cJSON.c  ****             continue;
 2680              		.loc 1 520 13 is_stmt 1 view .LVU779
 520:TOOL/cJSON.c  ****             continue;
 2681              		.loc 1 520 31 is_stmt 0 view .LVU780
ARM GAS  /var/folders/ww/n4ctlbrs3x70633t9y2ks63c0000gn/T//ccTX1xk7.s 			page 89


 2682 0094 2E22     		movs	r2, #46
 2683 0096 CA54     		strb	r2, [r1, r3]
 521:TOOL/cJSON.c  ****         }
 2684              		.loc 1 521 13 is_stmt 1 view .LVU781
 2685              	.L221:
 516:TOOL/cJSON.c  ****     {
 2686              		.loc 1 516 40 is_stmt 0 discriminator 2 view .LVU782
 2687 0098 0133     		adds	r3, r3, #1
 2688              	.LVL260:
 2689              	.L219:
 516:TOOL/cJSON.c  ****     {
 2690              		.loc 1 516 5 discriminator 1 view .LVU783
 2691 009a 9C42     		cmp	r4, r3
 2692 009c 07D9     		bls	.L230
 518:TOOL/cJSON.c  ****         {
 2693              		.loc 1 518 9 is_stmt 1 view .LVU784
 518:TOOL/cJSON.c  ****         {
 2694              		.loc 1 518 26 is_stmt 0 view .LVU785
 2695 009e 0AAA     		add	r2, sp, #40
 2696 00a0 1A44     		add	r2, r2, r3
 2697 00a2 12F81C2C 		ldrb	r2, [r2, #-28]	@ zero_extendqisi2
 518:TOOL/cJSON.c  ****         {
 2698              		.loc 1 518 12 view .LVU786
 2699 00a6 AA42     		cmp	r2, r5
 2700 00a8 F4D0     		beq	.L231
 524:TOOL/cJSON.c  ****     }
 2701              		.loc 1 524 9 is_stmt 1 view .LVU787
 524:TOOL/cJSON.c  ****     }
 2702              		.loc 1 524 27 is_stmt 0 view .LVU788
 2703 00aa CA54     		strb	r2, [r1, r3]
 2704 00ac F4E7     		b	.L221
 2705              	.L230:
 526:TOOL/cJSON.c  **** 
 2706              		.loc 1 526 5 is_stmt 1 view .LVU789
 526:TOOL/cJSON.c  **** 
 2707              		.loc 1 526 23 is_stmt 0 view .LVU790
 2708 00ae 0022     		movs	r2, #0
 2709 00b0 CA54     		strb	r2, [r1, r3]
 528:TOOL/cJSON.c  **** 
 2710              		.loc 1 528 5 is_stmt 1 view .LVU791
 528:TOOL/cJSON.c  **** 
 2711              		.loc 1 528 27 is_stmt 0 view .LVU792
 2712 00b2 BB68     		ldr	r3, [r7, #8]
 2713              	.LVL261:
 528:TOOL/cJSON.c  **** 
 2714              		.loc 1 528 27 view .LVU793
 2715 00b4 1C44     		add	r4, r4, r3
 2716              	.LVL262:
 528:TOOL/cJSON.c  **** 
 2717              		.loc 1 528 27 view .LVU794
 2718 00b6 BC60     		str	r4, [r7, #8]
 530:TOOL/cJSON.c  **** }
 2719              		.loc 1 530 5 is_stmt 1 view .LVU795
 530:TOOL/cJSON.c  **** }
 2720              		.loc 1 530 12 is_stmt 0 view .LVU796
 2721 00b8 0120     		movs	r0, #1
 2722              	.LVL263:
ARM GAS  /var/folders/ww/n4ctlbrs3x70633t9y2ks63c0000gn/T//ccTX1xk7.s 			page 90


 530:TOOL/cJSON.c  **** }
 2723              		.loc 1 530 12 view .LVU797
 2724 00ba C2E7     		b	.L212
 2725              	.LVL264:
 2726              	.L223:
 480:TOOL/cJSON.c  ****     }
 2727              		.loc 1 480 16 view .LVU798
 2728 00bc 0020     		movs	r0, #0
 2729              	.LVL265:
 480:TOOL/cJSON.c  ****     }
 2730              		.loc 1 480 16 view .LVU799
 2731 00be C0E7     		b	.L212
 2732              	.LVL266:
 2733              	.L225:
 511:TOOL/cJSON.c  ****     }
 2734              		.loc 1 511 16 view .LVU800
 2735 00c0 0020     		movs	r0, #0
 2736              	.LVL267:
 511:TOOL/cJSON.c  ****     }
 2737              		.loc 1 511 16 view .LVU801
 2738 00c2 BEE7     		b	.L212
 2739              	.L233:
 2740              		.align	2
 2741              	.L232:
 2742 00c4 00000000 		.word	.LC3
 2743 00c8 08000000 		.word	.LC4
 2744 00cc 10000000 		.word	.LC5
 2745 00d0 14000000 		.word	.LC6
 2746              		.cfi_endproc
 2747              	.LFE83:
 2749              		.section	.text.print_value,"ax",%progbits
 2750              		.align	1
 2751              		.syntax unified
 2752              		.thumb
 2753              		.thumb_func
 2754              		.fpu softvfp
 2756              	print_value:
 2757              	.LVL268:
 2758              	.LFB99:
1260:TOOL/cJSON.c  ****     unsigned char *output = NULL;
 2759              		.loc 1 1260 1 is_stmt 1 view -0
 2760              		.cfi_startproc
 2761              		@ args = 0, pretend = 0, frame = 0
 2762              		@ frame_needed = 0, uses_anonymous_args = 0
1260:TOOL/cJSON.c  ****     unsigned char *output = NULL;
 2763              		.loc 1 1260 1 is_stmt 0 view .LVU803
 2764 0000 70B5     		push	{r4, r5, r6, lr}
 2765              	.LCFI32:
 2766              		.cfi_def_cfa_offset 16
 2767              		.cfi_offset 4, -16
 2768              		.cfi_offset 5, -12
 2769              		.cfi_offset 6, -8
 2770              		.cfi_offset 14, -4
1261:TOOL/cJSON.c  **** 
 2771              		.loc 1 1261 5 is_stmt 1 view .LVU804
 2772              	.LVL269:
1263:TOOL/cJSON.c  ****     {
ARM GAS  /var/folders/ww/n4ctlbrs3x70633t9y2ks63c0000gn/T//ccTX1xk7.s 			page 91


 2773              		.loc 1 1263 5 view .LVU805
1263:TOOL/cJSON.c  ****     {
 2774              		.loc 1 1263 8 is_stmt 0 view .LVU806
 2775 0002 0028     		cmp	r0, #0
 2776 0004 6DD0     		beq	.L248
 2777 0006 0646     		mov	r6, r0
1263:TOOL/cJSON.c  ****     {
 2778              		.loc 1 1263 24 discriminator 1 view .LVU807
 2779 0008 0029     		cmp	r1, #0
 2780 000a 6CD0     		beq	.L249
 2781 000c 0D46     		mov	r5, r1
1268:TOOL/cJSON.c  ****     {
 2782              		.loc 1 1268 5 is_stmt 1 view .LVU808
1268:TOOL/cJSON.c  ****     {
 2783              		.loc 1 1268 26 is_stmt 0 view .LVU809
 2784 000e 047B     		ldrb	r4, [r0, #12]	@ zero_extendqisi2
1268:TOOL/cJSON.c  ****     {
 2785              		.loc 1 1268 5 view .LVU810
 2786 0010 082C     		cmp	r4, #8
 2787 0012 53D0     		beq	.L236
 2788 0014 18DD     		ble	.L255
 2789 0016 202C     		cmp	r4, #32
 2790 0018 5BD0     		beq	.L241
 2791 001a 1EDD     		ble	.L256
 2792 001c 402C     		cmp	r4, #64
 2793 001e 5CD0     		beq	.L244
 2794 0020 802C     		cmp	r4, #128
 2795 0022 22D1     		bne	.L257
 2796              	.LBB8:
1302:TOOL/cJSON.c  ****             if (item->valuestring == NULL)
 2797              		.loc 1 1302 13 is_stmt 1 view .LVU811
 2798              	.LVL270:
1303:TOOL/cJSON.c  ****             {
 2799              		.loc 1 1303 13 view .LVU812
1303:TOOL/cJSON.c  ****             {
 2800              		.loc 1 1303 21 is_stmt 0 view .LVU813
 2801 0024 0069     		ldr	r0, [r0, #16]
 2802              	.LVL271:
1303:TOOL/cJSON.c  ****             {
 2803              		.loc 1 1303 16 view .LVU814
 2804 0026 0028     		cmp	r0, #0
 2805 0028 4CD0     		beq	.L258
1312:TOOL/cJSON.c  ****             output = ensure(output_buffer, raw_length);
 2806              		.loc 1 1312 13 is_stmt 1 view .LVU815
1312:TOOL/cJSON.c  ****             output = ensure(output_buffer, raw_length);
 2807              		.loc 1 1312 26 is_stmt 0 view .LVU816
 2808 002a FFF7FEFF 		bl	strlen
 2809              	.LVL272:
1312:TOOL/cJSON.c  ****             output = ensure(output_buffer, raw_length);
 2810              		.loc 1 1312 24 view .LVU817
 2811 002e 441C     		adds	r4, r0, #1
 2812              	.LVL273:
1313:TOOL/cJSON.c  ****             if (output == NULL)
 2813              		.loc 1 1313 13 is_stmt 1 view .LVU818
1313:TOOL/cJSON.c  ****             if (output == NULL)
 2814              		.loc 1 1313 22 is_stmt 0 view .LVU819
 2815 0030 2146     		mov	r1, r4
ARM GAS  /var/folders/ww/n4ctlbrs3x70633t9y2ks63c0000gn/T//ccTX1xk7.s 			page 92


 2816 0032 2846     		mov	r0, r5
 2817 0034 FFF7FEFF 		bl	ensure
 2818              	.LVL274:
1314:TOOL/cJSON.c  ****             {
 2819              		.loc 1 1314 13 is_stmt 1 view .LVU820
1314:TOOL/cJSON.c  ****             {
 2820              		.loc 1 1314 16 is_stmt 0 view .LVU821
 2821 0038 0028     		cmp	r0, #0
 2822 003a 5CD0     		beq	.L253
1318:TOOL/cJSON.c  ****             return true;
 2823              		.loc 1 1318 13 is_stmt 1 view .LVU822
 2824 003c 2246     		mov	r2, r4
 2825 003e 3169     		ldr	r1, [r6, #16]
 2826 0040 FFF7FEFF 		bl	memcpy
 2827              	.LVL275:
1319:TOOL/cJSON.c  ****         }
 2828              		.loc 1 1319 13 view .LVU823
1319:TOOL/cJSON.c  ****         }
 2829              		.loc 1 1319 20 is_stmt 0 view .LVU824
 2830 0044 0124     		movs	r4, #1
 2831              	.LVL276:
1319:TOOL/cJSON.c  ****         }
 2832              		.loc 1 1319 20 view .LVU825
 2833 0046 06E0     		b	.L234
 2834              	.LVL277:
 2835              	.L255:
1319:TOOL/cJSON.c  ****         }
 2836              		.loc 1 1319 20 view .LVU826
 2837              	.LBE8:
1268:TOOL/cJSON.c  ****     {
 2838              		.loc 1 1268 5 view .LVU827
 2839 0048 022C     		cmp	r4, #2
 2840 004a 2AD0     		beq	.L238
 2841 004c 042C     		cmp	r4, #4
 2842 004e 0ED0     		beq	.L239
 2843 0050 012C     		cmp	r4, #1
 2844 0052 1AD0     		beq	.L240
1332:TOOL/cJSON.c  ****     }
 2845              		.loc 1 1332 20 view .LVU828
 2846 0054 0024     		movs	r4, #0
 2847              	.LVL278:
 2848              	.L234:
1334:TOOL/cJSON.c  **** 
 2849              		.loc 1 1334 1 view .LVU829
 2850 0056 2046     		mov	r0, r4
 2851 0058 70BD     		pop	{r4, r5, r6, pc}
 2852              	.LVL279:
 2853              	.L256:
1268:TOOL/cJSON.c  ****     {
 2854              		.loc 1 1268 5 view .LVU830
 2855 005a 102C     		cmp	r4, #16
 2856 005c 03D1     		bne	.L259
1323:TOOL/cJSON.c  **** 
 2857              		.loc 1 1323 13 is_stmt 1 view .LVU831
1323:TOOL/cJSON.c  **** 
 2858              		.loc 1 1323 20 is_stmt 0 view .LVU832
 2859 005e FFF7FEFF 		bl	print_string
ARM GAS  /var/folders/ww/n4ctlbrs3x70633t9y2ks63c0000gn/T//ccTX1xk7.s 			page 93


 2860              	.LVL280:
1323:TOOL/cJSON.c  **** 
 2861              		.loc 1 1323 20 view .LVU833
 2862 0062 0446     		mov	r4, r0
 2863 0064 F7E7     		b	.L234
 2864              	.LVL281:
 2865              	.L259:
1332:TOOL/cJSON.c  ****     }
 2866              		.loc 1 1332 20 view .LVU834
 2867 0066 0024     		movs	r4, #0
 2868 0068 F5E7     		b	.L234
 2869              	.L257:
 2870 006a 0024     		movs	r4, #0
 2871 006c F3E7     		b	.L234
 2872              	.L239:
1271:TOOL/cJSON.c  ****             if (output == NULL)
 2873              		.loc 1 1271 13 is_stmt 1 view .LVU835
1271:TOOL/cJSON.c  ****             if (output == NULL)
 2874              		.loc 1 1271 22 is_stmt 0 view .LVU836
 2875 006e 0521     		movs	r1, #5
 2876              	.LVL282:
1271:TOOL/cJSON.c  ****             if (output == NULL)
 2877              		.loc 1 1271 22 view .LVU837
 2878 0070 2846     		mov	r0, r5
 2879              	.LVL283:
1271:TOOL/cJSON.c  ****             if (output == NULL)
 2880              		.loc 1 1271 22 view .LVU838
 2881 0072 FFF7FEFF 		bl	ensure
 2882              	.LVL284:
1272:TOOL/cJSON.c  ****             {
 2883              		.loc 1 1272 13 is_stmt 1 view .LVU839
1272:TOOL/cJSON.c  ****             {
 2884              		.loc 1 1272 16 is_stmt 0 view .LVU840
 2885 0076 0346     		mov	r3, r0
 2886 0078 0028     		cmp	r0, #0
 2887 007a 36D0     		beq	.L250
1276:TOOL/cJSON.c  ****             return true;
 2888              		.loc 1 1276 13 is_stmt 1 view .LVU841
 2889 007c 1F4A     		ldr	r2, .L260
 2890 007e 1068     		ldr	r0, [r2]
 2891              	.LVL285:
1276:TOOL/cJSON.c  ****             return true;
 2892              		.loc 1 1276 13 is_stmt 0 view .LVU842
 2893 0080 1860     		str	r0, [r3]	@ unaligned
 2894 0082 1279     		ldrb	r2, [r2, #4]	@ zero_extendqisi2
 2895 0084 1A71     		strb	r2, [r3, #4]
1277:TOOL/cJSON.c  **** 
 2896              		.loc 1 1277 13 is_stmt 1 view .LVU843
1277:TOOL/cJSON.c  **** 
 2897              		.loc 1 1277 20 is_stmt 0 view .LVU844
 2898 0086 0124     		movs	r4, #1
 2899 0088 E5E7     		b	.L234
 2900              	.LVL286:
 2901              	.L240:
1280:TOOL/cJSON.c  ****             if (output == NULL)
 2902              		.loc 1 1280 13 is_stmt 1 view .LVU845
1280:TOOL/cJSON.c  ****             if (output == NULL)
ARM GAS  /var/folders/ww/n4ctlbrs3x70633t9y2ks63c0000gn/T//ccTX1xk7.s 			page 94


 2903              		.loc 1 1280 22 is_stmt 0 view .LVU846
 2904 008a 0621     		movs	r1, #6
 2905              	.LVL287:
1280:TOOL/cJSON.c  ****             if (output == NULL)
 2906              		.loc 1 1280 22 view .LVU847
 2907 008c 2846     		mov	r0, r5
 2908              	.LVL288:
1280:TOOL/cJSON.c  ****             if (output == NULL)
 2909              		.loc 1 1280 22 view .LVU848
 2910 008e FFF7FEFF 		bl	ensure
 2911              	.LVL289:
1281:TOOL/cJSON.c  ****             {
 2912              		.loc 1 1281 13 is_stmt 1 view .LVU849
1281:TOOL/cJSON.c  ****             {
 2913              		.loc 1 1281 16 is_stmt 0 view .LVU850
 2914 0092 0346     		mov	r3, r0
 2915 0094 58B3     		cbz	r0, .L251
1285:TOOL/cJSON.c  ****             return true;
 2916              		.loc 1 1285 13 is_stmt 1 view .LVU851
 2917 0096 1A4A     		ldr	r2, .L260+4
 2918 0098 1068     		ldr	r0, [r2]
 2919              	.LVL290:
1285:TOOL/cJSON.c  ****             return true;
 2920              		.loc 1 1285 13 is_stmt 0 view .LVU852
 2921 009a 1860     		str	r0, [r3]	@ unaligned
 2922 009c 9288     		ldrh	r2, [r2, #4]	@ unaligned
 2923 009e 9A80     		strh	r2, [r3, #4]	@ unaligned
1286:TOOL/cJSON.c  **** 
 2924              		.loc 1 1286 13 is_stmt 1 view .LVU853
1286:TOOL/cJSON.c  **** 
 2925              		.loc 1 1286 20 is_stmt 0 view .LVU854
 2926 00a0 D9E7     		b	.L234
 2927              	.LVL291:
 2928              	.L238:
1289:TOOL/cJSON.c  ****             if (output == NULL)
 2929              		.loc 1 1289 13 is_stmt 1 view .LVU855
1289:TOOL/cJSON.c  ****             if (output == NULL)
 2930              		.loc 1 1289 22 is_stmt 0 view .LVU856
 2931 00a2 0521     		movs	r1, #5
 2932              	.LVL292:
1289:TOOL/cJSON.c  ****             if (output == NULL)
 2933              		.loc 1 1289 22 view .LVU857
 2934 00a4 2846     		mov	r0, r5
 2935              	.LVL293:
1289:TOOL/cJSON.c  ****             if (output == NULL)
 2936              		.loc 1 1289 22 view .LVU858
 2937 00a6 FFF7FEFF 		bl	ensure
 2938              	.LVL294:
1290:TOOL/cJSON.c  ****             {
 2939              		.loc 1 1290 13 is_stmt 1 view .LVU859
1290:TOOL/cJSON.c  ****             {
 2940              		.loc 1 1290 16 is_stmt 0 view .LVU860
 2941 00aa 0346     		mov	r3, r0
 2942 00ac 08B3     		cbz	r0, .L252
1294:TOOL/cJSON.c  ****             return true;
 2943              		.loc 1 1294 13 is_stmt 1 view .LVU861
 2944 00ae 154A     		ldr	r2, .L260+8
ARM GAS  /var/folders/ww/n4ctlbrs3x70633t9y2ks63c0000gn/T//ccTX1xk7.s 			page 95


 2945 00b0 1068     		ldr	r0, [r2]
 2946              	.LVL295:
1294:TOOL/cJSON.c  ****             return true;
 2947              		.loc 1 1294 13 is_stmt 0 view .LVU862
 2948 00b2 1860     		str	r0, [r3]	@ unaligned
 2949 00b4 1279     		ldrb	r2, [r2, #4]	@ zero_extendqisi2
 2950 00b6 1A71     		strb	r2, [r3, #4]
1295:TOOL/cJSON.c  **** 
 2951              		.loc 1 1295 13 is_stmt 1 view .LVU863
1295:TOOL/cJSON.c  **** 
 2952              		.loc 1 1295 20 is_stmt 0 view .LVU864
 2953 00b8 0124     		movs	r4, #1
 2954 00ba CCE7     		b	.L234
 2955              	.LVL296:
 2956              	.L236:
1298:TOOL/cJSON.c  **** 
 2957              		.loc 1 1298 13 is_stmt 1 view .LVU865
1298:TOOL/cJSON.c  **** 
 2958              		.loc 1 1298 20 is_stmt 0 view .LVU866
 2959 00bc FFF7FEFF 		bl	print_number
 2960              	.LVL297:
1298:TOOL/cJSON.c  **** 
 2961              		.loc 1 1298 20 view .LVU867
 2962 00c0 0446     		mov	r4, r0
 2963 00c2 C8E7     		b	.L234
 2964              	.LVL298:
 2965              	.L258:
 2966              	.LBB9:
1305:TOOL/cJSON.c  ****                 {
 2967              		.loc 1 1305 17 is_stmt 1 view .LVU868
1305:TOOL/cJSON.c  ****                 {
 2968              		.loc 1 1305 35 is_stmt 0 view .LVU869
 2969 00c4 0B69     		ldr	r3, [r1, #16]
1305:TOOL/cJSON.c  ****                 {
 2970              		.loc 1 1305 20 view .LVU870
 2971 00c6 13B9     		cbnz	r3, .L247
1307:TOOL/cJSON.c  ****                 }
 2972              		.loc 1 1307 21 is_stmt 1 view .LVU871
1307:TOOL/cJSON.c  ****                 }
 2973              		.loc 1 1307 41 is_stmt 0 view .LVU872
 2974 00c8 CB69     		ldr	r3, [r1, #28]
1307:TOOL/cJSON.c  ****                 }
 2975              		.loc 1 1307 21 view .LVU873
 2976 00ca 0868     		ldr	r0, [r1]
 2977 00cc 9847     		blx	r3
 2978              	.LVL299:
 2979              	.L247:
1309:TOOL/cJSON.c  ****             }
 2980              		.loc 1 1309 17 is_stmt 1 view .LVU874
1309:TOOL/cJSON.c  ****             }
 2981              		.loc 1 1309 24 is_stmt 0 view .LVU875
 2982 00ce 0024     		movs	r4, #0
 2983 00d0 C1E7     		b	.L234
 2984              	.LVL300:
 2985              	.L241:
1309:TOOL/cJSON.c  ****             }
 2986              		.loc 1 1309 24 view .LVU876
ARM GAS  /var/folders/ww/n4ctlbrs3x70633t9y2ks63c0000gn/T//ccTX1xk7.s 			page 96


 2987              	.LBE9:
1326:TOOL/cJSON.c  **** 
 2988              		.loc 1 1326 13 is_stmt 1 view .LVU877
1326:TOOL/cJSON.c  **** 
 2989              		.loc 1 1326 20 is_stmt 0 view .LVU878
 2990 00d2 FFF7FEFF 		bl	print_array
 2991              	.LVL301:
1326:TOOL/cJSON.c  **** 
 2992              		.loc 1 1326 20 view .LVU879
 2993 00d6 0446     		mov	r4, r0
 2994 00d8 BDE7     		b	.L234
 2995              	.LVL302:
 2996              	.L244:
1329:TOOL/cJSON.c  **** 
 2997              		.loc 1 1329 13 is_stmt 1 view .LVU880
1329:TOOL/cJSON.c  **** 
 2998              		.loc 1 1329 20 is_stmt 0 view .LVU881
 2999 00da FFF7FEFF 		bl	print_object
 3000              	.LVL303:
1329:TOOL/cJSON.c  **** 
 3001              		.loc 1 1329 20 view .LVU882
 3002 00de 0446     		mov	r4, r0
 3003 00e0 B9E7     		b	.L234
 3004              	.LVL304:
 3005              	.L248:
1265:TOOL/cJSON.c  ****     }
 3006              		.loc 1 1265 16 view .LVU883
 3007 00e2 0024     		movs	r4, #0
 3008 00e4 B7E7     		b	.L234
 3009              	.L249:
1265:TOOL/cJSON.c  ****     }
 3010              		.loc 1 1265 16 view .LVU884
 3011 00e6 0024     		movs	r4, #0
 3012 00e8 B5E7     		b	.L234
 3013              	.LVL305:
 3014              	.L250:
1274:TOOL/cJSON.c  ****             }
 3015              		.loc 1 1274 24 view .LVU885
 3016 00ea 0024     		movs	r4, #0
 3017 00ec B3E7     		b	.L234
 3018              	.L251:
1283:TOOL/cJSON.c  ****             }
 3019              		.loc 1 1283 24 view .LVU886
 3020 00ee 0024     		movs	r4, #0
 3021 00f0 B1E7     		b	.L234
 3022              	.L252:
1292:TOOL/cJSON.c  ****             }
 3023              		.loc 1 1292 24 view .LVU887
 3024 00f2 0024     		movs	r4, #0
 3025 00f4 AFE7     		b	.L234
 3026              	.LVL306:
 3027              	.L253:
 3028              	.LBB10:
1316:TOOL/cJSON.c  ****             }
 3029              		.loc 1 1316 24 view .LVU888
 3030 00f6 0024     		movs	r4, #0
 3031              	.LVL307:
ARM GAS  /var/folders/ww/n4ctlbrs3x70633t9y2ks63c0000gn/T//ccTX1xk7.s 			page 97


1316:TOOL/cJSON.c  ****             }
 3032              		.loc 1 1316 24 view .LVU889
 3033 00f8 ADE7     		b	.L234
 3034              	.L261:
 3035 00fa 00BF     		.align	2
 3036              	.L260:
 3037 00fc 00000000 		.word	.LC3
 3038 0100 00000000 		.word	.LC7
 3039 0104 08000000 		.word	.LC8
 3040              	.LBE10:
 3041              		.cfi_endproc
 3042              	.LFE99:
 3044              		.section	.text.print,"ax",%progbits
 3045              		.align	1
 3046              		.syntax unified
 3047              		.thumb
 3048              		.thumb_func
 3049              		.fpu softvfp
 3051              	print:
 3052              	.LVL308:
 3053              	.LFB93:
1082:TOOL/cJSON.c  ****     printbuffer buffer[1];
 3054              		.loc 1 1082 1 is_stmt 1 view -0
 3055              		.cfi_startproc
 3056              		@ args = 0, pretend = 0, frame = 40
 3057              		@ frame_needed = 0, uses_anonymous_args = 0
1082:TOOL/cJSON.c  ****     printbuffer buffer[1];
 3058              		.loc 1 1082 1 is_stmt 0 view .LVU891
 3059 0000 F0B5     		push	{r4, r5, r6, r7, lr}
 3060              	.LCFI33:
 3061              		.cfi_def_cfa_offset 20
 3062              		.cfi_offset 4, -20
 3063              		.cfi_offset 5, -16
 3064              		.cfi_offset 6, -12
 3065              		.cfi_offset 7, -8
 3066              		.cfi_offset 14, -4
 3067 0002 8BB0     		sub	sp, sp, #44
 3068              	.LCFI34:
 3069              		.cfi_def_cfa_offset 64
 3070 0004 0746     		mov	r7, r0
 3071 0006 0E46     		mov	r6, r1
 3072 0008 1546     		mov	r5, r2
1083:TOOL/cJSON.c  ****     unsigned char *printed = NULL;
 3073              		.loc 1 1083 5 is_stmt 1 view .LVU892
1084:TOOL/cJSON.c  **** 
 3074              		.loc 1 1084 5 view .LVU893
 3075              	.LVL309:
1086:TOOL/cJSON.c  **** 
 3076              		.loc 1 1086 5 view .LVU894
 3077 000a 2422     		movs	r2, #36
 3078              	.LVL310:
1086:TOOL/cJSON.c  **** 
 3079              		.loc 1 1086 5 is_stmt 0 view .LVU895
 3080 000c 0021     		movs	r1, #0
 3081              	.LVL311:
1086:TOOL/cJSON.c  **** 
 3082              		.loc 1 1086 5 view .LVU896
ARM GAS  /var/folders/ww/n4ctlbrs3x70633t9y2ks63c0000gn/T//ccTX1xk7.s 			page 98


 3083 000e 01A8     		add	r0, sp, #4
 3084              	.LVL312:
1086:TOOL/cJSON.c  **** 
 3085              		.loc 1 1086 5 view .LVU897
 3086 0010 FFF7FEFF 		bl	memset
 3087              	.LVL313:
1089:TOOL/cJSON.c  ****     buffer->format = format;
 3088              		.loc 1 1089 5 is_stmt 1 view .LVU898
1089:TOOL/cJSON.c  ****     buffer->format = format;
 3089              		.loc 1 1089 44 is_stmt 0 view .LVU899
