ARM GAS  /var/folders/ww/n4ctlbrs3x70633t9y2ks63c0000gn/T//ccVPSiIt.s 			page 1


   1              		.cpu cortex-m3
   2              		.eabi_attribute 20, 1
   3              		.eabi_attribute 21, 1
   4              		.eabi_attribute 23, 3
   5              		.eabi_attribute 24, 1
   6              		.eabi_attribute 25, 1
   7              		.eabi_attribute 26, 1
   8              		.eabi_attribute 30, 1
   9              		.eabi_attribute 34, 1
  10              		.eabi_attribute 18, 4
  11              		.file	"CtrPro.c"
  12              		.text
  13              	.Ltext0:
  14              		.cfi_sections	.debug_frame
  15              		.global	__aeabi_fcmpgt
  16              		.global	__aeabi_fsub
  17              		.global	__aeabi_f2uiz
  18              		.section	.text.doCtr,"ax",%progbits
  19              		.align	1
  20              		.global	doCtr
  21              		.arch armv7-m
  22              		.syntax unified
  23              		.thumb
  24              		.thumb_func
  25              		.fpu softvfp
  27              	doCtr:
  28              	.LFB65:
  29              		.file 1 "APP/CtrPro.c"
   1:APP/CtrPro.c  **** #include "CtrPro.h"
   2:APP/CtrPro.c  **** #include "CurInfoPage.h"
   3:APP/CtrPro.c  **** 
   4:APP/CtrPro.c  **** _CtrStatus CtrStatus = CTRINIT;
   5:APP/CtrPro.c  **** 
   6:APP/CtrPro.c  **** void doCtr(void) 
   7:APP/CtrPro.c  **** {	
  30              		.loc 1 7 1 view -0
  31              		.cfi_startproc
  32              		@ args = 0, pretend = 0, frame = 0
  33              		@ frame_needed = 0, uses_anonymous_args = 0
  34 0000 38B5     		push	{r3, r4, r5, lr}
  35              	.LCFI0:
  36              		.cfi_def_cfa_offset 16
  37              		.cfi_offset 3, -16
  38              		.cfi_offset 4, -12
  39              		.cfi_offset 5, -8
  40              		.cfi_offset 14, -4
   8:APP/CtrPro.c  **** 	u8 diff;
  41              		.loc 1 8 2 view .LVU1
   9:APP/CtrPro.c  **** 	ParasChecker.chargeflag = 0;
  42              		.loc 1 9 2 view .LVU2
  43              		.loc 1 9 26 is_stmt 0 view .LVU3
  44 0002 614B     		ldr	r3, .L28
  45 0004 0022     		movs	r2, #0
  46 0006 9A70     		strb	r2, [r3, #2]
  10:APP/CtrPro.c  **** 	
  11:APP/CtrPro.c  **** 	if(Temputer.flag & 0x01)//Ê∏©Â∫¶Ë∂ÖÈôêÔºåÂÖ≥Èó≠ËæìÂÖ•ÂíåËæìÂá∫
  47              		.loc 1 11 2 is_stmt 1 view .LVU4
ARM GAS  /var/folders/ww/n4ctlbrs3x70633t9y2ks63c0000gn/T//ccVPSiIt.s 			page 2


  48              		.loc 1 11 13 is_stmt 0 view .LVU5
  49 0008 604B     		ldr	r3, .L28+4
  50 000a DB78     		ldrb	r3, [r3, #3]	@ zero_extendqisi2
  51              		.loc 1 11 4 view .LVU6
  52 000c 13F0010F 		tst	r3, #1
  53 0010 28D1     		bne	.L26
  12:APP/CtrPro.c  **** 	{
  13:APP/CtrPro.c  **** 		KACDIS;
  14:APP/CtrPro.c  **** 		KFNDIS;
  15:APP/CtrPro.c  **** 		KVODIS;
  16:APP/CtrPro.c  **** 		return;
  17:APP/CtrPro.c  **** 	}
  18:APP/CtrPro.c  **** 	
  19:APP/CtrPro.c  **** 	if(ParasChecker.errflag & 0x01)//ÁîµÊ±†ËøáÂéã,ÂÖ≥Èó≠ÊâÄÊúâÁîµÊ∫êËæìÂÖ•
  54              		.loc 1 19 2 is_stmt 1 view .LVU7
  55              		.loc 1 19 17 is_stmt 0 view .LVU8
  56 0012 5D4B     		ldr	r3, .L28
  57 0014 9B88     		ldrh	r3, [r3, #4]
  58              		.loc 1 19 4 view .LVU9
  59 0016 13F0010F 		tst	r3, #1
  60 001a 30D0     		beq	.L4
  20:APP/CtrPro.c  **** 	{
  21:APP/CtrPro.c  **** 		KACDIS;//ÂÖ≥Èó≠Â∏ÇÁîµÂÖÖÁîµ
  61              		.loc 1 21 3 is_stmt 1 view .LVU10
  62 001c 5C4B     		ldr	r3, .L28+8
  63 001e 5A68     		ldr	r2, [r3, #4]
  64 0020 1968     		ldr	r1, [r3]
  65 0022 1204     		lsls	r2, r2, #16
  66 0024 8A61     		str	r2, [r1, #24]
  22:APP/CtrPro.c  **** 		KFNDIS;//ÂÖ≥Èó≠È£éËÉΩÂÖÖÁîµ
  67              		.loc 1 22 3 view .LVU11
  68 0026 5A69     		ldr	r2, [r3, #20]
  69 0028 1969     		ldr	r1, [r3, #16]
  70 002a 1204     		lsls	r2, r2, #16
  71 002c 8A61     		str	r2, [r1, #24]
  72              	.L5:
  23:APP/CtrPro.c  **** 	}else
  24:APP/CtrPro.c  **** 	{
  25:APP/CtrPro.c  **** 		if((ParasChecker.volerrflag & 0x07) == 0x06) //È£éËÉΩ„ÄÅÂ§™Èò≥ËÉΩÈÉΩÂºÇÂ∏∏‰∏îÂ∏ÇÁîµÊ≠£Â∏∏
  26:APP/CtrPro.c  **** 		{
  27:APP/CtrPro.c  **** 			ParasChecker.chargeflag |= 0x01;	//Ê†áËÆ∞ÂΩìÂâçÈÄâÊã©Â∏ÇÁîµÂÖÖÁîµ
  28:APP/CtrPro.c  **** 			KACEN;//ÊâìÂºÄÂ∏ÇÁîµËæìÂÖ•ÂÖÖÁîµ
  29:APP/CtrPro.c  **** 			KFNDIS;
  30:APP/CtrPro.c  **** 		}
  31:APP/CtrPro.c  **** 		else//È£éËÉΩ„ÄÅÂ§™Èò≥ËÉΩ‰∏≠Ëá≥Â∞ëÊúâ‰∏Ä‰∏™Ê≠£Â∏∏
  32:APP/CtrPro.c  **** 			KACDIS;//ÂÖ≥Èó≠Â∏ÇÁîµËæìÂÖ•ÂÖÖÁîµ
  33:APP/CtrPro.c  **** 		
  34:APP/CtrPro.c  **** 		if(!(ParasChecker.volerrflag & 0x06))	//È£éËÉΩ„ÄÅÂ§™Èò≥ËÉΩÈÉΩÊ≠£Â∏∏
  35:APP/CtrPro.c  **** 		{
  36:APP/CtrPro.c  **** 			diff = (Vol.VFN > Vol.VTY ? (Vol.VFN-Vol.VTY) : (Vol.VTY-Vol.VFN));
  37:APP/CtrPro.c  **** 			if(diff < 10)//È£éËÉΩ„ÄÅÂ§™Èò≥ËÉΩÁîµÂéãÁõ∏Â∑Æ‰∏çË∂ÖËøá10V
  38:APP/CtrPro.c  **** 			{
  39:APP/CtrPro.c  **** 				ParasChecker.chargeflag |= 0x06;//ÊòæÁ§∫ÂêåÊó∂ÈÄâÁî®È£éËÉΩ„ÄÅÂ§™Èò≥ËÉΩÂÖÖÁîµ
  40:APP/CtrPro.c  **** 				KFNEN;
  41:APP/CtrPro.c  **** 			}
  42:APP/CtrPro.c  **** 			else//Ë∂ÖËøá10V
  43:APP/CtrPro.c  **** 			{
ARM GAS  /var/folders/ww/n4ctlbrs3x70633t9y2ks63c0000gn/T//ccVPSiIt.s 			page 3


  44:APP/CtrPro.c  **** 				KFNEN;
  45:APP/CtrPro.c  **** 				ParasChecker.chargeflag |= (Vol.VFN > Vol.VTY ? 0x02:0x04);//ÊòæÁ§∫Â§™Èò≥ËÉΩ„ÄÅÈ£éËÉΩ‰∏≠ÁîµÂéãÈ
  46:APP/CtrPro.c  **** 			}
  47:APP/CtrPro.c  **** 		}else//È£éËÉΩÂ§™Èò≥ËÉΩÈÉΩ‰∏çÊ≠£Â∏∏ÊàñÂè™ÊúâÂÖ∂‰∏≠‰∏Ä‰∏™Ê≠£Â∏∏
  48:APP/CtrPro.c  **** 		{
  49:APP/CtrPro.c  **** 			if(!(ParasChecker.volerrflag & 0x02))//È£éËÉΩÊ≠£Â∏∏Ôºå‰ΩøËÉΩÈ£éËÉΩÂçáÂéãÂÖÖÁîµ
  50:APP/CtrPro.c  **** 			{
  51:APP/CtrPro.c  **** 				ParasChecker.chargeflag |= 0x02; //Ê†áËÆ∞ÂΩìÂâçÈÄâÊã©È£éËÉΩÂÖÖÁîµ
  52:APP/CtrPro.c  **** 				KFNEN;
  53:APP/CtrPro.c  **** 			}
  54:APP/CtrPro.c  **** 			
  55:APP/CtrPro.c  **** 			if(!(ParasChecker.volerrflag & 0x04))//Â§™Èò≥ËÉΩÊ≠£Â∏∏Ôºå‰ΩøËÉΩÂçáÂéãÂÖÖÁîµ
  56:APP/CtrPro.c  **** 			{
  57:APP/CtrPro.c  **** 				ParasChecker.chargeflag |= 0x04;
  58:APP/CtrPro.c  **** 				KFNEN;
  59:APP/CtrPro.c  **** 			}
  60:APP/CtrPro.c  **** 		}
  61:APP/CtrPro.c  **** 		
  62:APP/CtrPro.c  **** 		//ÂùáÂÖÖÊéßÂà∂
  63:APP/CtrPro.c  **** 		if(ParasChecker.currentflag & 0x02)
  64:APP/CtrPro.c  **** 			KJCEN;
  65:APP/CtrPro.c  **** 		else
  66:APP/CtrPro.c  **** 			KJCDIS;
  67:APP/CtrPro.c  **** 	}
  68:APP/CtrPro.c  **** 	
  69:APP/CtrPro.c  **** 	//Ë¥üËΩΩËøáÊµÅÊàñÁîµÊ±†Ê¨†Âéã‰∏îÊ≤°ÊúâÂ∏ÇÁîµ‰æõÁîµÊó∂ÂàáÊñ≠ËæìÂá∫
  70:APP/CtrPro.c  **** 	if(((ParasChecker.currentflag & 0x01) || ((ParasChecker.errflag & 0x02) && (ParasChecker.volerrfla
  73              		.loc 1 70 2 view .LVU12
  74              		.loc 1 70 19 is_stmt 0 view .LVU13
  75 002e 564B     		ldr	r3, .L28
  76 0030 DB78     		ldrb	r3, [r3, #3]	@ zero_extendqisi2
  77              		.loc 1 70 4 view .LVU14
  78 0032 13F0010F 		tst	r3, #1
  79 0036 0BD1     		bne	.L18
  80              		.loc 1 70 57 discriminator 1 view .LVU15
  81 0038 534B     		ldr	r3, .L28
  82 003a 9B88     		ldrh	r3, [r3, #4]
  83              		.loc 1 70 40 discriminator 1 view .LVU16
  84 003c 13F0020F 		tst	r3, #2
  85 0040 00F09680 		beq	.L19
  86              		.loc 1 70 90 discriminator 2 view .LVU17
  87 0044 504B     		ldr	r3, .L28
  88 0046 5B78     		ldrb	r3, [r3, #1]	@ zero_extendqisi2
  89              		.loc 1 70 74 discriminator 2 view .LVU18
  90 0048 13F0010F 		tst	r3, #1
  91 004c 00F09080 		beq	.L19
  92              	.L18:
  71:APP/CtrPro.c  **** 	{
  72:APP/CtrPro.c  **** 		ParasChecker.inoutflag &= ~0x02;
  93              		.loc 1 72 3 is_stmt 1 view .LVU19
  94              		.loc 1 72 26 is_stmt 0 view .LVU20
  95 0050 4D4A     		ldr	r2, .L28
  96 0052 9379     		ldrb	r3, [r2, #6]	@ zero_extendqisi2
  97 0054 23F00203 		bic	r3, r3, #2
  98 0058 9371     		strb	r3, [r2, #6]
  73:APP/CtrPro.c  **** 		KVODIS;
  99              		.loc 1 73 3 is_stmt 1 view .LVU21
ARM GAS  /var/folders/ww/n4ctlbrs3x70633t9y2ks63c0000gn/T//ccVPSiIt.s 			page 4


 100 005a 4D4B     		ldr	r3, .L28+8
 101 005c 9A69     		ldr	r2, [r3, #24]
 102 005e DB69     		ldr	r3, [r3, #28]
 103 0060 9361     		str	r3, [r2, #24]
 104              	.L1:
  74:APP/CtrPro.c  **** 	}
  75:APP/CtrPro.c  **** 	else
  76:APP/CtrPro.c  **** 	{
  77:APP/CtrPro.c  **** 		ParasChecker.inoutflag |= 0x02;
  78:APP/CtrPro.c  **** 		KVOEN;
  79:APP/CtrPro.c  **** 	}
  80:APP/CtrPro.c  **** }
 105              		.loc 1 80 1 is_stmt 0 view .LVU22
 106 0062 38BD     		pop	{r3, r4, r5, pc}
 107              	.L26:
  13:APP/CtrPro.c  **** 		KFNDIS;
 108              		.loc 1 13 3 is_stmt 1 view .LVU23
 109 0064 4A4B     		ldr	r3, .L28+8
 110 0066 5A68     		ldr	r2, [r3, #4]
 111 0068 1968     		ldr	r1, [r3]
 112 006a 1204     		lsls	r2, r2, #16
 113 006c 8A61     		str	r2, [r1, #24]
  14:APP/CtrPro.c  **** 		KVODIS;
 114              		.loc 1 14 3 view .LVU24
 115 006e 5A69     		ldr	r2, [r3, #20]
 116 0070 1969     		ldr	r1, [r3, #16]
 117 0072 1204     		lsls	r2, r2, #16
 118 0074 8A61     		str	r2, [r1, #24]
  15:APP/CtrPro.c  **** 		return;
 119              		.loc 1 15 3 view .LVU25
 120 0076 9A69     		ldr	r2, [r3, #24]
 121 0078 DB69     		ldr	r3, [r3, #28]
 122 007a 9361     		str	r3, [r2, #24]
  16:APP/CtrPro.c  **** 	}
 123              		.loc 1 16 3 view .LVU26
 124 007c F1E7     		b	.L1
 125              	.L4:
  25:APP/CtrPro.c  **** 		{
 126              		.loc 1 25 3 view .LVU27
  25:APP/CtrPro.c  **** 		{
 127              		.loc 1 25 19 is_stmt 0 view .LVU28
 128 007e 424B     		ldr	r3, .L28
 129 0080 5B78     		ldrb	r3, [r3, #1]	@ zero_extendqisi2
  25:APP/CtrPro.c  **** 		{
 130              		.loc 1 25 5 view .LVU29
 131 0082 03F00702 		and	r2, r3, #7
 132 0086 062A     		cmp	r2, #6
 133 0088 2BD0     		beq	.L27
  32:APP/CtrPro.c  **** 		
 134              		.loc 1 32 4 is_stmt 1 view .LVU30
 135 008a 4149     		ldr	r1, .L28+8
 136 008c 4A68     		ldr	r2, [r1, #4]
 137 008e 0968     		ldr	r1, [r1]
 138 0090 1204     		lsls	r2, r2, #16
 139 0092 8A61     		str	r2, [r1, #24]
 140              	.L7:
  34:APP/CtrPro.c  **** 		{
ARM GAS  /var/folders/ww/n4ctlbrs3x70633t9y2ks63c0000gn/T//ccVPSiIt.s 			page 5


 141              		.loc 1 34 3 view .LVU31
  34:APP/CtrPro.c  **** 		{
 142              		.loc 1 34 5 is_stmt 0 view .LVU32
 143 0094 13F0060F 		tst	r3, #6
 144 0098 4BD1     		bne	.L8
  36:APP/CtrPro.c  **** 			if(diff < 10)//È£éËÉΩ„ÄÅÂ§™Èò≥ËÉΩÁîµÂéãÁõ∏Â∑Æ‰∏çË∂ÖËøá10V
 145              		.loc 1 36 4 is_stmt 1 view .LVU33
  36:APP/CtrPro.c  **** 			if(diff < 10)//È£éËÉΩ„ÄÅÂ§™Èò≥ËÉΩÁîµÂéãÁõ∏Â∑Æ‰∏çË∂ÖËøá10V
 146              		.loc 1 36 15 is_stmt 0 view .LVU34
 147 009a 3E4B     		ldr	r3, .L28+12
 148 009c 9D6E     		ldr	r5, [r3, #104]	@ float
  36:APP/CtrPro.c  **** 			if(diff < 10)//È£éËÉΩ„ÄÅÂ§™Èò≥ËÉΩÁîµÂéãÁõ∏Â∑Æ‰∏çË∂ÖËøá10V
 149              		.loc 1 36 25 view .LVU35
 150 009e DC6E     		ldr	r4, [r3, #108]	@ float
  36:APP/CtrPro.c  **** 			if(diff < 10)//È£éËÉΩ„ÄÅÂ§™Èò≥ËÉΩÁîµÂéãÁõ∏Â∑Æ‰∏çË∂ÖËøá10V
 151              		.loc 1 36 9 view .LVU36
 152 00a0 2146     		mov	r1, r4
 153 00a2 2846     		mov	r0, r5
 154 00a4 FFF7FEFF 		bl	__aeabi_fcmpgt
 155              	.LVL0:
 156 00a8 38B3     		cbz	r0, .L23
  36:APP/CtrPro.c  **** 			if(diff < 10)//È£éËÉΩ„ÄÅÂ§™Èò≥ËÉΩÁîµÂéãÁõ∏Â∑Æ‰∏çË∂ÖËøá10V
 157              		.loc 1 36 40 discriminator 1 view .LVU37
 158 00aa 2146     		mov	r1, r4
 159 00ac 2846     		mov	r0, r5
 160 00ae FFF7FEFF 		bl	__aeabi_fsub
 161              	.LVL1:
  36:APP/CtrPro.c  **** 			if(diff < 10)//È£éËÉΩ„ÄÅÂ§™Èò≥ËÉΩÁîµÂéãÁõ∏Â∑Æ‰∏çË∂ÖËøá10V
 162              		.loc 1 36 9 discriminator 1 view .LVU38
 163 00b2 FFF7FEFF 		bl	__aeabi_f2uiz
 164              	.LVL2:
 165 00b6 C0B2     		uxtb	r0, r0
 166              	.L11:
 167              	.LVL3:
  37:APP/CtrPro.c  **** 			{
 168              		.loc 1 37 4 is_stmt 1 discriminator 4 view .LVU39
  37:APP/CtrPro.c  **** 			{
 169              		.loc 1 37 6 is_stmt 0 discriminator 4 view .LVU40
 170 00b8 0928     		cmp	r0, #9
 171 00ba 26D8     		bhi	.L12
  39:APP/CtrPro.c  **** 				KFNEN;
 172              		.loc 1 39 5 is_stmt 1 view .LVU41
  39:APP/CtrPro.c  **** 				KFNEN;
 173              		.loc 1 39 29 is_stmt 0 view .LVU42
 174 00bc 324A     		ldr	r2, .L28
 175 00be 9378     		ldrb	r3, [r2, #2]	@ zero_extendqisi2
 176 00c0 43F00603 		orr	r3, r3, #6
 177 00c4 9370     		strb	r3, [r2, #2]
  40:APP/CtrPro.c  **** 			}
 178              		.loc 1 40 5 is_stmt 1 view .LVU43
 179 00c6 324B     		ldr	r3, .L28+8
 180 00c8 1A69     		ldr	r2, [r3, #16]
 181 00ca 5B69     		ldr	r3, [r3, #20]
 182 00cc 9361     		str	r3, [r2, #24]
 183              	.LVL4:
 184              	.L13:
  63:APP/CtrPro.c  **** 			KJCEN;
ARM GAS  /var/folders/ww/n4ctlbrs3x70633t9y2ks63c0000gn/T//ccVPSiIt.s 			page 6


 185              		.loc 1 63 3 view .LVU44
  63:APP/CtrPro.c  **** 			KJCEN;
 186              		.loc 1 63 18 is_stmt 0 view .LVU45
 187 00ce 2E4B     		ldr	r3, .L28
 188 00d0 DB78     		ldrb	r3, [r3, #3]	@ zero_extendqisi2
  63:APP/CtrPro.c  **** 			KJCEN;
 189              		.loc 1 63 5 view .LVU46
 190 00d2 13F0020F 		tst	r3, #2
 191 00d6 45D0     		beq	.L17
  64:APP/CtrPro.c  **** 		else
 192              		.loc 1 64 4 is_stmt 1 view .LVU47
 193 00d8 2D4B     		ldr	r3, .L28+8
 194 00da 9A68     		ldr	r2, [r3, #8]
 195 00dc DB68     		ldr	r3, [r3, #12]
 196 00de 9361     		str	r3, [r2, #24]
 197 00e0 A5E7     		b	.L5
 198              	.L27:
  27:APP/CtrPro.c  **** 			KACEN;//ÊâìÂºÄÂ∏ÇÁîµËæìÂÖ•ÂÖÖÁîµ
 199              		.loc 1 27 4 view .LVU48
  27:APP/CtrPro.c  **** 			KACEN;//ÊâìÂºÄÂ∏ÇÁîµËæìÂÖ•ÂÖÖÁîµ
 200              		.loc 1 27 28 is_stmt 0 view .LVU49
 201 00e2 294A     		ldr	r2, .L28
 202 00e4 0121     		movs	r1, #1
 203 00e6 9170     		strb	r1, [r2, #2]
  28:APP/CtrPro.c  **** 			KFNDIS;
 204              		.loc 1 28 4 is_stmt 1 view .LVU50
 205 00e8 294A     		ldr	r2, .L28+8
 206 00ea 1168     		ldr	r1, [r2]
 207 00ec 5068     		ldr	r0, [r2, #4]
 208 00ee 8861     		str	r0, [r1, #24]
  29:APP/CtrPro.c  **** 		}
 209              		.loc 1 29 4 view .LVU51
 210 00f0 5169     		ldr	r1, [r2, #20]
 211 00f2 1069     		ldr	r0, [r2, #16]
 212 00f4 0904     		lsls	r1, r1, #16
 213 00f6 8161     		str	r1, [r0, #24]
 214 00f8 CCE7     		b	.L7
 215              	.L23:
  36:APP/CtrPro.c  **** 			if(diff < 10)//È£éËÉΩ„ÄÅÂ§™Èò≥ËÉΩÁîµÂéãÁõ∏Â∑Æ‰∏çË∂ÖËøá10V
 216              		.loc 1 36 60 is_stmt 0 discriminator 2 view .LVU52
 217 00fa 2946     		mov	r1, r5
 218 00fc 2046     		mov	r0, r4
 219 00fe FFF7FEFF 		bl	__aeabi_fsub
 220              	.LVL5:
  36:APP/CtrPro.c  **** 			if(diff < 10)//È£éËÉΩ„ÄÅÂ§™Èò≥ËÉΩÁîµÂéãÁõ∏Â∑Æ‰∏çË∂ÖËøá10V
 221              		.loc 1 36 9 discriminator 2 view .LVU53
 222 0102 FFF7FEFF 		bl	__aeabi_f2uiz
 223              	.LVL6:
 224 0106 C0B2     		uxtb	r0, r0
 225 0108 D6E7     		b	.L11
 226              	.LVL7:
 227              	.L12:
  44:APP/CtrPro.c  **** 				ParasChecker.chargeflag |= (Vol.VFN > Vol.VTY ? 0x02:0x04);//ÊòæÁ§∫Â§™Èò≥ËÉΩ„ÄÅÈ£éËÉΩ‰∏≠ÁîµÂéãÈ
 228              		.loc 1 44 5 is_stmt 1 view .LVU54
 229 010a 214B     		ldr	r3, .L28+8
 230 010c 1A69     		ldr	r2, [r3, #16]
 231 010e 5B69     		ldr	r3, [r3, #20]
ARM GAS  /var/folders/ww/n4ctlbrs3x70633t9y2ks63c0000gn/T//ccVPSiIt.s 			page 7


 232 0110 9361     		str	r3, [r2, #24]
  45:APP/CtrPro.c  **** 			}
 233              		.loc 1 45 5 view .LVU55
  45:APP/CtrPro.c  **** 			}
 234              		.loc 1 45 29 is_stmt 0 view .LVU56
 235 0112 1D4B     		ldr	r3, .L28
 236 0114 93F90240 		ldrsb	r4, [r3, #2]
  45:APP/CtrPro.c  **** 			}
 237              		.loc 1 45 36 view .LVU57
 238 0118 1E4B     		ldr	r3, .L28+12
  45:APP/CtrPro.c  **** 			}
 239              		.loc 1 45 29 view .LVU58
 240 011a D96E     		ldr	r1, [r3, #108]	@ float
 241 011c 986E     		ldr	r0, [r3, #104]	@ float
 242              	.LVL8:
  45:APP/CtrPro.c  **** 			}
 243              		.loc 1 45 29 view .LVU59
 244 011e FFF7FEFF 		bl	__aeabi_fcmpgt
 245              	.LVL9:
 246 0122 20B1     		cbz	r0, .L24
 247 0124 0223     		movs	r3, #2
 248              	.L14:
  45:APP/CtrPro.c  **** 			}
 249              		.loc 1 45 29 discriminator 4 view .LVU60
 250 0126 1C43     		orrs	r4, r4, r3
 251 0128 174B     		ldr	r3, .L28
 252 012a 9C70     		strb	r4, [r3, #2]
 253 012c CFE7     		b	.L13
 254              	.L24:
  45:APP/CtrPro.c  **** 			}
 255              		.loc 1 45 29 view .LVU61
 256 012e 0423     		movs	r3, #4
 257 0130 F9E7     		b	.L14
 258              	.L8:
  49:APP/CtrPro.c  **** 			{
 259              		.loc 1 49 4 is_stmt 1 view .LVU62
  49:APP/CtrPro.c  **** 			{
 260              		.loc 1 49 6 is_stmt 0 view .LVU63
 261 0132 13F0020F 		tst	r3, #2
 262 0136 08D1     		bne	.L16
  51:APP/CtrPro.c  **** 				KFNEN;
 263              		.loc 1 51 5 is_stmt 1 view .LVU64
  51:APP/CtrPro.c  **** 				KFNEN;
 264              		.loc 1 51 29 is_stmt 0 view .LVU65
 265 0138 1349     		ldr	r1, .L28
 266 013a 8A78     		ldrb	r2, [r1, #2]	@ zero_extendqisi2
 267 013c 42F00202 		orr	r2, r2, #2
 268 0140 8A70     		strb	r2, [r1, #2]
  52:APP/CtrPro.c  **** 			}
 269              		.loc 1 52 5 is_stmt 1 view .LVU66
 270 0142 134A     		ldr	r2, .L28+8
 271 0144 1169     		ldr	r1, [r2, #16]
 272 0146 5269     		ldr	r2, [r2, #20]
 273 0148 8A61     		str	r2, [r1, #24]
 274              	.L16:
  55:APP/CtrPro.c  **** 			{
 275              		.loc 1 55 4 view .LVU67
ARM GAS  /var/folders/ww/n4ctlbrs3x70633t9y2ks63c0000gn/T//ccVPSiIt.s 			page 8


  55:APP/CtrPro.c  **** 			{
 276              		.loc 1 55 6 is_stmt 0 view .LVU68
 277 014a 13F0040F 		tst	r3, #4
 278 014e BED1     		bne	.L13
  57:APP/CtrPro.c  **** 				KFNEN;
 279              		.loc 1 57 5 is_stmt 1 view .LVU69
  57:APP/CtrPro.c  **** 				KFNEN;
 280              		.loc 1 57 29 is_stmt 0 view .LVU70
 281 0150 0D4A     		ldr	r2, .L28
 282 0152 9378     		ldrb	r3, [r2, #2]	@ zero_extendqisi2
 283 0154 43F00403 		orr	r3, r3, #4
 284 0158 9370     		strb	r3, [r2, #2]
  58:APP/CtrPro.c  **** 			}
 285              		.loc 1 58 5 is_stmt 1 view .LVU71
 286 015a 0D4B     		ldr	r3, .L28+8
 287 015c 1A69     		ldr	r2, [r3, #16]
 288 015e 5B69     		ldr	r3, [r3, #20]
 289 0160 9361     		str	r3, [r2, #24]
 290 0162 B4E7     		b	.L13
 291              	.L17:
  66:APP/CtrPro.c  **** 	}
 292              		.loc 1 66 4 view .LVU72
 293 0164 0A4A     		ldr	r2, .L28+8
 294 0166 D368     		ldr	r3, [r2, #12]
 295 0168 9268     		ldr	r2, [r2, #8]
 296 016a 1B04     		lsls	r3, r3, #16
 297 016c 9361     		str	r3, [r2, #24]
 298 016e 5EE7     		b	.L5
 299              	.L19:
  77:APP/CtrPro.c  **** 		KVOEN;
 300              		.loc 1 77 3 view .LVU73
  77:APP/CtrPro.c  **** 		KVOEN;
 301              		.loc 1 77 26 is_stmt 0 view .LVU74
 302 0170 054A     		ldr	r2, .L28
 303 0172 9379     		ldrb	r3, [r2, #6]	@ zero_extendqisi2
 304 0174 43F00203 		orr	r3, r3, #2
 305 0178 9371     		strb	r3, [r2, #6]
  78:APP/CtrPro.c  **** 	}
 306              		.loc 1 78 3 is_stmt 1 view .LVU75
 307 017a 054A     		ldr	r2, .L28+8
 308 017c D369     		ldr	r3, [r2, #28]
 309 017e 9269     		ldr	r2, [r2, #24]
 310 0180 1B04     		lsls	r3, r3, #16
 311 0182 9361     		str	r3, [r2, #24]
 312 0184 6DE7     		b	.L1
 313              	.L29:
 314 0186 00BF     		.align	2
 315              	.L28:
 316 0188 00000000 		.word	ParasChecker
 317 018c 00000000 		.word	Temputer
 318 0190 00000000 		.word	Ctrol
 319 0194 00000000 		.word	Vol
 320              		.cfi_endproc
 321              	.LFE65:
 323              		.section	.text.CtrPro,"ax",%progbits
 324              		.align	1
 325              		.global	CtrPro
ARM GAS  /var/folders/ww/n4ctlbrs3x70633t9y2ks63c0000gn/T//ccVPSiIt.s 			page 9


 326              		.syntax unified
 327              		.thumb
 328              		.thumb_func
 329              		.fpu softvfp
 331              	CtrPro:
 332              	.LFB66:
  81:APP/CtrPro.c  **** 
  82:APP/CtrPro.c  **** void CtrPro(void) 
  83:APP/CtrPro.c  **** {
 333              		.loc 1 83 1 view -0
 334              		.cfi_startproc
 335              		@ args = 0, pretend = 0, frame = 0
 336              		@ frame_needed = 0, uses_anonymous_args = 0
 337 0000 08B5     		push	{r3, lr}
 338              	.LCFI1:
 339              		.cfi_def_cfa_offset 8
 340              		.cfi_offset 3, -8
 341              		.cfi_offset 14, -4
  84:APP/CtrPro.c  **** 	switch (CtrStatus) 
 342              		.loc 1 84 2 view .LVU77
 343 0002 0E4B     		ldr	r3, .L35
 344 0004 1B78     		ldrb	r3, [r3]	@ zero_extendqisi2
 345 0006 012B     		cmp	r3, #1
 346 0008 06D0     		beq	.L31
 347 000a 5AB2     		sxtb	r2, r3
 348 000c 7AB1     		cbz	r2, .L32
 349 000e 022B     		cmp	r3, #2
 350 0010 01D1     		bne	.L30
  85:APP/CtrPro.c  **** 	{
  86:APP/CtrPro.c  **** 	case DOCTR:
  87:APP/CtrPro.c  **** 		doCtr();
 351              		.loc 1 87 3 view .LVU78
 352 0012 FFF7FEFF 		bl	doCtr
 353              	.LVL10:
  88:APP/CtrPro.c  **** 		break;
 354              		.loc 1 88 3 view .LVU79
 355              	.L30:
  89:APP/CtrPro.c  **** 
  90:APP/CtrPro.c  **** 	case CTRWAIT://Á≠âÂæÖÂêÑÈ°πÂèÇÊï∞ÈááÈõÜÁ®≥ÂÆöÂÜçËøõË°åÊéßÂà∂Á´ØÂè£ÁöÑÊéßÂà∂
  91:APP/CtrPro.c  **** 		if (Vol.complate)
  92:APP/CtrPro.c  **** 		{
  93:APP/CtrPro.c  **** 			doCtr();
  94:APP/CtrPro.c  **** 			CtrStatus = DOCTR;
  95:APP/CtrPro.c  **** 		}	
  96:APP/CtrPro.c  **** 		break;
  97:APP/CtrPro.c  **** 
  98:APP/CtrPro.c  **** 	case CTRINIT:
  99:APP/CtrPro.c  **** 		ControlIoInit();
 100:APP/CtrPro.c  **** 		CtrStatus = CTRWAIT;
 101:APP/CtrPro.c  **** 		break;
 102:APP/CtrPro.c  **** 	}
 103:APP/CtrPro.c  **** }
 356              		.loc 1 103 1 is_stmt 0 view .LVU80
 357 0016 08BD     		pop	{r3, pc}
 358              	.L31:
  91:APP/CtrPro.c  **** 		{
 359              		.loc 1 91 3 is_stmt 1 view .LVU81
ARM GAS  /var/folders/ww/n4ctlbrs3x70633t9y2ks63c0000gn/T//ccVPSiIt.s 			page 10


  91:APP/CtrPro.c  **** 		{
 360              		.loc 1 91 10 is_stmt 0 view .LVU82
 361 0018 094B     		ldr	r3, .L35+4
 362 001a 93F88930 		ldrb	r3, [r3, #137]	@ zero_extendqisi2
  91:APP/CtrPro.c  **** 		{
 363              		.loc 1 91 6 view .LVU83
 364 001e 002B     		cmp	r3, #0
 365 0020 F9D0     		beq	.L30
  93:APP/CtrPro.c  **** 			CtrStatus = DOCTR;
 366              		.loc 1 93 4 is_stmt 1 view .LVU84
 367 0022 FFF7FEFF 		bl	doCtr
 368              	.LVL11:
  94:APP/CtrPro.c  **** 		}	
 369              		.loc 1 94 4 view .LVU85
  94:APP/CtrPro.c  **** 		}	
 370              		.loc 1 94 14 is_stmt 0 view .LVU86
 371 0026 054B     		ldr	r3, .L35
 372 0028 0222     		movs	r2, #2
 373 002a 1A70     		strb	r2, [r3]
 374 002c F3E7     		b	.L30
 375              	.L32:
  99:APP/CtrPro.c  **** 		CtrStatus = CTRWAIT;
 376              		.loc 1 99 3 is_stmt 1 view .LVU87
 377 002e FFF7FEFF 		bl	ControlIoInit
 378              	.LVL12:
 100:APP/CtrPro.c  **** 		break;
 379              		.loc 1 100 3 view .LVU88
 100:APP/CtrPro.c  **** 		break;
 380              		.loc 1 100 13 is_stmt 0 view .LVU89
 381 0032 024B     		ldr	r3, .L35
 382 0034 0122     		movs	r2, #1
 383 0036 1A70     		strb	r2, [r3]
 101:APP/CtrPro.c  **** 	}
 384              		.loc 1 101 3 is_stmt 1 view .LVU90
 385              		.loc 1 103 1 is_stmt 0 view .LVU91
 386 0038 EDE7     		b	.L30
 387              	.L36:
 388 003a 00BF     		.align	2
 389              	.L35:
 390 003c 00000000 		.word	.LANCHOR0
 391 0040 00000000 		.word	Vol
 392              		.cfi_endproc
 393              	.LFE66:
 395              		.global	CtrStatus
 396              		.section	.bss.CtrStatus,"aw",%nobits
 397              		.set	.LANCHOR0,. + 0
 400              	CtrStatus:
 401 0000 00       		.space	1
 402              		.text
 403              	.Letext0:
 404              		.file 2 "/Users/shuuyou/gcc-arm-none-eabi/arm-none-eabi/include/machine/_default_types.h"
 405              		.file 3 "/Users/shuuyou/gcc-arm-none-eabi/arm-none-eabi/include/sys/_stdint.h"
 406              		.file 4 "Inc/stm32l152xe.h"
 407              		.file 5 "/Users/shuuyou/gcc-arm-none-eabi/lib/gcc/arm-none-eabi/8.3.1/include/stddef.h"
 408              		.file 6 "/Users/shuuyou/gcc-arm-none-eabi/arm-none-eabi/include/sys/_types.h"
 409              		.file 7 "/Users/shuuyou/gcc-arm-none-eabi/arm-none-eabi/include/sys/reent.h"
 410              		.file 8 "/Users/shuuyou/gcc-arm-none-eabi/arm-none-eabi/include/sys/lock.h"
ARM GAS  /var/folders/ww/n4ctlbrs3x70633t9y2ks63c0000gn/T//ccVPSiIt.s 			page 11


 411              		.file 9 "Inc/core_cm3.h"
 412              		.file 10 "APP/inc/Public.h"
 413              		.file 11 "RML1028B/RML1028B.h"
 414              		.file 12 "HARDWARE/inc/Temputer.h"
 415              		.file 13 "HARDWARE/inc/Adc.h"
 416              		.file 14 "HARDWARE/inc/Timer.h"
 417              		.file 15 "HARDWARE/inc/Control.h"
 418              		.file 16 "TOOL/inc/malloc.h"
 419              		.file 17 "TOOL/inc/TaskManger.h"
 420              		.file 18 "DISPALY/inc/DispManger.h"
 421              		.file 19 "TOOL/inc/CrcUtil.h"
 422              		.file 20 "APP/inc/VolPro.h"
 423              		.file 21 "APP/inc/FreqPro.h"
 424              		.file 22 "APP/inc/ParasCheckPro.h"
 425              		.file 23 "APP/inc/TemputerPro.h"
 426              		.file 24 "APP/inc/CtrPro.h"
 427              		.file 25 "DISPALY/inc/CurInfoPage.h"
ARM GAS  /var/folders/ww/n4ctlbrs3x70633t9y2ks63c0000gn/T//ccVPSiIt.s 			page 12

