ARM GAS  /var/folders/ww/n4ctlbrs3x70633t9y2ks63c0000gn/T//ccG34HTr.s 			page 1


   1              		.cpu cortex-m3
   2              		.eabi_attribute 20, 1
   3              		.eabi_attribute 21, 1
   4              		.eabi_attribute 23, 3
   5              		.eabi_attribute 24, 1
   6              		.eabi_attribute 25, 1
   7              		.eabi_attribute 26, 1
   8              		.eabi_attribute 30, 1
   9              		.eabi_attribute 34, 1
  10              		.eabi_attribute 18, 4
  11              		.file	"DispManger.c"
  12              		.text
  13              	.Ltext0:
  14              		.cfi_sections	.debug_frame
  15              		.section	.text.PageJump,"ax",%progbits
  16              		.align	1
  17              		.global	PageJump
  18              		.arch armv7-m
  19              		.syntax unified
  20              		.thumb
  21              		.thumb_func
  22              		.fpu softvfp
  24              	PageJump:
  25              	.LVL0:
  26              	.LFB65:
  27              		.file 1 "DISPALY/DISPMANGER/DispManger.c"
   1:DISPALY/DISPMANGER/DispManger.c **** #include "DispManger.h"
   2:DISPALY/DISPMANGER/DispManger.c **** 
   3:DISPALY/DISPMANGER/DispManger.c **** _Page* CurPage ;
   4:DISPALY/DISPMANGER/DispManger.c **** 
   5:DISPALY/DISPMANGER/DispManger.c **** //页面跳转
   6:DISPALY/DISPMANGER/DispManger.c **** void PageJump(_Page* toPage)
   7:DISPALY/DISPMANGER/DispManger.c **** {
  28              		.loc 1 7 1 view -0
  29              		.cfi_startproc
  30              		@ args = 0, pretend = 0, frame = 0
  31              		@ frame_needed = 0, uses_anonymous_args = 0
  32              		.loc 1 7 1 is_stmt 0 view .LVU1
  33 0000 38B5     		push	{r3, r4, r5, lr}
  34              	.LCFI0:
  35              		.cfi_def_cfa_offset 16
  36              		.cfi_offset 3, -16
  37              		.cfi_offset 4, -12
  38              		.cfi_offset 5, -8
  39              		.cfi_offset 14, -4
  40 0002 0546     		mov	r5, r0
   8:DISPALY/DISPMANGER/DispManger.c **** 	CurPage->ExitPage();	//退出当前页面
  41              		.loc 1 8 2 is_stmt 1 view .LVU2
  42              		.loc 1 8 9 is_stmt 0 view .LVU3
  43 0004 044C     		ldr	r4, .L3
  44 0006 2368     		ldr	r3, [r4]
  45 0008 9B68     		ldr	r3, [r3, #8]
  46              		.loc 1 8 2 view .LVU4
  47 000a 9847     		blx	r3
  48              	.LVL1:
   9:DISPALY/DISPMANGER/DispManger.c **** 	toPage->EnterPage();	//进入目标页面
  49              		.loc 1 9 2 is_stmt 1 view .LVU5
ARM GAS  /var/folders/ww/n4ctlbrs3x70633t9y2ks63c0000gn/T//ccG34HTr.s 			page 2


  50              		.loc 1 9 8 is_stmt 0 view .LVU6
  51 000c 6B68     		ldr	r3, [r5, #4]
  52              		.loc 1 9 2 view .LVU7
  53 000e 9847     		blx	r3
  54              	.LVL2:
  10:DISPALY/DISPMANGER/DispManger.c **** 	toPage->pre = CurPage;	//标记从当前页面跳转到目标页面
  55              		.loc 1 10 2 is_stmt 1 view .LVU8
  56              		.loc 1 10 14 is_stmt 0 view .LVU9
  57 0010 2368     		ldr	r3, [r4]
  58 0012 2B60     		str	r3, [r5]
  11:DISPALY/DISPMANGER/DispManger.c **** 	CurPage = toPage;
  59              		.loc 1 11 2 is_stmt 1 view .LVU10
  60              		.loc 1 11 10 is_stmt 0 view .LVU11
  61 0014 2560     		str	r5, [r4]
  12:DISPALY/DISPMANGER/DispManger.c **** }
  62              		.loc 1 12 1 view .LVU12
  63 0016 38BD     		pop	{r3, r4, r5, pc}
  64              	.LVL3:
  65              	.L4:
  66              		.loc 1 12 1 view .LVU13
  67              		.align	2
  68              	.L3:
  69 0018 00000000 		.word	CurPage
  70              		.cfi_endproc
  71              	.LFE65:
  73              		.section	.text.Disp_KeyHandler,"ax",%progbits
  74              		.align	1
  75              		.global	Disp_KeyHandler
  76              		.syntax unified
  77              		.thumb
  78              		.thumb_func
  79              		.fpu softvfp
  81              	Disp_KeyHandler:
  82              	.LVL4:
  83              	.LFB66:
  13:DISPALY/DISPMANGER/DispManger.c **** 
  14:DISPALY/DISPMANGER/DispManger.c **** //按键按下后由此接口调用当前界面的对应按键处理函数
  15:DISPALY/DISPMANGER/DispManger.c **** void Disp_KeyHandler(_KeyVal val)
  16:DISPALY/DISPMANGER/DispManger.c **** {
  84              		.loc 1 16 1 is_stmt 1 view -0
  85              		.cfi_startproc
  86              		@ args = 0, pretend = 0, frame = 0
  87              		@ frame_needed = 0, uses_anonymous_args = 0
  88              		.loc 1 16 1 is_stmt 0 view .LVU15
  89 0000 08B5     		push	{r3, lr}
  90              	.LCFI1:
  91              		.cfi_def_cfa_offset 8
  92              		.cfi_offset 3, -8
  93              		.cfi_offset 14, -4
  17:DISPALY/DISPMANGER/DispManger.c **** 	switch(val)
  94              		.loc 1 17 2 is_stmt 1 view .LVU16
  95 0002 0528     		cmp	r0, #5
  96 0004 08D8     		bhi	.L5
  97 0006 DFE800F0 		tbb	[pc, r0]
  98              	.L8:
  99 000a 03       		.byte	(.L13-.L8)/2
 100 000b 08       		.byte	(.L12-.L8)/2
ARM GAS  /var/folders/ww/n4ctlbrs3x70633t9y2ks63c0000gn/T//ccG34HTr.s 			page 3


 101 000c 0D       		.byte	(.L11-.L8)/2
 102 000d 12       		.byte	(.L10-.L8)/2
 103 000e 17       		.byte	(.L9-.L8)/2
 104 000f 1C       		.byte	(.L7-.L8)/2
 105              		.p2align 1
 106              	.L13:
  18:DISPALY/DISPMANGER/DispManger.c **** 	{
  19:DISPALY/DISPMANGER/DispManger.c **** 		case KEY_UP:
  20:DISPALY/DISPMANGER/DispManger.c **** 			CurPage->UpKeyHandler();
 107              		.loc 1 20 4 view .LVU17
 108              		.loc 1 20 11 is_stmt 0 view .LVU18
 109 0010 0E4B     		ldr	r3, .L15
 110 0012 1B68     		ldr	r3, [r3]
 111 0014 DB68     		ldr	r3, [r3, #12]
 112              		.loc 1 20 4 view .LVU19
 113 0016 9847     		blx	r3
 114              	.LVL5:
  21:DISPALY/DISPMANGER/DispManger.c **** 			break;
 115              		.loc 1 21 4 is_stmt 1 view .LVU20
 116              	.L5:
  22:DISPALY/DISPMANGER/DispManger.c **** 		case KEY_DOWN:
  23:DISPALY/DISPMANGER/DispManger.c **** 			CurPage->DownKeyHandler();
  24:DISPALY/DISPMANGER/DispManger.c **** 			break;
  25:DISPALY/DISPMANGER/DispManger.c **** 		case KEY_LEFT:
  26:DISPALY/DISPMANGER/DispManger.c **** 			CurPage->LeftKeyHandler();
  27:DISPALY/DISPMANGER/DispManger.c **** 			break;
  28:DISPALY/DISPMANGER/DispManger.c **** 		case KEY_RIGHT:
  29:DISPALY/DISPMANGER/DispManger.c **** 			CurPage->RightHandler();
  30:DISPALY/DISPMANGER/DispManger.c **** 			break;
  31:DISPALY/DISPMANGER/DispManger.c **** 		case KEY_ENTER:
  32:DISPALY/DISPMANGER/DispManger.c **** 			CurPage->EnterKeyHandler();
  33:DISPALY/DISPMANGER/DispManger.c **** 			break;
  34:DISPALY/DISPMANGER/DispManger.c **** 		case KEY_EXIT:
  35:DISPALY/DISPMANGER/DispManger.c **** 			CurPage->EnterKeyHandler();
  36:DISPALY/DISPMANGER/DispManger.c **** 			break;
  37:DISPALY/DISPMANGER/DispManger.c **** 	}
  38:DISPALY/DISPMANGER/DispManger.c **** }
 117              		.loc 1 38 1 is_stmt 0 view .LVU21
 118 0018 08BD     		pop	{r3, pc}
 119              	.LVL6:
 120              	.L12:
  23:DISPALY/DISPMANGER/DispManger.c **** 			break;
 121              		.loc 1 23 4 is_stmt 1 view .LVU22
  23:DISPALY/DISPMANGER/DispManger.c **** 			break;
 122              		.loc 1 23 11 is_stmt 0 view .LVU23
 123 001a 0C4B     		ldr	r3, .L15
 124 001c 1B68     		ldr	r3, [r3]
 125 001e 1B69     		ldr	r3, [r3, #16]
  23:DISPALY/DISPMANGER/DispManger.c **** 			break;
 126              		.loc 1 23 4 view .LVU24
 127 0020 9847     		blx	r3
 128              	.LVL7:
  24:DISPALY/DISPMANGER/DispManger.c **** 		case KEY_LEFT:
 129              		.loc 1 24 4 is_stmt 1 view .LVU25
 130 0022 F9E7     		b	.L5
 131              	.LVL8:
 132              	.L11:
ARM GAS  /var/folders/ww/n4ctlbrs3x70633t9y2ks63c0000gn/T//ccG34HTr.s 			page 4


  26:DISPALY/DISPMANGER/DispManger.c **** 			break;
 133              		.loc 1 26 4 view .LVU26
  26:DISPALY/DISPMANGER/DispManger.c **** 			break;
 134              		.loc 1 26 11 is_stmt 0 view .LVU27
 135 0024 094B     		ldr	r3, .L15
 136 0026 1B68     		ldr	r3, [r3]
 137 0028 5B69     		ldr	r3, [r3, #20]
  26:DISPALY/DISPMANGER/DispManger.c **** 			break;
 138              		.loc 1 26 4 view .LVU28
 139 002a 9847     		blx	r3
 140              	.LVL9:
  27:DISPALY/DISPMANGER/DispManger.c **** 		case KEY_RIGHT:
 141              		.loc 1 27 4 is_stmt 1 view .LVU29
 142 002c F4E7     		b	.L5
 143              	.LVL10:
 144              	.L10:
  29:DISPALY/DISPMANGER/DispManger.c **** 			break;
 145              		.loc 1 29 4 view .LVU30
  29:DISPALY/DISPMANGER/DispManger.c **** 			break;
 146              		.loc 1 29 11 is_stmt 0 view .LVU31
 147 002e 074B     		ldr	r3, .L15
 148 0030 1B68     		ldr	r3, [r3]
 149 0032 9B69     		ldr	r3, [r3, #24]
  29:DISPALY/DISPMANGER/DispManger.c **** 			break;
 150              		.loc 1 29 4 view .LVU32
 151 0034 9847     		blx	r3
 152              	.LVL11:
  30:DISPALY/DISPMANGER/DispManger.c **** 		case KEY_ENTER:
 153              		.loc 1 30 4 is_stmt 1 view .LVU33
 154 0036 EFE7     		b	.L5
 155              	.LVL12:
 156              	.L9:
  32:DISPALY/DISPMANGER/DispManger.c **** 			break;
 157              		.loc 1 32 4 view .LVU34
  32:DISPALY/DISPMANGER/DispManger.c **** 			break;
 158              		.loc 1 32 11 is_stmt 0 view .LVU35
 159 0038 044B     		ldr	r3, .L15
 160 003a 1B68     		ldr	r3, [r3]
 161 003c DB69     		ldr	r3, [r3, #28]
  32:DISPALY/DISPMANGER/DispManger.c **** 			break;
 162              		.loc 1 32 4 view .LVU36
 163 003e 9847     		blx	r3
 164              	.LVL13:
  33:DISPALY/DISPMANGER/DispManger.c **** 		case KEY_EXIT:
 165              		.loc 1 33 4 is_stmt 1 view .LVU37
 166 0040 EAE7     		b	.L5
 167              	.LVL14:
 168              	.L7:
  35:DISPALY/DISPMANGER/DispManger.c **** 			break;
 169              		.loc 1 35 4 view .LVU38
  35:DISPALY/DISPMANGER/DispManger.c **** 			break;
 170              		.loc 1 35 11 is_stmt 0 view .LVU39
 171 0042 024B     		ldr	r3, .L15
 172 0044 1B68     		ldr	r3, [r3]
 173 0046 DB69     		ldr	r3, [r3, #28]
  35:DISPALY/DISPMANGER/DispManger.c **** 			break;
 174              		.loc 1 35 4 view .LVU40
ARM GAS  /var/folders/ww/n4ctlbrs3x70633t9y2ks63c0000gn/T//ccG34HTr.s 			page 5


 175 0048 9847     		blx	r3
 176              	.LVL15:
  36:DISPALY/DISPMANGER/DispManger.c **** 	}
 177              		.loc 1 36 4 is_stmt 1 view .LVU41
 178              		.loc 1 38 1 is_stmt 0 view .LVU42
 179 004a E5E7     		b	.L5
 180              	.L16:
 181              		.align	2
 182              	.L15:
 183 004c 00000000 		.word	CurPage
 184              		.cfi_endproc
 185              	.LFE66:
 187              		.section	.text.DispInit,"ax",%progbits
 188              		.align	1
 189              		.global	DispInit
 190              		.syntax unified
 191              		.thumb
 192              		.thumb_func
 193              		.fpu softvfp
 195              	DispInit:
 196              	.LFB67:
  39:DISPALY/DISPMANGER/DispManger.c **** 
  40:DISPALY/DISPMANGER/DispManger.c **** 
  41:DISPALY/DISPMANGER/DispManger.c **** void DispInit(void)
  42:DISPALY/DISPMANGER/DispManger.c **** {
 197              		.loc 1 42 1 is_stmt 1 view -0
 198              		.cfi_startproc
 199              		@ args = 0, pretend = 0, frame = 0
 200              		@ frame_needed = 0, uses_anonymous_args = 0
 201 0000 08B5     		push	{r3, lr}
 202              	.LCFI2:
 203              		.cfi_def_cfa_offset 8
 204              		.cfi_offset 3, -8
 205              		.cfi_offset 14, -4
  43:DISPALY/DISPMANGER/DispManger.c **** 	RML1028B_Init();				//初始化LCD控制器
 206              		.loc 1 43 2 view .LVU44
 207 0002 FFF7FEFF 		bl	RML1028B_Init
 208              	.LVL16:
  44:DISPALY/DISPMANGER/DispManger.c **** 	CurPage = &CurInfoPage;
 209              		.loc 1 44 2 view .LVU45
 210              		.loc 1 44 10 is_stmt 0 view .LVU46
 211 0006 0348     		ldr	r0, .L19
 212 0008 034B     		ldr	r3, .L19+4
 213 000a 1860     		str	r0, [r3]
  45:DISPALY/DISPMANGER/DispManger.c **** 	PageJump(&CurInfoPage);
 214              		.loc 1 45 2 is_stmt 1 view .LVU47
 215 000c FFF7FEFF 		bl	PageJump
 216              	.LVL17:
  46:DISPALY/DISPMANGER/DispManger.c **** }
 217              		.loc 1 46 1 is_stmt 0 view .LVU48
 218 0010 08BD     		pop	{r3, pc}
 219              	.L20:
 220 0012 00BF     		.align	2
 221              	.L19:
 222 0014 00000000 		.word	CurInfoPage
 223 0018 00000000 		.word	CurPage
 224              		.cfi_endproc
ARM GAS  /var/folders/ww/n4ctlbrs3x70633t9y2ks63c0000gn/T//ccG34HTr.s 			page 6


 225              	.LFE67:
 227              		.comm	CurPage,4,4
 228              		.text
 229              	.Letext0:
 230              		.file 2 "/Users/shuuyou/gcc-arm-none-eabi/arm-none-eabi/include/machine/_default_types.h"
 231              		.file 3 "/Users/shuuyou/gcc-arm-none-eabi/arm-none-eabi/include/sys/_stdint.h"
 232              		.file 4 "Inc/stm32l152xe.h"
 233              		.file 5 "/Users/shuuyou/gcc-arm-none-eabi/lib/gcc/arm-none-eabi/8.3.1/include/stddef.h"
 234              		.file 6 "/Users/shuuyou/gcc-arm-none-eabi/arm-none-eabi/include/sys/_types.h"
 235              		.file 7 "/Users/shuuyou/gcc-arm-none-eabi/arm-none-eabi/include/sys/reent.h"
 236              		.file 8 "/Users/shuuyou/gcc-arm-none-eabi/arm-none-eabi/include/sys/lock.h"
 237              		.file 9 "Inc/core_cm3.h"
 238              		.file 10 "APP/inc/Public.h"
 239              		.file 11 "RML1028B/RML1028B.h"
 240              		.file 12 "HARDWARE/inc/Temputer.h"
 241              		.file 13 "HARDWARE/inc/Adc.h"
 242              		.file 14 "HARDWARE/inc/Timer.h"
 243              		.file 15 "HARDWARE/inc/Control.h"
 244              		.file 16 "TOOL/inc/malloc.h"
 245              		.file 17 "TOOL/inc/TaskManger.h"
 246              		.file 18 "TOOL/inc/CrcUtil.h"
 247              		.file 19 "APP/inc/VolPro.h"
 248              		.file 20 "APP/inc/FreqPro.h"
 249              		.file 21 "APP/inc/ParasCheckPro.h"
 250              		.file 22 "APP/inc/TemputerPro.h"
 251              		.file 23 "DISPALY/inc/DispManger.h"
ARM GAS  /var/folders/ww/n4ctlbrs3x70633t9y2ks63c0000gn/T//ccG34HTr.s 			page 7

