ARM GAS  /var/folders/ww/n4ctlbrs3x70633t9y2ks63c0000gn/T//ccOcC6BY.s 			page 1


   1              		.cpu cortex-m3
   2              		.eabi_attribute 20, 1
   3              		.eabi_attribute 21, 1
   4              		.eabi_attribute 23, 3
   5              		.eabi_attribute 24, 1
   6              		.eabi_attribute 25, 1
   7              		.eabi_attribute 26, 1
   8              		.eabi_attribute 30, 1
   9              		.eabi_attribute 34, 1
  10              		.eabi_attribute 18, 4
  11              		.file	"ParasCheckPro.c"
  12              		.text
  13              	.Ltext0:
  14              		.cfi_sections	.debug_frame
  15              		.section	.text.CheckVac,"ax",%progbits
  16              		.align	1
  17              		.global	CheckVac
  18              		.arch armv7-m
  19              		.syntax unified
  20              		.thumb
  21              		.thumb_func
  22              		.fpu softvfp
  24              	CheckVac:
  25              	.LFB65:
  26              		.file 1 "APP/ParasCheckPro.c"
   1:APP/ParasCheckPro.c **** #include "ParasCheckPro.h"
   2:APP/ParasCheckPro.c **** 
   3:APP/ParasCheckPro.c **** extern u8 volComplt;
   4:APP/ParasCheckPro.c **** 
   5:APP/ParasCheckPro.c **** _ParasChecker ParasChecker = {
   6:APP/ParasCheckPro.c **** 	.errflag = 0,
   7:APP/ParasCheckPro.c **** 	.chargeflag = 0,
   8:APP/ParasCheckPro.c **** 	.volerrflag = 0,
   9:APP/ParasCheckPro.c **** 	.currentflag = 0,
  10:APP/ParasCheckPro.c **** 	.inoutflag = 0,
  11:APP/ParasCheckPro.c **** };
  12:APP/ParasCheckPro.c **** 
  13:APP/ParasCheckPro.c **** //判断市电输入是否正常
  14:APP/ParasCheckPro.c **** void CheckVac(void)
  15:APP/ParasCheckPro.c **** {
  27              		.loc 1 15 1 view -0
  28              		.cfi_startproc
  29              		@ args = 0, pretend = 0, frame = 0
  30              		@ frame_needed = 0, uses_anonymous_args = 0
  31              		@ link register save eliminated.
  16:APP/ParasCheckPro.c **** 	if(Vol.VAC > 240)
  32              		.loc 1 16 2 view .LVU1
  33              		.loc 1 16 8 is_stmt 0 view .LVU2
  34 0000 194B     		ldr	r3, .L8
  35 0002 93F86630 		ldrb	r3, [r3, #102]	@ zero_extendqisi2
  36              		.loc 1 16 4 view .LVU3
  37 0006 F02B     		cmp	r3, #240
  38 0008 22D9     		bls	.L2
  17:APP/ParasCheckPro.c **** 		ParasChecker.errflag |=  0x08;		//标记市电过压（E4）
  39              		.loc 1 17 3 is_stmt 1 view .LVU4
  40              		.loc 1 17 24 is_stmt 0 view .LVU5
  41 000a 1849     		ldr	r1, .L8+4
ARM GAS  /var/folders/ww/n4ctlbrs3x70633t9y2ks63c0000gn/T//ccOcC6BY.s 			page 2


  42 000c 8A88     		ldrh	r2, [r1, #4]
  43 000e 42F00802 		orr	r2, r2, #8
  44 0012 8A80     		strh	r2, [r1, #4]	@ movhi
  45              	.L3:
  18:APP/ParasCheckPro.c **** 	else
  19:APP/ParasCheckPro.c **** 		ParasChecker.errflag &= ~0x08;		//清除市电过压（E4）
  20:APP/ParasCheckPro.c **** 	
  21:APP/ParasCheckPro.c **** 	if(Vol.VAC < 200)
  46              		.loc 1 21 2 is_stmt 1 view .LVU6
  47              		.loc 1 21 4 is_stmt 0 view .LVU7
  48 0014 C72B     		cmp	r3, #199
  49 0016 21D8     		bhi	.L4
  22:APP/ParasCheckPro.c **** 		ParasChecker.errflag |=  0x10;		//标记市电欠压（E5）
  50              		.loc 1 22 3 is_stmt 1 view .LVU8
  51              		.loc 1 22 24 is_stmt 0 view .LVU9
  52 0018 144A     		ldr	r2, .L8+4
  53 001a 9388     		ldrh	r3, [r2, #4]
  54 001c 43F01003 		orr	r3, r3, #16
  55 0020 9380     		strh	r3, [r2, #4]	@ movhi
  56              	.L5:
  23:APP/ParasCheckPro.c **** 	else
  24:APP/ParasCheckPro.c **** 		ParasChecker.errflag &= ~0x10;		//清除市电欠压（E5）
  25:APP/ParasCheckPro.c **** 	
  26:APP/ParasCheckPro.c **** 	if((Vol.VAC > VACMAX) || (Vol.VAC < VACMIN))
  57              		.loc 1 26 2 is_stmt 1 view .LVU10
  58              		.loc 1 26 9 is_stmt 0 view .LVU11
  59 0022 114B     		ldr	r3, .L8
  60 0024 93F86630 		ldrb	r3, [r3, #102]	@ zero_extendqisi2
  61              		.loc 1 26 24 view .LVU12
  62 0028 03F14002 		add	r2, r3, #64
  63 002c D2B2     		uxtb	r2, r2
  64              		.loc 1 26 4 view .LVU13
  65 002e 382A     		cmp	r2, #56
  66 0030 04D9     		bls	.L6
  27:APP/ParasCheckPro.c **** 		ParasChecker.volerrflag |= 0x01;	//标记市电输入异常
  67              		.loc 1 27 3 is_stmt 1 view .LVU14
  68              		.loc 1 27 27 is_stmt 0 view .LVU15
  69 0032 0E49     		ldr	r1, .L8+4
  70 0034 4A78     		ldrb	r2, [r1, #1]	@ zero_extendqisi2
  71 0036 42F00102 		orr	r2, r2, #1
  72 003a 4A70     		strb	r2, [r1, #1]
  73              	.L6:
  28:APP/ParasCheckPro.c **** 	if((Vol.VAC < (VACMAX-10)) && (Vol.VAC > (VACMIN+10)))
  74              		.loc 1 28 2 is_stmt 1 view .LVU16
  75              		.loc 1 28 29 is_stmt 0 view .LVU17
  76 003c 3533     		adds	r3, r3, #53
  77 003e DBB2     		uxtb	r3, r3
  78              		.loc 1 28 4 view .LVU18
  79 0040 222B     		cmp	r3, #34
  80 0042 04D8     		bhi	.L1
  29:APP/ParasCheckPro.c **** 		ParasChecker.volerrflag &= ~0x01;
  81              		.loc 1 29 3 is_stmt 1 view .LVU19
  82              		.loc 1 29 27 is_stmt 0 view .LVU20
  83 0044 094A     		ldr	r2, .L8+4
  84 0046 5378     		ldrb	r3, [r2, #1]	@ zero_extendqisi2
  85 0048 23F00103 		bic	r3, r3, #1
  86 004c 5370     		strb	r3, [r2, #1]
ARM GAS  /var/folders/ww/n4ctlbrs3x70633t9y2ks63c0000gn/T//ccOcC6BY.s 			page 3


  87              	.L1:
  30:APP/ParasCheckPro.c **** }
  88              		.loc 1 30 1 view .LVU21
  89 004e 7047     		bx	lr
  90              	.L2:
  19:APP/ParasCheckPro.c **** 	
  91              		.loc 1 19 3 is_stmt 1 view .LVU22
  19:APP/ParasCheckPro.c **** 	
  92              		.loc 1 19 24 is_stmt 0 view .LVU23
  93 0050 0649     		ldr	r1, .L8+4
  94 0052 8A88     		ldrh	r2, [r1, #4]
  95 0054 22F00802 		bic	r2, r2, #8
  96 0058 8A80     		strh	r2, [r1, #4]	@ movhi
  97 005a DBE7     		b	.L3
  98              	.L4:
  24:APP/ParasCheckPro.c **** 	
  99              		.loc 1 24 3 is_stmt 1 view .LVU24
  24:APP/ParasCheckPro.c **** 	
 100              		.loc 1 24 24 is_stmt 0 view .LVU25
 101 005c 034A     		ldr	r2, .L8+4
 102 005e 9388     		ldrh	r3, [r2, #4]
 103 0060 23F01003 		bic	r3, r3, #16
 104 0064 9380     		strh	r3, [r2, #4]	@ movhi
 105 0066 DCE7     		b	.L5
 106              	.L9:
 107              		.align	2
 108              	.L8:
 109 0068 00000000 		.word	Vol
 110 006c 00000000 		.word	.LANCHOR0
 111              		.cfi_endproc
 112              	.LFE65:
 114              		.global	__aeabi_fcmpgt
 115              		.global	__aeabi_fcmplt
 116              		.section	.text.CheckVfn,"ax",%progbits
 117              		.align	1
 118              		.global	CheckVfn
 119              		.syntax unified
 120              		.thumb
 121              		.thumb_func
 122              		.fpu softvfp
 124              	CheckVfn:
 125              	.LFB66:
  31:APP/ParasCheckPro.c **** 
  32:APP/ParasCheckPro.c **** //判断风能输入是否异常
  33:APP/ParasCheckPro.c **** void CheckVfn(void)
  34:APP/ParasCheckPro.c **** {
 126              		.loc 1 34 1 is_stmt 1 view -0
 127              		.cfi_startproc
 128              		@ args = 0, pretend = 0, frame = 0
 129              		@ frame_needed = 0, uses_anonymous_args = 0
 130 0000 10B5     		push	{r4, lr}
 131              	.LCFI0:
 132              		.cfi_def_cfa_offset 8
 133              		.cfi_offset 4, -8
 134              		.cfi_offset 14, -4
  35:APP/ParasCheckPro.c **** 	if(Vol.VFN > 28)
 135              		.loc 1 35 2 view .LVU27
ARM GAS  /var/folders/ww/n4ctlbrs3x70633t9y2ks63c0000gn/T//ccOcC6BY.s 			page 4


 136              		.loc 1 35 8 is_stmt 0 view .LVU28
 137 0002 1D4B     		ldr	r3, .L28
 138 0004 9C6E     		ldr	r4, [r3, #104]	@ float
 139              		.loc 1 35 4 view .LVU29
 140 0006 1D49     		ldr	r1, .L28+4
 141 0008 2046     		mov	r0, r4
 142 000a FFF7FEFF 		bl	__aeabi_fcmpgt
 143              	.LVL0:
 144 000e 00B3     		cbz	r0, .L25
  36:APP/ParasCheckPro.c **** 		ParasChecker.errflag |=  0x20;		//标记风能过压（E6）
 145              		.loc 1 36 3 is_stmt 1 view .LVU30
 146              		.loc 1 36 24 is_stmt 0 view .LVU31
 147 0010 1B4A     		ldr	r2, .L28+8
 148 0012 9388     		ldrh	r3, [r2, #4]
 149 0014 43F02003 		orr	r3, r3, #32
 150 0018 9380     		strh	r3, [r2, #4]	@ movhi
 151              	.L13:
  37:APP/ParasCheckPro.c **** 	else
  38:APP/ParasCheckPro.c **** 		ParasChecker.errflag &= ~0x20;		//清除风能过压标记
  39:APP/ParasCheckPro.c **** 	
  40:APP/ParasCheckPro.c **** 	if(Vol.VFN < 22)
 152              		.loc 1 40 2 is_stmt 1 view .LVU32
 153              		.loc 1 40 4 is_stmt 0 view .LVU33
 154 001a 1A49     		ldr	r1, .L28+12
 155 001c 2046     		mov	r0, r4
 156 001e FFF7FEFF 		bl	__aeabi_fcmplt
 157              	.LVL1:
 158 0022 E0B1     		cbz	r0, .L26
  41:APP/ParasCheckPro.c **** 		ParasChecker.errflag |=  0x40;		//标记风能欠压（E7）
 159              		.loc 1 41 3 is_stmt 1 view .LVU34
 160              		.loc 1 41 24 is_stmt 0 view .LVU35
 161 0024 164A     		ldr	r2, .L28+8
 162 0026 9388     		ldrh	r3, [r2, #4]
 163 0028 43F04003 		orr	r3, r3, #64
 164 002c 9380     		strh	r3, [r2, #4]	@ movhi
 165              	.L16:
  42:APP/ParasCheckPro.c **** 	else
  43:APP/ParasCheckPro.c **** 		ParasChecker.errflag &= ~0x40;		//清除风能欠压标记
  44:APP/ParasCheckPro.c **** 	
  45:APP/ParasCheckPro.c **** 	if((Vol.VFN < VFNMAX) && (Vol.VFN > VFNMIN))
 166              		.loc 1 45 2 is_stmt 1 view .LVU36
 167              		.loc 1 45 9 is_stmt 0 view .LVU37
 168 002e 124B     		ldr	r3, .L28
 169 0030 9C6E     		ldr	r4, [r3, #104]	@ float
 170              		.loc 1 45 4 view .LVU38
 171 0032 1549     		ldr	r1, .L28+16
 172 0034 2046     		mov	r0, r4
 173 0036 FFF7FEFF 		bl	__aeabi_fcmplt
 174              	.LVL2:
 175 003a B0B1     		cbz	r0, .L17
 176              		.loc 1 45 24 discriminator 1 view .LVU39
 177 003c 1349     		ldr	r1, .L28+20
 178 003e 2046     		mov	r0, r4
 179 0040 FFF7FEFF 		bl	__aeabi_fcmpgt
 180              	.LVL3:
 181 0044 88B1     		cbz	r0, .L17
  46:APP/ParasCheckPro.c **** 		ParasChecker.volerrflag &= ~0x02;	//清除风能异常标记
ARM GAS  /var/folders/ww/n4ctlbrs3x70633t9y2ks63c0000gn/T//ccOcC6BY.s 			page 5


 182              		.loc 1 46 3 is_stmt 1 view .LVU40
 183              		.loc 1 46 27 is_stmt 0 view .LVU41
 184 0046 0E4A     		ldr	r2, .L28+8
 185 0048 5378     		ldrb	r3, [r2, #1]	@ zero_extendqisi2
 186 004a 23F00203 		bic	r3, r3, #2
 187 004e 5370     		strb	r3, [r2, #1]
 188 0050 10E0     		b	.L10
 189              	.L25:
  38:APP/ParasCheckPro.c **** 	
 190              		.loc 1 38 3 is_stmt 1 view .LVU42
  38:APP/ParasCheckPro.c **** 	
 191              		.loc 1 38 24 is_stmt 0 view .LVU43
 192 0052 0B4A     		ldr	r2, .L28+8
 193 0054 9388     		ldrh	r3, [r2, #4]
 194 0056 23F02003 		bic	r3, r3, #32
 195 005a 9380     		strh	r3, [r2, #4]	@ movhi
 196 005c DDE7     		b	.L13
 197              	.L26:
  43:APP/ParasCheckPro.c **** 	
 198              		.loc 1 43 3 is_stmt 1 view .LVU44
  43:APP/ParasCheckPro.c **** 	
 199              		.loc 1 43 24 is_stmt 0 view .LVU45
 200 005e 084A     		ldr	r2, .L28+8
 201 0060 9388     		ldrh	r3, [r2, #4]
 202 0062 23F04003 		bic	r3, r3, #64
 203 0066 9380     		strh	r3, [r2, #4]	@ movhi
 204 0068 E1E7     		b	.L16
 205              	.L17:
  47:APP/ParasCheckPro.c **** 	else
  48:APP/ParasCheckPro.c **** 		ParasChecker.volerrflag |= 0x02;	//标记风能输入异常
 206              		.loc 1 48 3 is_stmt 1 view .LVU46
 207              		.loc 1 48 27 is_stmt 0 view .LVU47
 208 006a 054A     		ldr	r2, .L28+8
 209 006c 5378     		ldrb	r3, [r2, #1]	@ zero_extendqisi2
 210 006e 43F00203 		orr	r3, r3, #2
 211 0072 5370     		strb	r3, [r2, #1]
 212              	.L10:
  49:APP/ParasCheckPro.c **** }
 213              		.loc 1 49 1 view .LVU48
 214 0074 10BD     		pop	{r4, pc}
 215              	.L29:
 216 0076 00BF     		.align	2
 217              	.L28:
 218 0078 00000000 		.word	Vol
 219 007c 0000E041 		.word	1105199104
 220 0080 00000000 		.word	.LANCHOR0
 221 0084 0000B041 		.word	1102053376
 222 0088 0000F041 		.word	1106247680
 223 008c 00009041 		.word	1099956224
 224              		.cfi_endproc
 225              	.LFE66:
 227              		.section	.text.CheckVty,"ax",%progbits
 228              		.align	1
 229              		.global	CheckVty
 230              		.syntax unified
 231              		.thumb
 232              		.thumb_func
ARM GAS  /var/folders/ww/n4ctlbrs3x70633t9y2ks63c0000gn/T//ccOcC6BY.s 			page 6


 233              		.fpu softvfp
 235              	CheckVty:
 236              	.LFB67:
  50:APP/ParasCheckPro.c **** 
  51:APP/ParasCheckPro.c **** //判断太阳能输入是否正常
  52:APP/ParasCheckPro.c **** void CheckVty(void)
  53:APP/ParasCheckPro.c **** {
 237              		.loc 1 53 1 is_stmt 1 view -0
 238              		.cfi_startproc
 239              		@ args = 0, pretend = 0, frame = 0
 240              		@ frame_needed = 0, uses_anonymous_args = 0
 241 0000 10B5     		push	{r4, lr}
 242              	.LCFI1:
 243              		.cfi_def_cfa_offset 8
 244              		.cfi_offset 4, -8
 245              		.cfi_offset 14, -4
  54:APP/ParasCheckPro.c **** 	if(Vol.VTY > 38)
 246              		.loc 1 54 2 view .LVU50
 247              		.loc 1 54 8 is_stmt 0 view .LVU51
 248 0002 1D4B     		ldr	r3, .L48
 249 0004 DC6E     		ldr	r4, [r3, #108]	@ float
 250              		.loc 1 54 4 view .LVU52
 251 0006 1D49     		ldr	r1, .L48+4
 252 0008 2046     		mov	r0, r4
 253 000a FFF7FEFF 		bl	__aeabi_fcmpgt
 254              	.LVL4:
 255 000e 00B3     		cbz	r0, .L45
  55:APP/ParasCheckPro.c **** 		ParasChecker.errflag |=  0x80;		//标记太阳能过压（E8）
 256              		.loc 1 55 3 is_stmt 1 view .LVU53
 257              		.loc 1 55 24 is_stmt 0 view .LVU54
 258 0010 1B4A     		ldr	r2, .L48+8
 259 0012 9388     		ldrh	r3, [r2, #4]
 260 0014 43F08003 		orr	r3, r3, #128
 261 0018 9380     		strh	r3, [r2, #4]	@ movhi
 262              	.L33:
  56:APP/ParasCheckPro.c **** 	else
  57:APP/ParasCheckPro.c **** 		ParasChecker.errflag &= ~0x80;		//清除太阳能过压标记
  58:APP/ParasCheckPro.c **** 	
  59:APP/ParasCheckPro.c **** 	if(Vol.VTY < 28)
 263              		.loc 1 59 2 is_stmt 1 view .LVU55
 264              		.loc 1 59 4 is_stmt 0 view .LVU56
 265 001a 1A49     		ldr	r1, .L48+12
 266 001c 2046     		mov	r0, r4
 267 001e FFF7FEFF 		bl	__aeabi_fcmplt
 268              	.LVL5:
 269 0022 E0B1     		cbz	r0, .L46
  60:APP/ParasCheckPro.c **** 		ParasChecker.errflag |=  0x100;		//标记太阳能欠压（E9）
 270              		.loc 1 60 3 is_stmt 1 view .LVU57
 271              		.loc 1 60 24 is_stmt 0 view .LVU58
 272 0024 164A     		ldr	r2, .L48+8
 273 0026 9388     		ldrh	r3, [r2, #4]
 274 0028 43F48073 		orr	r3, r3, #256
 275 002c 9380     		strh	r3, [r2, #4]	@ movhi
 276              	.L36:
  61:APP/ParasCheckPro.c **** 	else
  62:APP/ParasCheckPro.c **** 		ParasChecker.errflag &= ~0x100;		//清除太阳能欠压标记
  63:APP/ParasCheckPro.c **** 
ARM GAS  /var/folders/ww/n4ctlbrs3x70633t9y2ks63c0000gn/T//ccOcC6BY.s 			page 7


  64:APP/ParasCheckPro.c **** 	if((Vol.VTY < VTYMAX) && (Vol.VTY > VTYMIN))
 277              		.loc 1 64 2 is_stmt 1 view .LVU59
 278              		.loc 1 64 9 is_stmt 0 view .LVU60
 279 002e 124B     		ldr	r3, .L48
 280 0030 DC6E     		ldr	r4, [r3, #108]	@ float
 281              		.loc 1 64 4 view .LVU61
 282 0032 1549     		ldr	r1, .L48+16
 283 0034 2046     		mov	r0, r4
 284 0036 FFF7FEFF 		bl	__aeabi_fcmplt
 285              	.LVL6:
 286 003a B0B1     		cbz	r0, .L37
 287              		.loc 1 64 24 discriminator 1 view .LVU62
 288 003c 1349     		ldr	r1, .L48+20
 289 003e 2046     		mov	r0, r4
 290 0040 FFF7FEFF 		bl	__aeabi_fcmpgt
 291              	.LVL7:
 292 0044 88B1     		cbz	r0, .L37
  65:APP/ParasCheckPro.c **** 		ParasChecker.volerrflag &= ~0x04;	//清除太阳能异常标记
 293              		.loc 1 65 3 is_stmt 1 view .LVU63
 294              		.loc 1 65 27 is_stmt 0 view .LVU64
 295 0046 0E4A     		ldr	r2, .L48+8
 296 0048 5378     		ldrb	r3, [r2, #1]	@ zero_extendqisi2
 297 004a 23F00403 		bic	r3, r3, #4
 298 004e 5370     		strb	r3, [r2, #1]
 299 0050 10E0     		b	.L30
 300              	.L45:
  57:APP/ParasCheckPro.c **** 	
 301              		.loc 1 57 3 is_stmt 1 view .LVU65
  57:APP/ParasCheckPro.c **** 	
 302              		.loc 1 57 24 is_stmt 0 view .LVU66
 303 0052 0B4A     		ldr	r2, .L48+8
 304 0054 9388     		ldrh	r3, [r2, #4]
 305 0056 23F08003 		bic	r3, r3, #128
 306 005a 9380     		strh	r3, [r2, #4]	@ movhi
 307 005c DDE7     		b	.L33
 308              	.L46:
  62:APP/ParasCheckPro.c **** 
 309              		.loc 1 62 3 is_stmt 1 view .LVU67
  62:APP/ParasCheckPro.c **** 
 310              		.loc 1 62 24 is_stmt 0 view .LVU68
 311 005e 084A     		ldr	r2, .L48+8
 312 0060 9388     		ldrh	r3, [r2, #4]
 313 0062 23F48073 		bic	r3, r3, #256
 314 0066 9380     		strh	r3, [r2, #4]	@ movhi
 315 0068 E1E7     		b	.L36
 316              	.L37:
  66:APP/ParasCheckPro.c **** 	else
  67:APP/ParasCheckPro.c **** 		ParasChecker.volerrflag |= 0x04;	//标记太阳能输入异常
 317              		.loc 1 67 3 is_stmt 1 view .LVU69
 318              		.loc 1 67 27 is_stmt 0 view .LVU70
 319 006a 054A     		ldr	r2, .L48+8
 320 006c 5378     		ldrb	r3, [r2, #1]	@ zero_extendqisi2
 321 006e 43F00403 		orr	r3, r3, #4
 322 0072 5370     		strb	r3, [r2, #1]
 323              	.L30:
  68:APP/ParasCheckPro.c **** }
 324              		.loc 1 68 1 view .LVU71
ARM GAS  /var/folders/ww/n4ctlbrs3x70633t9y2ks63c0000gn/T//ccOcC6BY.s 			page 8


 325 0074 10BD     		pop	{r4, pc}
 326              	.L49:
 327 0076 00BF     		.align	2
 328              	.L48:
 329 0078 00000000 		.word	Vol
 330 007c 00001842 		.word	1108869120
 331 0080 00000000 		.word	.LANCHOR0
 332 0084 0000E041 		.word	1105199104
 333 0088 00003442 		.word	1110704128
 334 008c 0000C041 		.word	1103101952
 335              		.cfi_endproc
 336              	.LFE67:
 338              		.global	__aeabi_f2d
 339              		.global	__aeabi_ddiv
 340              		.global	__aeabi_dsub
 341              		.global	__aeabi_d2f
 342              		.global	__aeabi_dadd
 343              		.global	__aeabi_fcmpge
 344              		.global	__aeabi_fsub
 345              		.global	__aeabi_d2uiz
 346              		.section	.text.CheckBat,"ax",%progbits
 347              		.align	1
 348              		.global	CheckBat
 349              		.syntax unified
 350              		.thumb
 351              		.thumb_func
 352              		.fpu softvfp
 354              	CheckBat:
 355              	.LFB68:
  69:APP/ParasCheckPro.c **** 
  70:APP/ParasCheckPro.c **** //判断电池电压是否正常
  71:APP/ParasCheckPro.c **** void CheckBat(void)
  72:APP/ParasCheckPro.c **** {
 356              		.loc 1 72 1 is_stmt 1 view -0
 357              		.cfi_startproc
 358              		@ args = 0, pretend = 0, frame = 0
 359              		@ frame_needed = 0, uses_anonymous_args = 0
 360 0000 F8B5     		push	{r3, r4, r5, r6, r7, lr}
 361              	.LCFI2:
 362              		.cfi_def_cfa_offset 24
 363              		.cfi_offset 3, -24
 364              		.cfi_offset 4, -20
 365              		.cfi_offset 5, -16
 366              		.cfi_offset 6, -12
 367              		.cfi_offset 7, -8
 368              		.cfi_offset 14, -4
  73:APP/ParasCheckPro.c **** 	if(Vol.BAT > VBATMAX)
 369              		.loc 1 73 2 view .LVU73
 370              		.loc 1 73 8 is_stmt 0 view .LVU74
 371 0002 754B     		ldr	r3, .L91+24
 372 0004 1C6F     		ldr	r4, [r3, #112]	@ float
 373              		.loc 1 73 4 view .LVU75
 374 0006 7549     		ldr	r1, .L91+28
 375 0008 2046     		mov	r0, r4
 376 000a FFF7FEFF 		bl	__aeabi_fcmpgt
 377              	.LVL8:
 378 000e 0028     		cmp	r0, #0
ARM GAS  /var/folders/ww/n4ctlbrs3x70633t9y2ks63c0000gn/T//ccOcC6BY.s 			page 9


 379 0010 68D0     		beq	.L86
  74:APP/ParasCheckPro.c **** 	{
  75:APP/ParasCheckPro.c **** 		ParasChecker.volerrflag |= 0x08;	//标记电池电压异常
 380              		.loc 1 75 3 is_stmt 1 view .LVU76
 381              		.loc 1 75 27 is_stmt 0 view .LVU77
 382 0012 734B     		ldr	r3, .L91+32
 383 0014 5A78     		ldrb	r2, [r3, #1]	@ zero_extendqisi2
 384 0016 42F00802 		orr	r2, r2, #8
 385 001a 5A70     		strb	r2, [r3, #1]
  76:APP/ParasCheckPro.c **** 		ParasChecker.errflag |=  0x01;		//标记电池过压（E1）
 386              		.loc 1 76 3 is_stmt 1 view .LVU78
 387              		.loc 1 76 24 is_stmt 0 view .LVU79
 388 001c 9A88     		ldrh	r2, [r3, #4]
 389 001e 42F00102 		orr	r2, r2, #1
 390 0022 9A80     		strh	r2, [r3, #4]	@ movhi
 391              	.L53:
  77:APP/ParasCheckPro.c **** 	}
  78:APP/ParasCheckPro.c **** 	else if((Vol.BAT < VBATMIN))
  79:APP/ParasCheckPro.c **** 	{
  80:APP/ParasCheckPro.c **** 		ParasChecker.volerrflag |= 0x08;	//标记电池电压异常
  81:APP/ParasCheckPro.c **** 		ParasChecker.errflag |=  0x02;		//标记电池欠压（E2）
  82:APP/ParasCheckPro.c **** 	}
  83:APP/ParasCheckPro.c **** 	
  84:APP/ParasCheckPro.c **** 	if(Vol.BAT < VBATUPRES)
 392              		.loc 1 84 2 is_stmt 1 view .LVU80
 393              		.loc 1 84 4 is_stmt 0 view .LVU81
 394 0024 6F49     		ldr	r1, .L91+36
 395 0026 2046     		mov	r0, r4
 396 0028 FFF7FEFF 		bl	__aeabi_fcmplt
 397              	.LVL9:
 398 002c 20B1     		cbz	r0, .L55
  85:APP/ParasCheckPro.c **** 		ParasChecker.errflag &= ~0x01;		//清除电池过压标记
 399              		.loc 1 85 3 is_stmt 1 view .LVU82
 400              		.loc 1 85 24 is_stmt 0 view .LVU83
 401 002e 6C4A     		ldr	r2, .L91+32
 402 0030 9388     		ldrh	r3, [r2, #4]
 403 0032 23F00103 		bic	r3, r3, #1
 404 0036 9380     		strh	r3, [r2, #4]	@ movhi
 405              	.L55:
  86:APP/ParasCheckPro.c **** 	if(Vol.BAT > VBATDOWNRES && (!(ParasChecker.volerrflag & 0x01)))
 406              		.loc 1 86 2 is_stmt 1 view .LVU84
 407              		.loc 1 86 4 is_stmt 0 view .LVU85
 408 0038 6B49     		ldr	r1, .L91+40
 409 003a 2046     		mov	r0, r4
 410 003c FFF7FEFF 		bl	__aeabi_fcmpgt
 411              	.LVL10:
 412 0040 48B1     		cbz	r0, .L57
 413              		.loc 1 86 45 discriminator 1 view .LVU86
 414 0042 674B     		ldr	r3, .L91+32
 415 0044 5B78     		ldrb	r3, [r3, #1]	@ zero_extendqisi2
 416              		.loc 1 86 27 discriminator 1 view .LVU87
 417 0046 13F0010F 		tst	r3, #1
 418 004a 04D1     		bne	.L57
  87:APP/ParasCheckPro.c **** 		ParasChecker.errflag &= ~0x02;		//清除电池欠压标记
 419              		.loc 1 87 3 is_stmt 1 view .LVU88
 420              		.loc 1 87 24 is_stmt 0 view .LVU89
 421 004c 644A     		ldr	r2, .L91+32
ARM GAS  /var/folders/ww/n4ctlbrs3x70633t9y2ks63c0000gn/T//ccOcC6BY.s 			page 10


 422 004e 9388     		ldrh	r3, [r2, #4]
 423 0050 23F00203 		bic	r3, r3, #2
 424 0054 9380     		strh	r3, [r2, #4]	@ movhi
 425              	.L57:
  88:APP/ParasCheckPro.c **** 	if((Vol.BAT < VBATUPRES) && (Vol.BAT > VBATDOWNRES))
 426              		.loc 1 88 2 is_stmt 1 view .LVU90
 427              		.loc 1 88 4 is_stmt 0 view .LVU91
 428 0056 6349     		ldr	r1, .L91+36
 429 0058 2046     		mov	r0, r4
 430 005a FFF7FEFF 		bl	__aeabi_fcmplt
 431              	.LVL11:
 432 005e 48B1     		cbz	r0, .L59
 433              		.loc 1 88 27 discriminator 1 view .LVU92
 434 0060 6149     		ldr	r1, .L91+40
 435 0062 2046     		mov	r0, r4
 436 0064 FFF7FEFF 		bl	__aeabi_fcmpgt
 437              	.LVL12:
 438 0068 20B1     		cbz	r0, .L59
  89:APP/ParasCheckPro.c **** 		ParasChecker.volerrflag &= ~0x08;	//清除电池异常标记
 439              		.loc 1 89 3 is_stmt 1 view .LVU93
 440              		.loc 1 89 27 is_stmt 0 view .LVU94
 441 006a 5D4A     		ldr	r2, .L91+32
 442 006c 5378     		ldrb	r3, [r2, #1]	@ zero_extendqisi2
 443 006e 23F00803 		bic	r3, r3, #8
 444 0072 5370     		strb	r3, [r2, #1]
 445              	.L59:
  90:APP/ParasCheckPro.c **** 	
  91:APP/ParasCheckPro.c **** 	Vol.VBAT = Vol.BAT;
 446              		.loc 1 91 2 is_stmt 1 view .LVU95
  92:APP/ParasCheckPro.c **** 	//充放电电池电压修正
  93:APP/ParasCheckPro.c **** 	Vol.VBAT -= (Vol.IC / VOLREPAIRC);
 447              		.loc 1 93 2 view .LVU96
 448              		.loc 1 93 18 is_stmt 0 view .LVU97
 449 0074 584B     		ldr	r3, .L91+24
 450 0076 DD6F     		ldr	r5, [r3, #124]	@ float
 451 0078 2846     		mov	r0, r5
 452 007a FFF7FEFF 		bl	__aeabi_f2d
 453              	.LVL13:
 454              		.loc 1 93 22 view .LVU98
 455 007e 50A3     		adr	r3, .L91
 456 0080 D3E90023 		ldrd	r2, [r3]
 457 0084 FFF7FEFF 		bl	__aeabi_ddiv
 458              	.LVL14:
 459 0088 0646     		mov	r6, r0
 460 008a 0F46     		mov	r7, r1
 461              		.loc 1 93 11 view .LVU99
 462 008c 2046     		mov	r0, r4
 463 008e FFF7FEFF 		bl	__aeabi_f2d
 464              	.LVL15:
 465 0092 3246     		mov	r2, r6
 466 0094 3B46     		mov	r3, r7
 467 0096 FFF7FEFF 		bl	__aeabi_dsub
 468              	.LVL16:
 469 009a FFF7FEFF 		bl	__aeabi_d2f
 470              	.LVL17:
 471 009e 0446     		mov	r4, r0
  94:APP/ParasCheckPro.c **** 	if((Vol.IC > 1) && (Vol.IF > 5))
ARM GAS  /var/folders/ww/n4ctlbrs3x70633t9y2ks63c0000gn/T//ccOcC6BY.s 			page 11


 472              		.loc 1 94 2 is_stmt 1 view .LVU100
 473              		.loc 1 94 4 is_stmt 0 view .LVU101
 474 00a0 4FF07E51 		mov	r1, #1065353216
 475 00a4 2846     		mov	r0, r5
 476 00a6 FFF7FEFF 		bl	__aeabi_fcmpgt
 477              	.LVL18:
 478 00aa 58B3     		cbz	r0, .L62
 479              		.loc 1 94 25 discriminator 1 view .LVU102
 480 00ac 4A4B     		ldr	r3, .L91+24
 481 00ae 9E6F     		ldr	r6, [r3, #120]	@ float
 482              		.loc 1 94 18 discriminator 1 view .LVU103
 483 00b0 4E49     		ldr	r1, .L91+44
 484 00b2 3046     		mov	r0, r6
 485 00b4 FFF7FEFF 		bl	__aeabi_fcmpgt
 486              	.LVL19:
 487 00b8 20B3     		cbz	r0, .L62
  95:APP/ParasCheckPro.c **** 		Vol.VBAT += (Vol.IF / VOLREPAIRCF);
 488              		.loc 1 95 3 is_stmt 1 view .LVU104
 489              		.loc 1 95 19 is_stmt 0 view .LVU105
 490 00ba 3046     		mov	r0, r6
 491 00bc FFF7FEFF 		bl	__aeabi_f2d
 492              	.LVL20:
 493              		.loc 1 95 23 view .LVU106
 494 00c0 0022     		movs	r2, #0
 495 00c2 4B4B     		ldr	r3, .L91+48
 496 00c4 FFF7FEFF 		bl	__aeabi_ddiv
 497              	.LVL21:
 498 00c8 0646     		mov	r6, r0
 499 00ca 0F46     		mov	r7, r1
 500              		.loc 1 95 12 view .LVU107
 501 00cc 2046     		mov	r0, r4
 502 00ce FFF7FEFF 		bl	__aeabi_f2d
 503              	.LVL22:
 504 00d2 3246     		mov	r2, r6
 505 00d4 3B46     		mov	r3, r7
 506 00d6 FFF7FEFF 		bl	__aeabi_dadd
 507              	.LVL23:
 508 00da FFF7FEFF 		bl	__aeabi_d2f
 509              	.LVL24:
 510 00de 3E4B     		ldr	r3, .L91+24
 511 00e0 5867     		str	r0, [r3, #116]	@ float
 512 00e2 2AE0     		b	.L65
 513              	.L86:
  78:APP/ParasCheckPro.c **** 	{
 514              		.loc 1 78 7 is_stmt 1 view .LVU108
  78:APP/ParasCheckPro.c **** 	{
 515              		.loc 1 78 9 is_stmt 0 view .LVU109
 516 00e4 4349     		ldr	r1, .L91+52
 517 00e6 2046     		mov	r0, r4
 518 00e8 FFF7FEFF 		bl	__aeabi_fcmplt
 519              	.LVL25:
 520 00ec 0028     		cmp	r0, #0
 521 00ee 99D0     		beq	.L53
  80:APP/ParasCheckPro.c **** 		ParasChecker.errflag |=  0x02;		//标记电池欠压（E2）
 522              		.loc 1 80 3 is_stmt 1 view .LVU110
  80:APP/ParasCheckPro.c **** 		ParasChecker.errflag |=  0x02;		//标记电池欠压（E2）
 523              		.loc 1 80 27 is_stmt 0 view .LVU111
ARM GAS  /var/folders/ww/n4ctlbrs3x70633t9y2ks63c0000gn/T//ccOcC6BY.s 			page 12


 524 00f0 3B4B     		ldr	r3, .L91+32
 525 00f2 5A78     		ldrb	r2, [r3, #1]	@ zero_extendqisi2
 526 00f4 42F00802 		orr	r2, r2, #8
 527 00f8 5A70     		strb	r2, [r3, #1]
  81:APP/ParasCheckPro.c **** 	}
 528              		.loc 1 81 3 is_stmt 1 view .LVU112
  81:APP/ParasCheckPro.c **** 	}
 529              		.loc 1 81 24 is_stmt 0 view .LVU113
 530 00fa 9A88     		ldrh	r2, [r3, #4]
 531 00fc 42F00202 		orr	r2, r2, #2
 532 0100 9A80     		strh	r2, [r3, #4]	@ movhi
 533 0102 8FE7     		b	.L53
 534              	.L62:
  96:APP/ParasCheckPro.c **** 	else if((Vol.IC < 1) && (Vol.IF > 5))
 535              		.loc 1 96 7 is_stmt 1 view .LVU114
 536              		.loc 1 96 9 is_stmt 0 view .LVU115
 537 0104 4FF07E51 		mov	r1, #1065353216
 538 0108 2846     		mov	r0, r5
 539 010a FFF7FEFF 		bl	__aeabi_fcmplt
 540              	.LVL26:
 541 010e F8B9     		cbnz	r0, .L90
 542              	.L66:
  97:APP/ParasCheckPro.c **** 		Vol.VBAT += (Vol.IF / VOLREPAIRF);
  98:APP/ParasCheckPro.c **** 	else 
  99:APP/ParasCheckPro.c **** 		Vol.VBAT += (Vol.IF / 7.45);
 543              		.loc 1 99 3 is_stmt 1 view .LVU116
 544              		.loc 1 99 19 is_stmt 0 view .LVU117
 545 0110 314D     		ldr	r5, .L91+24
 546 0112 A86F     		ldr	r0, [r5, #120]	@ float
 547 0114 FFF7FEFF 		bl	__aeabi_f2d
 548              	.LVL27:
 549              		.loc 1 99 23 view .LVU118
 550 0118 2BA3     		adr	r3, .L91+8
 551 011a D3E90023 		ldrd	r2, [r3]
 552 011e FFF7FEFF 		bl	__aeabi_ddiv
 553              	.LVL28:
 554 0122 0646     		mov	r6, r0
 555 0124 0F46     		mov	r7, r1
 556              		.loc 1 99 12 view .LVU119
 557 0126 2046     		mov	r0, r4
 558 0128 FFF7FEFF 		bl	__aeabi_f2d
 559              	.LVL29:
 560 012c 3246     		mov	r2, r6
 561 012e 3B46     		mov	r3, r7
 562 0130 FFF7FEFF 		bl	__aeabi_dadd
 563              	.LVL30:
 564 0134 FFF7FEFF 		bl	__aeabi_d2f
 565              	.LVL31:
 566 0138 6867     		str	r0, [r5, #116]	@ float
 567              	.L65:
 100:APP/ParasCheckPro.c **** 	
 101:APP/ParasCheckPro.c **** 	//计算电池电量
 102:APP/ParasCheckPro.c **** 	if(Vol.VBAT >= BATFULL)
 568              		.loc 1 102 2 is_stmt 1 view .LVU120
 569              		.loc 1 102 8 is_stmt 0 view .LVU121
 570 013a 274B     		ldr	r3, .L91+24
 571 013c 5C6F     		ldr	r4, [r3, #116]	@ float
ARM GAS  /var/folders/ww/n4ctlbrs3x70633t9y2ks63c0000gn/T//ccOcC6BY.s 			page 13


 572              		.loc 1 102 4 view .LVU122
 573 013e 2E49     		ldr	r1, .L91+56
 574 0140 2046     		mov	r0, r4
 575 0142 FFF7FEFF 		bl	__aeabi_fcmpge
 576              	.LVL32:
 577 0146 08B3     		cbz	r0, .L87
 103:APP/ParasCheckPro.c **** 		ParasChecker.batpercent = 5;
 578              		.loc 1 103 3 is_stmt 1 view .LVU123
 579              		.loc 1 103 27 is_stmt 0 view .LVU124
 580 0148 254B     		ldr	r3, .L91+32
 581 014a 0522     		movs	r2, #5
 582 014c DA71     		strb	r2, [r3, #7]
 583              	.L50:
 104:APP/ParasCheckPro.c **** 	else if(Vol.VBAT > BATNONE)
 105:APP/ParasCheckPro.c **** 		ParasChecker.batpercent = ((Vol.VBAT - BATNONE) / 1.5);
 106:APP/ParasCheckPro.c **** 	else
 107:APP/ParasCheckPro.c **** 		ParasChecker.batpercent = 0;
 108:APP/ParasCheckPro.c **** }
 584              		.loc 1 108 1 view .LVU125
 585 014e F8BD     		pop	{r3, r4, r5, r6, r7, pc}
 586              	.L90:
  96:APP/ParasCheckPro.c **** 		Vol.VBAT += (Vol.IF / VOLREPAIRF);
 587              		.loc 1 96 30 discriminator 1 view .LVU126
 588 0150 214B     		ldr	r3, .L91+24
 589 0152 9D6F     		ldr	r5, [r3, #120]	@ float
  96:APP/ParasCheckPro.c **** 		Vol.VBAT += (Vol.IF / VOLREPAIRF);
 590              		.loc 1 96 23 discriminator 1 view .LVU127
 591 0154 2549     		ldr	r1, .L91+44
 592 0156 2846     		mov	r0, r5
 593 0158 FFF7FEFF 		bl	__aeabi_fcmpgt
 594              	.LVL33:
 595 015c 0028     		cmp	r0, #0
 596 015e D7D0     		beq	.L66
  97:APP/ParasCheckPro.c **** 	else 
 597              		.loc 1 97 3 is_stmt 1 view .LVU128
  97:APP/ParasCheckPro.c **** 	else 
 598              		.loc 1 97 19 is_stmt 0 view .LVU129
 599 0160 2846     		mov	r0, r5
 600 0162 FFF7FEFF 		bl	__aeabi_f2d
 601              	.LVL34:
  97:APP/ParasCheckPro.c **** 	else 
 602              		.loc 1 97 23 view .LVU130
 603 0166 1AA3     		adr	r3, .L91+16
 604 0168 D3E90023 		ldrd	r2, [r3]
 605 016c FFF7FEFF 		bl	__aeabi_ddiv
 606              	.LVL35:
 607 0170 0646     		mov	r6, r0
 608 0172 0F46     		mov	r7, r1
  97:APP/ParasCheckPro.c **** 	else 
 609              		.loc 1 97 12 view .LVU131
 610 0174 2046     		mov	r0, r4
 611 0176 FFF7FEFF 		bl	__aeabi_f2d
 612              	.LVL36:
 613 017a 3246     		mov	r2, r6
 614 017c 3B46     		mov	r3, r7
 615 017e FFF7FEFF 		bl	__aeabi_dadd
 616              	.LVL37:
ARM GAS  /var/folders/ww/n4ctlbrs3x70633t9y2ks63c0000gn/T//ccOcC6BY.s 			page 14


 617 0182 FFF7FEFF 		bl	__aeabi_d2f
 618              	.LVL38:
 619 0186 144B     		ldr	r3, .L91+24
 620 0188 5867     		str	r0, [r3, #116]	@ float
 621 018a D6E7     		b	.L65
 622              	.L87:
 104:APP/ParasCheckPro.c **** 	else if(Vol.VBAT > BATNONE)
 623              		.loc 1 104 7 is_stmt 1 view .LVU132
 104:APP/ParasCheckPro.c **** 	else if(Vol.VBAT > BATNONE)
 624              		.loc 1 104 9 is_stmt 0 view .LVU133
 625 018c 1B49     		ldr	r1, .L91+60
 626 018e 2046     		mov	r0, r4
 627 0190 FFF7FEFF 		bl	__aeabi_fcmpgt
 628              	.LVL39:
 629 0194 70B1     		cbz	r0, .L88
 105:APP/ParasCheckPro.c **** 	else
 630              		.loc 1 105 3 is_stmt 1 view .LVU134
 105:APP/ParasCheckPro.c **** 	else
 631              		.loc 1 105 40 is_stmt 0 view .LVU135
 632 0196 1949     		ldr	r1, .L91+60
 633 0198 2046     		mov	r0, r4
 634 019a FFF7FEFF 		bl	__aeabi_fsub
 635              	.LVL40:
 636 019e FFF7FEFF 		bl	__aeabi_f2d
 637              	.LVL41:
 105:APP/ParasCheckPro.c **** 	else
 638              		.loc 1 105 51 view .LVU136
 639 01a2 0022     		movs	r2, #0
 640 01a4 164B     		ldr	r3, .L91+64
 641 01a6 FFF7FEFF 		bl	__aeabi_ddiv
 642              	.LVL42:
 105:APP/ParasCheckPro.c **** 	else
 643              		.loc 1 105 27 view .LVU137
 644 01aa FFF7FEFF 		bl	__aeabi_d2uiz
 645              	.LVL43:
 646 01ae 0C4B     		ldr	r3, .L91+32
 647 01b0 D871     		strb	r0, [r3, #7]
 648 01b2 CCE7     		b	.L50
 649              	.L88:
 107:APP/ParasCheckPro.c **** }
 650              		.loc 1 107 3 is_stmt 1 view .LVU138
 107:APP/ParasCheckPro.c **** }
 651              		.loc 1 107 27 is_stmt 0 view .LVU139
 652 01b4 0A4B     		ldr	r3, .L91+32
 653 01b6 0022     		movs	r2, #0
 654 01b8 DA71     		strb	r2, [r3, #7]
 655              		.loc 1 108 1 view .LVU140
 656 01ba C8E7     		b	.L50
 657              	.L92:
 658 01bc AFF30080 		.align	3
 659              	.L91:
 660 01c0 66666666 		.word	1717986918
 661 01c4 66662440 		.word	1076127334
 662 01c8 CDCCCCCC 		.word	3435973837
 663 01cc CCCC1D40 		.word	1075694796
 664 01d0 CDCCCCCC 		.word	3435973837
 665 01d4 CC4C2440 		.word	1076120780
ARM GAS  /var/folders/ww/n4ctlbrs3x70633t9y2ks63c0000gn/T//ccOcC6BY.s 			page 15


 666 01d8 00000000 		.word	Vol
 667 01dc 00009142 		.word	1116798976
 668 01e0 00000000 		.word	.LANCHOR0
 669 01e4 00008D42 		.word	1116536832
 670 01e8 00007E42 		.word	1115553792
 671 01ec 0000A040 		.word	1084227584
 672 01f0 00002140 		.word	1075904512
 673 01f4 00004E42 		.word	1112408064
 674 01f8 00008642 		.word	1116078080
 675 01fc 00006C42 		.word	1114374144
 676 0200 0000F83F 		.word	1073217536
 677              		.cfi_endproc
 678              	.LFE68:
 680              		.section	.text.CheckIf,"ax",%progbits
 681              		.align	1
 682              		.global	CheckIf
 683              		.syntax unified
 684              		.thumb
 685              		.thumb_func
 686              		.fpu softvfp
 688              	CheckIf:
 689              	.LFB69:
 109:APP/ParasCheckPro.c **** 
 110:APP/ParasCheckPro.c **** //判断放电电流是否正常
 111:APP/ParasCheckPro.c **** void CheckIf(void)
 112:APP/ParasCheckPro.c **** {
 690              		.loc 1 112 1 is_stmt 1 view -0
 691              		.cfi_startproc
 692              		@ args = 0, pretend = 0, frame = 0
 693              		@ frame_needed = 0, uses_anonymous_args = 0
 694 0000 08B5     		push	{r3, lr}
 695              	.LCFI3:
 696              		.cfi_def_cfa_offset 8
 697              		.cfi_offset 3, -8
 698              		.cfi_offset 14, -4
 113:APP/ParasCheckPro.c **** 	if(Vol.IF >= CUMAX)
 699              		.loc 1 113 2 view .LVU142
 700              		.loc 1 113 4 is_stmt 0 view .LVU143
 701 0002 0849     		ldr	r1, .L98
 702 0004 084B     		ldr	r3, .L98+4
 703 0006 986F     		ldr	r0, [r3, #120]	@ float
 704 0008 FFF7FEFF 		bl	__aeabi_fcmpge
 705              	.LVL44:
 706 000c 40B1     		cbz	r0, .L93
 114:APP/ParasCheckPro.c **** 	{
 115:APP/ParasCheckPro.c **** 		ParasChecker.currentflag |= 0x01;
 707              		.loc 1 115 3 is_stmt 1 view .LVU144
 708              		.loc 1 115 28 is_stmt 0 view .LVU145
 709 000e 074B     		ldr	r3, .L98+8
 710 0010 DA78     		ldrb	r2, [r3, #3]	@ zero_extendqisi2
 711 0012 42F00102 		orr	r2, r2, #1
 712 0016 DA70     		strb	r2, [r3, #3]
 116:APP/ParasCheckPro.c **** 		ParasChecker.errflag |= 0x04;
 713              		.loc 1 116 3 is_stmt 1 view .LVU146
 714              		.loc 1 116 24 is_stmt 0 view .LVU147
 715 0018 9A88     		ldrh	r2, [r3, #4]
 716 001a 42F00402 		orr	r2, r2, #4
ARM GAS  /var/folders/ww/n4ctlbrs3x70633t9y2ks63c0000gn/T//ccOcC6BY.s 			page 16


 717 001e 9A80     		strh	r2, [r3, #4]	@ movhi
 718              	.L93:
 117:APP/ParasCheckPro.c **** 	}
 118:APP/ParasCheckPro.c **** }
 719              		.loc 1 118 1 view .LVU148
 720 0020 08BD     		pop	{r3, pc}
 721              	.L99:
 722 0022 00BF     		.align	2
 723              	.L98:
 724 0024 00003842 		.word	1110966272
 725 0028 00000000 		.word	Vol
 726 002c 00000000 		.word	.LANCHOR0
 727              		.cfi_endproc
 728              	.LFE69:
 730              		.section	.text.CheckIc,"ax",%progbits
 731              		.align	1
 732              		.global	CheckIc
 733              		.syntax unified
 734              		.thumb
 735              		.thumb_func
 736              		.fpu softvfp
 738              	CheckIc:
 739              	.LFB70:
 119:APP/ParasCheckPro.c **** 
 120:APP/ParasCheckPro.c **** void CheckIc(void)
 121:APP/ParasCheckPro.c **** {
 740              		.loc 1 121 1 is_stmt 1 view -0
 741              		.cfi_startproc
 742              		@ args = 0, pretend = 0, frame = 0
 743              		@ frame_needed = 0, uses_anonymous_args = 0
 744              		@ link register save eliminated.
 122:APP/ParasCheckPro.c **** //	if(Vol.IC > 1.2)
 123:APP/ParasCheckPro.c **** //		ParasChecker.currentflag |=  0x02;
 124:APP/ParasCheckPro.c **** //	else if(Vol.IC < 0.8)
 125:APP/ParasCheckPro.c **** //		ParasChecker.currentflag &= ~0x02;
 126:APP/ParasCheckPro.c **** }
 745              		.loc 1 126 1 view .LVU150
 746 0000 7047     		bx	lr
 747              		.cfi_endproc
 748              	.LFE70:
 750              		.section	.text.ParasCheckPro,"ax",%progbits
 751              		.align	1
 752              		.global	ParasCheckPro
 753              		.syntax unified
 754              		.thumb
 755              		.thumb_func
 756              		.fpu softvfp
 758              	ParasCheckPro:
 759              	.LFB71:
 127:APP/ParasCheckPro.c **** 
 128:APP/ParasCheckPro.c **** void ParasCheckPro(void)
 129:APP/ParasCheckPro.c **** {
 760              		.loc 1 129 1 view -0
 761              		.cfi_startproc
 762              		@ args = 0, pretend = 0, frame = 0
 763              		@ frame_needed = 0, uses_anonymous_args = 0
 764 0000 08B5     		push	{r3, lr}
ARM GAS  /var/folders/ww/n4ctlbrs3x70633t9y2ks63c0000gn/T//ccOcC6BY.s 			page 17


 765              	.LCFI4:
 766              		.cfi_def_cfa_offset 8
 767              		.cfi_offset 3, -8
 768              		.cfi_offset 14, -4
 130:APP/ParasCheckPro.c **** 	switch(ParasChecker.Status)
 769              		.loc 1 130 2 view .LVU152
 770              		.loc 1 130 21 is_stmt 0 view .LVU153
 771 0002 104B     		ldr	r3, .L106
 772 0004 1B78     		ldrb	r3, [r3]	@ zero_extendqisi2
 773              		.loc 1 130 2 view .LVU154
 774 0006 13B1     		cbz	r3, .L102
 775 0008 012B     		cmp	r3, #1
 776 000a 09D0     		beq	.L103
 777              	.L101:
 131:APP/ParasCheckPro.c **** 	{
 132:APP/ParasCheckPro.c **** 		case WAITVOLCOMPLETE:
 133:APP/ParasCheckPro.c **** 			if(Vol.complate)
 134:APP/ParasCheckPro.c **** 				ParasChecker.Status = DOCHECK;
 135:APP/ParasCheckPro.c **** 			break;
 136:APP/ParasCheckPro.c **** 		//检查各项参数是否正常
 137:APP/ParasCheckPro.c **** 		case DOCHECK:
 138:APP/ParasCheckPro.c **** 			if(volComplt)
 139:APP/ParasCheckPro.c **** 			{
 140:APP/ParasCheckPro.c **** 				volComplt = 0;
 141:APP/ParasCheckPro.c **** 				CheckVac();
 142:APP/ParasCheckPro.c **** 				CheckVfn();
 143:APP/ParasCheckPro.c **** 				CheckVty();
 144:APP/ParasCheckPro.c **** 				CheckBat();
 145:APP/ParasCheckPro.c **** 				CheckIf();
 146:APP/ParasCheckPro.c **** 				CheckIc();
 147:APP/ParasCheckPro.c **** 			}
 148:APP/ParasCheckPro.c **** 			break;
 149:APP/ParasCheckPro.c **** 	}
 150:APP/ParasCheckPro.c **** }
 778              		.loc 1 150 1 view .LVU155
 779 000c 08BD     		pop	{r3, pc}
 780              	.L102:
 133:APP/ParasCheckPro.c **** 				ParasChecker.Status = DOCHECK;
 781              		.loc 1 133 4 is_stmt 1 view .LVU156
 133:APP/ParasCheckPro.c **** 				ParasChecker.Status = DOCHECK;
 782              		.loc 1 133 10 is_stmt 0 view .LVU157
 783 000e 0E4B     		ldr	r3, .L106+4
 784 0010 93F88930 		ldrb	r3, [r3, #137]	@ zero_extendqisi2
 133:APP/ParasCheckPro.c **** 				ParasChecker.Status = DOCHECK;
 785              		.loc 1 133 6 view .LVU158
 786 0014 002B     		cmp	r3, #0
 787 0016 F9D0     		beq	.L101
 134:APP/ParasCheckPro.c **** 			break;
 788              		.loc 1 134 5 is_stmt 1 view .LVU159
 134:APP/ParasCheckPro.c **** 			break;
 789              		.loc 1 134 25 is_stmt 0 view .LVU160
 790 0018 0A4B     		ldr	r3, .L106
 791 001a 0122     		movs	r2, #1
 792 001c 1A70     		strb	r2, [r3]
 793 001e F5E7     		b	.L101
 794              	.L103:
 138:APP/ParasCheckPro.c **** 			{
ARM GAS  /var/folders/ww/n4ctlbrs3x70633t9y2ks63c0000gn/T//ccOcC6BY.s 			page 18


 795              		.loc 1 138 4 is_stmt 1 view .LVU161
 138:APP/ParasCheckPro.c **** 			{
 796              		.loc 1 138 7 is_stmt 0 view .LVU162
 797 0020 0A4B     		ldr	r3, .L106+8
 798 0022 1B78     		ldrb	r3, [r3]	@ zero_extendqisi2
 138:APP/ParasCheckPro.c **** 			{
 799              		.loc 1 138 6 view .LVU163
 800 0024 002B     		cmp	r3, #0
 801 0026 F1D0     		beq	.L101
 140:APP/ParasCheckPro.c **** 				CheckVac();
 802              		.loc 1 140 5 is_stmt 1 view .LVU164
 140:APP/ParasCheckPro.c **** 				CheckVac();
 803              		.loc 1 140 15 is_stmt 0 view .LVU165
 804 0028 084B     		ldr	r3, .L106+8
 805 002a 0022     		movs	r2, #0
 806 002c 1A70     		strb	r2, [r3]
 141:APP/ParasCheckPro.c **** 				CheckVfn();
 807              		.loc 1 141 5 is_stmt 1 view .LVU166
 808 002e FFF7FEFF 		bl	CheckVac
 809              	.LVL45:
 142:APP/ParasCheckPro.c **** 				CheckVty();
 810              		.loc 1 142 5 view .LVU167
 811 0032 FFF7FEFF 		bl	CheckVfn
 812              	.LVL46:
 143:APP/ParasCheckPro.c **** 				CheckBat();
 813              		.loc 1 143 5 view .LVU168
 814 0036 FFF7FEFF 		bl	CheckVty
 815              	.LVL47:
 144:APP/ParasCheckPro.c **** 				CheckIf();
 816              		.loc 1 144 5 view .LVU169
 817 003a FFF7FEFF 		bl	CheckBat
 818              	.LVL48:
 145:APP/ParasCheckPro.c **** 				CheckIc();
 819              		.loc 1 145 5 view .LVU170
 820 003e FFF7FEFF 		bl	CheckIf
 821              	.LVL49:
 146:APP/ParasCheckPro.c **** 			}
 822              		.loc 1 146 5 view .LVU171
 823              		.loc 1 150 1 is_stmt 0 view .LVU172
 824 0042 E3E7     		b	.L101
 825              	.L107:
 826              		.align	2
 827              	.L106:
 828 0044 00000000 		.word	.LANCHOR0
 829 0048 00000000 		.word	Vol
 830 004c 00000000 		.word	volComplt
 831              		.cfi_endproc
 832              	.LFE71:
 834              		.global	ParasChecker
 835              		.section	.bss.ParasChecker,"aw",%nobits
 836              		.align	2
 837              		.set	.LANCHOR0,. + 0
 840              	ParasChecker:
 841 0000 00000000 		.space	8
 841      00000000 
 842              		.text
 843              	.Letext0:
ARM GAS  /var/folders/ww/n4ctlbrs3x70633t9y2ks63c0000gn/T//ccOcC6BY.s 			page 19


 844              		.file 2 "/Users/shuuyou/gcc-arm-none-eabi/arm-none-eabi/include/machine/_default_types.h"
 845              		.file 3 "/Users/shuuyou/gcc-arm-none-eabi/arm-none-eabi/include/sys/_stdint.h"
 846              		.file 4 "Inc/stm32l152xe.h"
 847              		.file 5 "/Users/shuuyou/gcc-arm-none-eabi/lib/gcc/arm-none-eabi/8.3.1/include/stddef.h"
 848              		.file 6 "/Users/shuuyou/gcc-arm-none-eabi/arm-none-eabi/include/sys/_types.h"
 849              		.file 7 "/Users/shuuyou/gcc-arm-none-eabi/arm-none-eabi/include/sys/reent.h"
 850              		.file 8 "/Users/shuuyou/gcc-arm-none-eabi/arm-none-eabi/include/sys/lock.h"
 851              		.file 9 "Inc/core_cm3.h"
 852              		.file 10 "APP/inc/Public.h"
 853              		.file 11 "RML1028B/RML1028B.h"
 854              		.file 12 "HARDWARE/inc/Temputer.h"
 855              		.file 13 "HARDWARE/inc/Adc.h"
 856              		.file 14 "HARDWARE/inc/Timer.h"
 857              		.file 15 "HARDWARE/inc/Control.h"
 858              		.file 16 "TOOL/inc/malloc.h"
 859              		.file 17 "TOOL/inc/TaskManger.h"
 860              		.file 18 "DISPALY/inc/DispManger.h"
 861              		.file 19 "TOOL/inc/CrcUtil.h"
 862              		.file 20 "APP/inc/VolPro.h"
 863              		.file 21 "APP/inc/FreqPro.h"
 864              		.file 22 "APP/inc/TemputerPro.h"
 865              		.file 23 "APP/inc/ParasCheckPro.h"
ARM GAS  /var/folders/ww/n4ctlbrs3x70633t9y2ks63c0000gn/T//ccOcC6BY.s 			page 20

