ARM GAS  /var/folders/ww/n4ctlbrs3x70633t9y2ks63c0000gn/T//cc4zKi8f.s 			page 1


   1              		.cpu cortex-m3
   2              		.eabi_attribute 20, 1
   3              		.eabi_attribute 21, 1
   4              		.eabi_attribute 23, 3
   5              		.eabi_attribute 24, 1
   6              		.eabi_attribute 25, 1
   7              		.eabi_attribute 26, 1
   8              		.eabi_attribute 30, 1
   9              		.eabi_attribute 34, 1
  10              		.eabi_attribute 18, 4
  11              		.file	"RML1028B.c"
  12              		.text
  13              	.Ltext0:
  14              		.cfi_sections	.debug_frame
  15              		.section	.text.RML1028B_Init,"ax",%progbits
  16              		.align	1
  17              		.global	RML1028B_Init
  18              		.arch armv7-m
  19              		.syntax unified
  20              		.thumb
  21              		.thumb_func
  22              		.fpu softvfp
  24              	RML1028B_Init:
  25              	.LFB65:
  26              		.file 1 "RML1028B/RML1028B.c"
   1:RML1028B/RML1028B.c **** #include "RML1028B.h"
   2:RML1028B/RML1028B.c **** 
   3:RML1028B/RML1028B.c **** _RML1028B RML1028B = {
   4:RML1028B/RML1028B.c **** 	.COM0 = {GPIOA,PIN8},
   5:RML1028B/RML1028B.c **** 	.COM1 = {GPIOA,PIN9},
   6:RML1028B/RML1028B.c **** 	.COM2 = {GPIOA,PIN10},
   7:RML1028B/RML1028B.c **** 	.COM3 = {GPIOB,PIN9},
   8:RML1028B/RML1028B.c **** 	.SEG0 = {GPIOB,PIN10},
   9:RML1028B/RML1028B.c **** 	.SEG1 = {GPIOB,PIN11},
  10:RML1028B/RML1028B.c **** 	.SEG2 = {GPIOB,PIN12},
  11:RML1028B/RML1028B.c **** 	.SEG3 = {GPIOB,PIN13},
  12:RML1028B/RML1028B.c **** 	.SEG4 = {GPIOB,PIN14},
  13:RML1028B/RML1028B.c **** 	.SEG5 = {GPIOB,PIN15},
  14:RML1028B/RML1028B.c **** 	.SEG6 = {GPIOC,PIN6},
  15:RML1028B/RML1028B.c **** 	.SEG7 = {GPIOC,PIN3},
  16:RML1028B/RML1028B.c **** 	.SEG8 = {GPIOC,PIN2},
  17:RML1028B/RML1028B.c **** 	.SEG9 = {GPIOC,PIN1},
  18:RML1028B/RML1028B.c **** 	.SEG10 = {GPIOC,PIN0},
  19:RML1028B/RML1028B.c **** 	.SEG11 = {GPIOB,PIN8},
  20:RML1028B/RML1028B.c **** 	.SEG12 = {GPIOB,PIN5},
  21:RML1028B/RML1028B.c **** 	.SEG13 = {GPIOB,PIN4},
  22:RML1028B/RML1028B.c **** 	.SEG14 = {GPIOB,PIN3},
  23:RML1028B/RML1028B.c **** 	.SEG15 = {GPIOD,PIN2},
  24:RML1028B/RML1028B.c **** 	.SEG16 = {GPIOC,PIN12},
  25:RML1028B/RML1028B.c **** 	.SEG17 = {GPIOC,PIN11},
  26:RML1028B/RML1028B.c **** 	.BKLIGHT = {GPIOA,PIN15},
  27:RML1028B/RML1028B.c **** };
  28:RML1028B/RML1028B.c **** 
  29:RML1028B/RML1028B.c **** void RML1028B_Init(void)
  30:RML1028B/RML1028B.c **** {
  27              		.loc 1 30 1 view -0
  28              		.cfi_startproc
ARM GAS  /var/folders/ww/n4ctlbrs3x70633t9y2ks63c0000gn/T//cc4zKi8f.s 			page 2


  29              		@ args = 0, pretend = 0, frame = 0
  30              		@ frame_needed = 0, uses_anonymous_args = 0
  31 0000 38B5     		push	{r3, r4, r5, lr}
  32              	.LCFI0:
  33              		.cfi_def_cfa_offset 16
  34              		.cfi_offset 3, -16
  35              		.cfi_offset 4, -12
  36              		.cfi_offset 5, -8
  37              		.cfi_offset 14, -4
  31:RML1028B/RML1028B.c **** 	RML1028BIOCLKEN;										//使能IO时钟
  38              		.loc 1 31 2 view .LVU1
  39 0002 CE4B     		ldr	r3, .L4
  40 0004 DA69     		ldr	r2, [r3, #28]
  41 0006 42F00F02 		orr	r2, r2, #15
  42 000a DA61     		str	r2, [r3, #28]
  32:RML1028B/RML1028B.c **** 	PWR->CR |= 1<<8;										
  43              		.loc 1 32 2 view .LVU2
  44              		.loc 1 32 10 is_stmt 0 view .LVU3
  45 000c CC49     		ldr	r1, .L4+4
  46 000e 0A68     		ldr	r2, [r1]
  47 0010 42F48072 		orr	r2, r2, #256
  48 0014 0A60     		str	r2, [r1]
  33:RML1028B/RML1028B.c **** 	RCC->CSR |= 0x01;										//打开LSI
  49              		.loc 1 33 2 is_stmt 1 view .LVU4
  50              		.loc 1 33 11 is_stmt 0 view .LVU5
  51 0016 5A6B     		ldr	r2, [r3, #52]
  52 0018 42F00102 		orr	r2, r2, #1
  53 001c 5A63     		str	r2, [r3, #52]
  34:RML1028B/RML1028B.c **** 	while(!(RCC->CSR & 0x02)){}								//等待LSI启动
  54              		.loc 1 34 2 is_stmt 1 view .LVU6
  55              	.L2:
  56              		.loc 1 34 28 discriminator 1 view .LVU7
  57              		.loc 1 34 13 is_stmt 0 discriminator 1 view .LVU8
  58 001e C74B     		ldr	r3, .L4
  59 0020 5B6B     		ldr	r3, [r3, #52]
  60              		.loc 1 34 7 discriminator 1 view .LVU9
  61 0022 13F0020F 		tst	r3, #2
  62 0026 FAD0     		beq	.L2
  35:RML1028B/RML1028B.c **** 	RCC->CSR |= (1<<23);									//RTC复位
  63              		.loc 1 35 2 is_stmt 1 view .LVU10
  64              		.loc 1 35 11 is_stmt 0 view .LVU11
  65 0028 C44B     		ldr	r3, .L4
  66 002a 5A6B     		ldr	r2, [r3, #52]
  67 002c 42F40002 		orr	r2, r2, #8388608
  68 0030 5A63     		str	r2, [r3, #52]
  36:RML1028B/RML1028B.c **** 	RCC->CSR &= ~(1<<23);									//停止RTC复位
  69              		.loc 1 36 2 is_stmt 1 view .LVU12
  70              		.loc 1 36 11 is_stmt 0 view .LVU13
  71 0032 5A6B     		ldr	r2, [r3, #52]
  72 0034 22F40002 		bic	r2, r2, #8388608
  73 0038 5A63     		str	r2, [r3, #52]
  37:RML1028B/RML1028B.c **** 	RCC->CSR |= (1<<22);									//使能RTC时钟
  74              		.loc 1 37 2 is_stmt 1 view .LVU14
  75              		.loc 1 37 11 is_stmt 0 view .LVU15
  76 003a 5A6B     		ldr	r2, [r3, #52]
  77 003c 42F48002 		orr	r2, r2, #4194304
  78 0040 5A63     		str	r2, [r3, #52]
ARM GAS  /var/folders/ww/n4ctlbrs3x70633t9y2ks63c0000gn/T//cc4zKi8f.s 			page 3


  38:RML1028B/RML1028B.c **** 	RCC->CSR |= (0x02 << 16);								//选择LSI作为RTC时钟
  79              		.loc 1 38 2 is_stmt 1 view .LVU16
  80              		.loc 1 38 11 is_stmt 0 view .LVU17
  81 0042 5A6B     		ldr	r2, [r3, #52]
  82 0044 42F40032 		orr	r2, r2, #131072
  83 0048 5A63     		str	r2, [r3, #52]
  39:RML1028B/RML1028B.c **** 	RCC->APB1ENR |= (1<<9);									//使能LCD时钟
  84              		.loc 1 39 2 is_stmt 1 view .LVU18
  85              		.loc 1 39 15 is_stmt 0 view .LVU19
  86 004a 5A6A     		ldr	r2, [r3, #36]
  87 004c 42F40072 		orr	r2, r2, #512
  88 0050 5A62     		str	r2, [r3, #36]
  40:RML1028B/RML1028B.c **** 		
  41:RML1028B/RML1028B.c **** 	IoInit(RML1028B.COM0.PORT,RML1028B.COM0.PIN,IOFUNC,IOPU);
  89              		.loc 1 41 2 is_stmt 1 view .LVU20
  90 0052 BC4C     		ldr	r4, .L4+8
  91 0054 0123     		movs	r3, #1
  92 0056 0222     		movs	r2, #2
  93 0058 6168     		ldr	r1, [r4, #4]
  94 005a 2068     		ldr	r0, [r4]
  95 005c FFF7FEFF 		bl	IoInit
  96              	.LVL0:
  42:RML1028B/RML1028B.c **** 	IoInit(RML1028B.COM1.PORT,RML1028B.COM1.PIN,IOFUNC,IOPU);
  97              		.loc 1 42 2 view .LVU21
  98 0060 0123     		movs	r3, #1
  99 0062 0222     		movs	r2, #2
 100 0064 E168     		ldr	r1, [r4, #12]
 101 0066 A068     		ldr	r0, [r4, #8]
 102 0068 FFF7FEFF 		bl	IoInit
 103              	.LVL1:
  43:RML1028B/RML1028B.c **** 	IoInit(RML1028B.COM2.PORT,RML1028B.COM2.PIN,IOFUNC,IOPU);
 104              		.loc 1 43 2 view .LVU22
 105 006c 0123     		movs	r3, #1
 106 006e 0222     		movs	r2, #2
 107 0070 6169     		ldr	r1, [r4, #20]
 108 0072 2069     		ldr	r0, [r4, #16]
 109 0074 FFF7FEFF 		bl	IoInit
 110              	.LVL2:
  44:RML1028B/RML1028B.c **** 	IoInit(RML1028B.COM3.PORT,RML1028B.COM3.PIN,IOFUNC,IOPU);
 111              		.loc 1 44 2 view .LVU23
 112 0078 0123     		movs	r3, #1
 113 007a 0222     		movs	r2, #2
 114 007c E169     		ldr	r1, [r4, #28]
 115 007e A069     		ldr	r0, [r4, #24]
 116 0080 FFF7FEFF 		bl	IoInit
 117              	.LVL3:
  45:RML1028B/RML1028B.c **** 	
  46:RML1028B/RML1028B.c **** 	IoInit(RML1028B.SEG0.PORT,RML1028B.SEG0.PIN,IOFUNC,IOPU);
 118              		.loc 1 46 2 view .LVU24
 119 0084 0123     		movs	r3, #1
 120 0086 0222     		movs	r2, #2
 121 0088 616A     		ldr	r1, [r4, #36]
 122 008a 206A     		ldr	r0, [r4, #32]
 123 008c FFF7FEFF 		bl	IoInit
 124              	.LVL4:
  47:RML1028B/RML1028B.c **** 	IoInit(RML1028B.SEG1.PORT,RML1028B.SEG1.PIN,IOFUNC,IOPU);
 125              		.loc 1 47 2 view .LVU25
ARM GAS  /var/folders/ww/n4ctlbrs3x70633t9y2ks63c0000gn/T//cc4zKi8f.s 			page 4


 126 0090 0123     		movs	r3, #1
 127 0092 0222     		movs	r2, #2
 128 0094 E16A     		ldr	r1, [r4, #44]
 129 0096 A06A     		ldr	r0, [r4, #40]
 130 0098 FFF7FEFF 		bl	IoInit
 131              	.LVL5:
  48:RML1028B/RML1028B.c **** 	IoInit(RML1028B.SEG2.PORT,RML1028B.SEG2.PIN,IOFUNC,IOPU);
 132              		.loc 1 48 2 view .LVU26
 133 009c 0123     		movs	r3, #1
 134 009e 0222     		movs	r2, #2
 135 00a0 616B     		ldr	r1, [r4, #52]
 136 00a2 206B     		ldr	r0, [r4, #48]
 137 00a4 FFF7FEFF 		bl	IoInit
 138              	.LVL6:
  49:RML1028B/RML1028B.c **** 	IoInit(RML1028B.SEG3.PORT,RML1028B.SEG3.PIN,IOFUNC,IOPU);
 139              		.loc 1 49 2 view .LVU27
 140 00a8 0123     		movs	r3, #1
 141 00aa 0222     		movs	r2, #2
 142 00ac E16B     		ldr	r1, [r4, #60]
 143 00ae A06B     		ldr	r0, [r4, #56]
 144 00b0 FFF7FEFF 		bl	IoInit
 145              	.LVL7:
  50:RML1028B/RML1028B.c **** 	IoInit(RML1028B.SEG4.PORT,RML1028B.SEG4.PIN,IOFUNC,IOPU);
 146              		.loc 1 50 2 view .LVU28
 147 00b4 0123     		movs	r3, #1
 148 00b6 0222     		movs	r2, #2
 149 00b8 616C     		ldr	r1, [r4, #68]
 150 00ba 206C     		ldr	r0, [r4, #64]
 151 00bc FFF7FEFF 		bl	IoInit
 152              	.LVL8:
  51:RML1028B/RML1028B.c **** 	IoInit(RML1028B.SEG5.PORT,RML1028B.SEG5.PIN,IOFUNC,IOPU);
 153              		.loc 1 51 2 view .LVU29
 154 00c0 0123     		movs	r3, #1
 155 00c2 0222     		movs	r2, #2
 156 00c4 E16C     		ldr	r1, [r4, #76]
 157 00c6 A06C     		ldr	r0, [r4, #72]
 158 00c8 FFF7FEFF 		bl	IoInit
 159              	.LVL9:
  52:RML1028B/RML1028B.c **** 	IoInit(RML1028B.SEG6.PORT,RML1028B.SEG6.PIN,IOFUNC,IOPU);
 160              		.loc 1 52 2 view .LVU30
 161 00cc 0123     		movs	r3, #1
 162 00ce 0222     		movs	r2, #2
 163 00d0 616D     		ldr	r1, [r4, #84]
 164 00d2 206D     		ldr	r0, [r4, #80]
 165 00d4 FFF7FEFF 		bl	IoInit
 166              	.LVL10:
  53:RML1028B/RML1028B.c **** 	IoInit(RML1028B.SEG7.PORT,RML1028B.SEG7.PIN,IOFUNC,IOPU);
 167              		.loc 1 53 2 view .LVU31
 168 00d8 0123     		movs	r3, #1
 169 00da 0222     		movs	r2, #2
 170 00dc E16D     		ldr	r1, [r4, #92]
 171 00de A06D     		ldr	r0, [r4, #88]
 172 00e0 FFF7FEFF 		bl	IoInit
 173              	.LVL11:
  54:RML1028B/RML1028B.c **** 	IoInit(RML1028B.SEG8.PORT,RML1028B.SEG8.PIN,IOFUNC,IOPU);
 174              		.loc 1 54 2 view .LVU32
 175 00e4 0123     		movs	r3, #1
ARM GAS  /var/folders/ww/n4ctlbrs3x70633t9y2ks63c0000gn/T//cc4zKi8f.s 			page 5


 176 00e6 0222     		movs	r2, #2
 177 00e8 616E     		ldr	r1, [r4, #100]
 178 00ea 206E     		ldr	r0, [r4, #96]
 179 00ec FFF7FEFF 		bl	IoInit
 180              	.LVL12:
  55:RML1028B/RML1028B.c **** 	IoInit(RML1028B.SEG9.PORT,RML1028B.SEG9.PIN,IOFUNC,IOPU);
 181              		.loc 1 55 2 view .LVU33
 182 00f0 0123     		movs	r3, #1
 183 00f2 0222     		movs	r2, #2
 184 00f4 E16E     		ldr	r1, [r4, #108]
 185 00f6 A06E     		ldr	r0, [r4, #104]
 186 00f8 FFF7FEFF 		bl	IoInit
 187              	.LVL13:
  56:RML1028B/RML1028B.c **** 	IoInit(RML1028B.SEG10.PORT,RML1028B.SEG10.PIN,IOFUNC,IOPU);
 188              		.loc 1 56 2 view .LVU34
 189 00fc 0123     		movs	r3, #1
 190 00fe 0222     		movs	r2, #2
 191 0100 616F     		ldr	r1, [r4, #116]
 192 0102 206F     		ldr	r0, [r4, #112]
 193 0104 FFF7FEFF 		bl	IoInit
 194              	.LVL14:
  57:RML1028B/RML1028B.c **** 	IoInit(RML1028B.SEG11.PORT,RML1028B.SEG11.PIN,IOFUNC,IOPU);
 195              		.loc 1 57 2 view .LVU35
 196 0108 0123     		movs	r3, #1
 197 010a 0222     		movs	r2, #2
 198 010c E16F     		ldr	r1, [r4, #124]
 199 010e A06F     		ldr	r0, [r4, #120]
 200 0110 FFF7FEFF 		bl	IoInit
 201              	.LVL15:
  58:RML1028B/RML1028B.c **** 	IoInit(RML1028B.SEG12.PORT,RML1028B.SEG12.PIN,IOFUNC,IOPU);
 202              		.loc 1 58 2 view .LVU36
 203 0114 0123     		movs	r3, #1
 204 0116 0222     		movs	r2, #2
 205 0118 D4F88410 		ldr	r1, [r4, #132]
 206 011c D4F88000 		ldr	r0, [r4, #128]
 207 0120 FFF7FEFF 		bl	IoInit
 208              	.LVL16:
  59:RML1028B/RML1028B.c **** 	IoInit(RML1028B.SEG13.PORT,RML1028B.SEG13.PIN,IOFUNC,IOPU);
 209              		.loc 1 59 2 view .LVU37
 210 0124 0123     		movs	r3, #1
 211 0126 0222     		movs	r2, #2
 212 0128 D4F88C10 		ldr	r1, [r4, #140]
 213 012c D4F88800 		ldr	r0, [r4, #136]
 214 0130 FFF7FEFF 		bl	IoInit
 215              	.LVL17:
  60:RML1028B/RML1028B.c **** 	IoInit(RML1028B.SEG14.PORT,RML1028B.SEG14.PIN,IOFUNC,IOPU);
 216              		.loc 1 60 2 view .LVU38
 217 0134 0123     		movs	r3, #1
 218 0136 0222     		movs	r2, #2
 219 0138 D4F89410 		ldr	r1, [r4, #148]
 220 013c D4F89000 		ldr	r0, [r4, #144]
 221 0140 FFF7FEFF 		bl	IoInit
 222              	.LVL18:
  61:RML1028B/RML1028B.c **** 	IoInit(RML1028B.SEG15.PORT,RML1028B.SEG15.PIN,IOFUNC,IOPU);
 223              		.loc 1 61 2 view .LVU39
 224 0144 0123     		movs	r3, #1
 225 0146 0222     		movs	r2, #2
ARM GAS  /var/folders/ww/n4ctlbrs3x70633t9y2ks63c0000gn/T//cc4zKi8f.s 			page 6


 226 0148 D4F89C10 		ldr	r1, [r4, #156]
 227 014c D4F89800 		ldr	r0, [r4, #152]
 228 0150 FFF7FEFF 		bl	IoInit
 229              	.LVL19:
  62:RML1028B/RML1028B.c **** 	IoInit(RML1028B.SEG16.PORT,RML1028B.SEG16.PIN,IOFUNC,IOPU);
 230              		.loc 1 62 2 view .LVU40
 231 0154 0123     		movs	r3, #1
 232 0156 0222     		movs	r2, #2
 233 0158 D4F8A410 		ldr	r1, [r4, #164]
 234 015c D4F8A000 		ldr	r0, [r4, #160]
 235 0160 FFF7FEFF 		bl	IoInit
 236              	.LVL20:
  63:RML1028B/RML1028B.c **** 	IoInit(RML1028B.SEG17.PORT,RML1028B.SEG17.PIN,IOFUNC,IOPU);
 237              		.loc 1 63 2 view .LVU41
 238 0164 0123     		movs	r3, #1
 239 0166 0222     		movs	r2, #2
 240 0168 D4F8AC10 		ldr	r1, [r4, #172]
 241 016c D4F8A800 		ldr	r0, [r4, #168]
 242 0170 FFF7FEFF 		bl	IoInit
 243              	.LVL21:
  64:RML1028B/RML1028B.c **** 	
  65:RML1028B/RML1028B.c **** 	//COM、SEG引脚配置为LCD功能
  66:RML1028B/RML1028B.c **** 	GPIO_AF_Set(RML1028B.COM0.PORT,Pin2Num(RML1028B.COM0.PIN),11);
 244              		.loc 1 66 2 view .LVU42
 245 0174 2568     		ldr	r5, [r4]
 246 0176 6068     		ldr	r0, [r4, #4]
 247 0178 FFF7FEFF 		bl	Pin2Num
 248              	.LVL22:
 249 017c 0B22     		movs	r2, #11
 250 017e 0146     		mov	r1, r0
 251 0180 2846     		mov	r0, r5
 252 0182 FFF7FEFF 		bl	GPIO_AF_Set
 253              	.LVL23:
  67:RML1028B/RML1028B.c **** 	GPIO_AF_Set(RML1028B.COM1.PORT,Pin2Num(RML1028B.COM1.PIN),11);
 254              		.loc 1 67 2 view .LVU43
 255 0186 A568     		ldr	r5, [r4, #8]
 256 0188 E068     		ldr	r0, [r4, #12]
 257 018a FFF7FEFF 		bl	Pin2Num
 258              	.LVL24:
 259 018e 0B22     		movs	r2, #11
 260 0190 0146     		mov	r1, r0
 261 0192 2846     		mov	r0, r5
 262 0194 FFF7FEFF 		bl	GPIO_AF_Set
 263              	.LVL25:
  68:RML1028B/RML1028B.c **** 	GPIO_AF_Set(RML1028B.COM2.PORT,Pin2Num(RML1028B.COM2.PIN),11);
 264              		.loc 1 68 2 view .LVU44
 265 0198 2569     		ldr	r5, [r4, #16]
 266 019a 6069     		ldr	r0, [r4, #20]
 267 019c FFF7FEFF 		bl	Pin2Num
 268              	.LVL26:
 269 01a0 0B22     		movs	r2, #11
 270 01a2 0146     		mov	r1, r0
 271 01a4 2846     		mov	r0, r5
 272 01a6 FFF7FEFF 		bl	GPIO_AF_Set
 273              	.LVL27:
  69:RML1028B/RML1028B.c **** 	GPIO_AF_Set(RML1028B.COM3.PORT,Pin2Num(RML1028B.COM3.PIN),11);
 274              		.loc 1 69 2 view .LVU45
ARM GAS  /var/folders/ww/n4ctlbrs3x70633t9y2ks63c0000gn/T//cc4zKi8f.s 			page 7


 275 01aa A569     		ldr	r5, [r4, #24]
 276 01ac E069     		ldr	r0, [r4, #28]
 277 01ae FFF7FEFF 		bl	Pin2Num
 278              	.LVL28:
 279 01b2 0B22     		movs	r2, #11
 280 01b4 0146     		mov	r1, r0
 281 01b6 2846     		mov	r0, r5
 282 01b8 FFF7FEFF 		bl	GPIO_AF_Set
 283              	.LVL29:
  70:RML1028B/RML1028B.c **** 	GPIO_AF_Set(RML1028B.SEG0.PORT,Pin2Num(RML1028B.SEG0.PIN),11);
 284              		.loc 1 70 2 view .LVU46
 285 01bc 256A     		ldr	r5, [r4, #32]
 286 01be 606A     		ldr	r0, [r4, #36]
 287 01c0 FFF7FEFF 		bl	Pin2Num
 288              	.LVL30:
 289 01c4 0B22     		movs	r2, #11
 290 01c6 0146     		mov	r1, r0
 291 01c8 2846     		mov	r0, r5
 292 01ca FFF7FEFF 		bl	GPIO_AF_Set
 293              	.LVL31:
  71:RML1028B/RML1028B.c **** 	GPIO_AF_Set(RML1028B.SEG1.PORT,Pin2Num(RML1028B.SEG1.PIN),11);
 294              		.loc 1 71 2 view .LVU47
 295 01ce A56A     		ldr	r5, [r4, #40]
 296 01d0 E06A     		ldr	r0, [r4, #44]
 297 01d2 FFF7FEFF 		bl	Pin2Num
 298              	.LVL32:
 299 01d6 0B22     		movs	r2, #11
 300 01d8 0146     		mov	r1, r0
 301 01da 2846     		mov	r0, r5
 302 01dc FFF7FEFF 		bl	GPIO_AF_Set
 303              	.LVL33:
  72:RML1028B/RML1028B.c **** 	GPIO_AF_Set(RML1028B.SEG2.PORT,Pin2Num(RML1028B.SEG2.PIN),11);
 304              		.loc 1 72 2 view .LVU48
 305 01e0 256B     		ldr	r5, [r4, #48]
 306 01e2 606B     		ldr	r0, [r4, #52]
 307 01e4 FFF7FEFF 		bl	Pin2Num
 308              	.LVL34:
 309 01e8 0B22     		movs	r2, #11
 310 01ea 0146     		mov	r1, r0
 311 01ec 2846     		mov	r0, r5
 312 01ee FFF7FEFF 		bl	GPIO_AF_Set
 313              	.LVL35:
  73:RML1028B/RML1028B.c **** 	GPIO_AF_Set(RML1028B.SEG3.PORT,Pin2Num(RML1028B.SEG3.PIN),11);
 314              		.loc 1 73 2 view .LVU49
 315 01f2 A56B     		ldr	r5, [r4, #56]
 316 01f4 E06B     		ldr	r0, [r4, #60]
 317 01f6 FFF7FEFF 		bl	Pin2Num
 318              	.LVL36:
 319 01fa 0B22     		movs	r2, #11
 320 01fc 0146     		mov	r1, r0
 321 01fe 2846     		mov	r0, r5
 322 0200 FFF7FEFF 		bl	GPIO_AF_Set
 323              	.LVL37:
  74:RML1028B/RML1028B.c **** 	GPIO_AF_Set(RML1028B.SEG4.PORT,Pin2Num(RML1028B.SEG4.PIN),11);
 324              		.loc 1 74 2 view .LVU50
 325 0204 256C     		ldr	r5, [r4, #64]
 326 0206 606C     		ldr	r0, [r4, #68]
ARM GAS  /var/folders/ww/n4ctlbrs3x70633t9y2ks63c0000gn/T//cc4zKi8f.s 			page 8


 327 0208 FFF7FEFF 		bl	Pin2Num
 328              	.LVL38:
 329 020c 0B22     		movs	r2, #11
 330 020e 0146     		mov	r1, r0
 331 0210 2846     		mov	r0, r5
 332 0212 FFF7FEFF 		bl	GPIO_AF_Set
 333              	.LVL39:
  75:RML1028B/RML1028B.c **** 	GPIO_AF_Set(RML1028B.SEG5.PORT,Pin2Num(RML1028B.SEG5.PIN),11);
 334              		.loc 1 75 2 view .LVU51
 335 0216 A56C     		ldr	r5, [r4, #72]
 336 0218 E06C     		ldr	r0, [r4, #76]
 337 021a FFF7FEFF 		bl	Pin2Num
 338              	.LVL40:
 339 021e 0B22     		movs	r2, #11
 340 0220 0146     		mov	r1, r0
 341 0222 2846     		mov	r0, r5
 342 0224 FFF7FEFF 		bl	GPIO_AF_Set
 343              	.LVL41:
  76:RML1028B/RML1028B.c **** 	GPIO_AF_Set(RML1028B.SEG6.PORT,Pin2Num(RML1028B.SEG6.PIN),11);
 344              		.loc 1 76 2 view .LVU52
 345 0228 256D     		ldr	r5, [r4, #80]
 346 022a 606D     		ldr	r0, [r4, #84]
 347 022c FFF7FEFF 		bl	Pin2Num
 348              	.LVL42:
 349 0230 0B22     		movs	r2, #11
 350 0232 0146     		mov	r1, r0
 351 0234 2846     		mov	r0, r5
 352 0236 FFF7FEFF 		bl	GPIO_AF_Set
 353              	.LVL43:
  77:RML1028B/RML1028B.c **** 	GPIO_AF_Set(RML1028B.SEG7.PORT,Pin2Num(RML1028B.SEG7.PIN),11);
 354              		.loc 1 77 2 view .LVU53
 355 023a A56D     		ldr	r5, [r4, #88]
 356 023c E06D     		ldr	r0, [r4, #92]
 357 023e FFF7FEFF 		bl	Pin2Num
 358              	.LVL44:
 359 0242 0B22     		movs	r2, #11
 360 0244 0146     		mov	r1, r0
 361 0246 2846     		mov	r0, r5
 362 0248 FFF7FEFF 		bl	GPIO_AF_Set
 363              	.LVL45:
  78:RML1028B/RML1028B.c **** 	GPIO_AF_Set(RML1028B.SEG8.PORT,Pin2Num(RML1028B.SEG8.PIN),11);
 364              		.loc 1 78 2 view .LVU54
 365 024c 256E     		ldr	r5, [r4, #96]
 366 024e 606E     		ldr	r0, [r4, #100]
 367 0250 FFF7FEFF 		bl	Pin2Num
 368              	.LVL46:
 369 0254 0B22     		movs	r2, #11
 370 0256 0146     		mov	r1, r0
 371 0258 2846     		mov	r0, r5
 372 025a FFF7FEFF 		bl	GPIO_AF_Set
 373              	.LVL47:
  79:RML1028B/RML1028B.c **** 	GPIO_AF_Set(RML1028B.SEG9.PORT,Pin2Num(RML1028B.SEG9.PIN),11);
 374              		.loc 1 79 2 view .LVU55
 375 025e A56E     		ldr	r5, [r4, #104]
 376 0260 E06E     		ldr	r0, [r4, #108]
 377 0262 FFF7FEFF 		bl	Pin2Num
 378              	.LVL48:
ARM GAS  /var/folders/ww/n4ctlbrs3x70633t9y2ks63c0000gn/T//cc4zKi8f.s 			page 9


 379 0266 0B22     		movs	r2, #11
 380 0268 0146     		mov	r1, r0
 381 026a 2846     		mov	r0, r5
 382 026c FFF7FEFF 		bl	GPIO_AF_Set
 383              	.LVL49:
  80:RML1028B/RML1028B.c **** 	GPIO_AF_Set(RML1028B.SEG10.PORT,Pin2Num(RML1028B.SEG10.PIN),11);
 384              		.loc 1 80 2 view .LVU56
 385 0270 256F     		ldr	r5, [r4, #112]
 386 0272 606F     		ldr	r0, [r4, #116]
 387 0274 FFF7FEFF 		bl	Pin2Num
 388              	.LVL50:
 389 0278 0B22     		movs	r2, #11
 390 027a 0146     		mov	r1, r0
 391 027c 2846     		mov	r0, r5
 392 027e FFF7FEFF 		bl	GPIO_AF_Set
 393              	.LVL51:
  81:RML1028B/RML1028B.c **** 	GPIO_AF_Set(RML1028B.SEG11.PORT,Pin2Num(RML1028B.SEG11.PIN),11);
 394              		.loc 1 81 2 view .LVU57
 395 0282 A56F     		ldr	r5, [r4, #120]
 396 0284 E06F     		ldr	r0, [r4, #124]
 397 0286 FFF7FEFF 		bl	Pin2Num
 398              	.LVL52:
 399 028a 0B22     		movs	r2, #11
 400 028c 0146     		mov	r1, r0
 401 028e 2846     		mov	r0, r5
 402 0290 FFF7FEFF 		bl	GPIO_AF_Set
 403              	.LVL53:
  82:RML1028B/RML1028B.c **** 	GPIO_AF_Set(RML1028B.SEG12.PORT,Pin2Num(RML1028B.SEG12.PIN),11);
 404              		.loc 1 82 2 view .LVU58
 405 0294 D4F88050 		ldr	r5, [r4, #128]
 406 0298 D4F88400 		ldr	r0, [r4, #132]
 407 029c FFF7FEFF 		bl	Pin2Num
 408              	.LVL54:
 409 02a0 0B22     		movs	r2, #11
 410 02a2 0146     		mov	r1, r0
 411 02a4 2846     		mov	r0, r5
 412 02a6 FFF7FEFF 		bl	GPIO_AF_Set
 413              	.LVL55:
  83:RML1028B/RML1028B.c **** 	GPIO_AF_Set(RML1028B.SEG13.PORT,Pin2Num(RML1028B.SEG13.PIN),11);
 414              		.loc 1 83 2 view .LVU59
 415 02aa D4F88850 		ldr	r5, [r4, #136]
 416 02ae D4F88C00 		ldr	r0, [r4, #140]
 417 02b2 FFF7FEFF 		bl	Pin2Num
 418              	.LVL56:
 419 02b6 0B22     		movs	r2, #11
 420 02b8 0146     		mov	r1, r0
 421 02ba 2846     		mov	r0, r5
 422 02bc FFF7FEFF 		bl	GPIO_AF_Set
 423              	.LVL57:
  84:RML1028B/RML1028B.c **** 	GPIO_AF_Set(RML1028B.SEG14.PORT,Pin2Num(RML1028B.SEG14.PIN),11);
 424              		.loc 1 84 2 view .LVU60
 425 02c0 D4F89050 		ldr	r5, [r4, #144]
 426 02c4 D4F89400 		ldr	r0, [r4, #148]
 427 02c8 FFF7FEFF 		bl	Pin2Num
 428              	.LVL58:
 429 02cc 0B22     		movs	r2, #11
 430 02ce 0146     		mov	r1, r0
ARM GAS  /var/folders/ww/n4ctlbrs3x70633t9y2ks63c0000gn/T//cc4zKi8f.s 			page 10


 431 02d0 2846     		mov	r0, r5
 432 02d2 FFF7FEFF 		bl	GPIO_AF_Set
 433              	.LVL59:
  85:RML1028B/RML1028B.c **** 	GPIO_AF_Set(RML1028B.SEG15.PORT,Pin2Num(RML1028B.SEG15.PIN),11);
 434              		.loc 1 85 2 view .LVU61
 435 02d6 D4F89850 		ldr	r5, [r4, #152]
 436 02da D4F89C00 		ldr	r0, [r4, #156]
 437 02de FFF7FEFF 		bl	Pin2Num
 438              	.LVL60:
 439 02e2 0B22     		movs	r2, #11
 440 02e4 0146     		mov	r1, r0
 441 02e6 2846     		mov	r0, r5
 442 02e8 FFF7FEFF 		bl	GPIO_AF_Set
 443              	.LVL61:
  86:RML1028B/RML1028B.c **** 	GPIO_AF_Set(RML1028B.SEG16.PORT,Pin2Num(RML1028B.SEG16.PIN),11);
 444              		.loc 1 86 2 view .LVU62
 445 02ec D4F8A050 		ldr	r5, [r4, #160]
 446 02f0 D4F8A400 		ldr	r0, [r4, #164]
 447 02f4 FFF7FEFF 		bl	Pin2Num
 448              	.LVL62:
 449 02f8 0B22     		movs	r2, #11
 450 02fa 0146     		mov	r1, r0
 451 02fc 2846     		mov	r0, r5
 452 02fe FFF7FEFF 		bl	GPIO_AF_Set
 453              	.LVL63:
  87:RML1028B/RML1028B.c **** 	GPIO_AF_Set(RML1028B.SEG17.PORT,Pin2Num(RML1028B.SEG17.PIN),11);
 454              		.loc 1 87 2 view .LVU63
 455 0302 D4F8A850 		ldr	r5, [r4, #168]
 456 0306 D4F8AC00 		ldr	r0, [r4, #172]
 457 030a FFF7FEFF 		bl	Pin2Num
 458              	.LVL64:
 459 030e 0B22     		movs	r2, #11
 460 0310 0146     		mov	r1, r0
 461 0312 2846     		mov	r0, r5
 462 0314 FFF7FEFF 		bl	GPIO_AF_Set
 463              	.LVL65:
  88:RML1028B/RML1028B.c **** 
  89:RML1028B/RML1028B.c **** 	
  90:RML1028B/RML1028B.c **** 	LCD->FCR |= (0x02 << 22);
 464              		.loc 1 90 2 view .LVU64
 465              		.loc 1 90 11 is_stmt 0 view .LVU65
 466 0318 0B4B     		ldr	r3, .L4+12
 467 031a 5A68     		ldr	r2, [r3, #4]
 468 031c 42F40002 		orr	r2, r2, #8388608
 469 0320 5A60     		str	r2, [r3, #4]
  91:RML1028B/RML1028B.c **** 	LCD->FCR |= (0x06 << 18);
 470              		.loc 1 91 2 is_stmt 1 view .LVU66
 471              		.loc 1 91 11 is_stmt 0 view .LVU67
 472 0322 5A68     		ldr	r2, [r3, #4]
 473 0324 42F4C012 		orr	r2, r2, #1572864
 474 0328 5A60     		str	r2, [r3, #4]
  92:RML1028B/RML1028B.c **** 	LCD->FCR |= (0x02 << 16);
 475              		.loc 1 92 2 is_stmt 1 view .LVU68
 476              		.loc 1 92 11 is_stmt 0 view .LVU69
 477 032a 5A68     		ldr	r2, [r3, #4]
 478 032c 42F40032 		orr	r2, r2, #131072
 479 0330 5A60     		str	r2, [r3, #4]
ARM GAS  /var/folders/ww/n4ctlbrs3x70633t9y2ks63c0000gn/T//cc4zKi8f.s 			page 11


  93:RML1028B/RML1028B.c **** 	LCD->FCR |= (0x01 << 13);
 480              		.loc 1 93 2 is_stmt 1 view .LVU70
 481              		.loc 1 93 11 is_stmt 0 view .LVU71
 482 0332 5A68     		ldr	r2, [r3, #4]
 483 0334 42F40052 		orr	r2, r2, #8192
 484 0338 5A60     		str	r2, [r3, #4]
 485 033a 07E0     		b	.L5
 486              	.L6:
 487              		.align	2
 488              	.L4:
 489 033c 00380240 		.word	1073887232
 490 0340 00700040 		.word	1073770496
 491 0344 00000000 		.word	.LANCHOR0
 492 0348 00240040 		.word	1073751040
 493              	.L5:
  94:RML1028B/RML1028B.c **** 	LCD->FCR |= (0x01 << 4);
 494              		.loc 1 94 2 is_stmt 1 view .LVU72
 495              		.loc 1 94 11 is_stmt 0 view .LVU73
 496 034c 5A68     		ldr	r2, [r3, #4]
 497 034e 42F01002 		orr	r2, r2, #16
 498 0352 5A60     		str	r2, [r3, #4]
  95:RML1028B/RML1028B.c **** 	LCD->FCR |= 0x01;
 499              		.loc 1 95 2 is_stmt 1 view .LVU74
 500              		.loc 1 95 11 is_stmt 0 view .LVU75
 501 0354 5A68     		ldr	r2, [r3, #4]
 502 0356 42F00102 		orr	r2, r2, #1
 503 035a 5A60     		str	r2, [r3, #4]
  96:RML1028B/RML1028B.c **** 	LCD->CR |= 0xCF;										//bias 1/3 duty 1/4 外部电源供电 使能LCD控制器
 504              		.loc 1 96 2 is_stmt 1 view .LVU76
 505              		.loc 1 96 10 is_stmt 0 view .LVU77
 506 035c 1A68     		ldr	r2, [r3]
 507 035e 42F0CF02 		orr	r2, r2, #207
 508 0362 1A60     		str	r2, [r3]
  97:RML1028B/RML1028B.c **** 	
  98:RML1028B/RML1028B.c **** 	IoInit(RML1028B.BKLIGHT.PORT,RML1028B.BKLIGHT.PIN,IOOUT,IOPU);
 509              		.loc 1 98 2 is_stmt 1 view .LVU78
 510 0364 0123     		movs	r3, #1
 511 0366 1A46     		mov	r2, r3
 512 0368 D4F8B410 		ldr	r1, [r4, #180]
 513 036c D4F8B000 		ldr	r0, [r4, #176]
 514 0370 FFF7FEFF 		bl	IoInit
 515              	.LVL66:
  99:RML1028B/RML1028B.c **** 	BKLIGHTON;												//默认打开背光
 516              		.loc 1 99 2 view .LVU79
 517 0374 D4F8B430 		ldr	r3, [r4, #180]
 518 0378 D4F8B020 		ldr	r2, [r4, #176]
 519 037c 1B04     		lsls	r3, r3, #16
 520 037e 9361     		str	r3, [r2, #24]
 100:RML1028B/RML1028B.c **** }
 521              		.loc 1 100 1 is_stmt 0 view .LVU80
 522 0380 38BD     		pop	{r3, r4, r5, pc}
 523              		.cfi_endproc
 524              	.LFE65:
 526              		.global	RML1028B
 527 0382 00BF     		.section	.data.RML1028B,"aw"
 528              		.align	2
 529              		.set	.LANCHOR0,. + 0
ARM GAS  /var/folders/ww/n4ctlbrs3x70633t9y2ks63c0000gn/T//cc4zKi8f.s 			page 12


 532              	RML1028B:
 533 0000 00000240 		.word	1073872896
 534 0004 00010000 		.word	256
 535 0008 00000240 		.word	1073872896
 536 000c 00020000 		.word	512
 537 0010 00000240 		.word	1073872896
 538 0014 00040000 		.word	1024
 539 0018 00040240 		.word	1073873920
 540 001c 00020000 		.word	512
 541 0020 00040240 		.word	1073873920
 542 0024 00040000 		.word	1024
 543 0028 00040240 		.word	1073873920
 544 002c 00080000 		.word	2048
 545 0030 00040240 		.word	1073873920
 546 0034 00100000 		.word	4096
 547 0038 00040240 		.word	1073873920
 548 003c 00200000 		.word	8192
 549 0040 00040240 		.word	1073873920
 550 0044 00400000 		.word	16384
 551 0048 00040240 		.word	1073873920
 552 004c 00800000 		.word	32768
 553 0050 00080240 		.word	1073874944
 554 0054 40000000 		.word	64
 555 0058 00080240 		.word	1073874944
 556 005c 08000000 		.word	8
 557 0060 00080240 		.word	1073874944
 558 0064 04000000 		.word	4
 559 0068 00080240 		.word	1073874944
 560 006c 02000000 		.word	2
 561 0070 00080240 		.word	1073874944
 562 0074 01000000 		.word	1
 563 0078 00040240 		.word	1073873920
 564 007c 00010000 		.word	256
 565 0080 00040240 		.word	1073873920
 566 0084 20000000 		.word	32
 567 0088 00040240 		.word	1073873920
 568 008c 10000000 		.word	16
 569 0090 00040240 		.word	1073873920
 570 0094 08000000 		.word	8
 571 0098 000C0240 		.word	1073875968
 572 009c 04000000 		.word	4
 573 00a0 00080240 		.word	1073874944
 574 00a4 00100000 		.word	4096
 575 00a8 00080240 		.word	1073874944
 576 00ac 00080000 		.word	2048
 577 00b0 00000240 		.word	1073872896
 578 00b4 00800000 		.word	32768
 579              		.text
 580              	.Letext0:
 581              		.file 2 "/Users/shuuyou/gcc-arm-none-eabi/arm-none-eabi/include/machine/_default_types.h"
 582              		.file 3 "/Users/shuuyou/gcc-arm-none-eabi/arm-none-eabi/include/sys/_stdint.h"
 583              		.file 4 "Inc/stm32l152xe.h"
 584              		.file 5 "/Users/shuuyou/gcc-arm-none-eabi/lib/gcc/arm-none-eabi/8.3.1/include/stddef.h"
 585              		.file 6 "/Users/shuuyou/gcc-arm-none-eabi/arm-none-eabi/include/sys/_types.h"
 586              		.file 7 "/Users/shuuyou/gcc-arm-none-eabi/arm-none-eabi/include/sys/reent.h"
 587              		.file 8 "/Users/shuuyou/gcc-arm-none-eabi/arm-none-eabi/include/sys/lock.h"
 588              		.file 9 "Inc/core_cm3.h"
ARM GAS  /var/folders/ww/n4ctlbrs3x70633t9y2ks63c0000gn/T//cc4zKi8f.s 			page 13


 589              		.file 10 "APP/inc/Public.h"
 590              		.file 11 "HARDWARE/inc/Temputer.h"
 591              		.file 12 "HARDWARE/inc/Adc.h"
 592              		.file 13 "HARDWARE/inc/Timer.h"
 593              		.file 14 "HARDWARE/inc/Control.h"
 594              		.file 15 "TOOL/inc/malloc.h"
 595              		.file 16 "TOOL/inc/TaskManger.h"
 596              		.file 17 "DISPALY/inc/DispManger.h"
 597              		.file 18 "TOOL/inc/CrcUtil.h"
 598              		.file 19 "APP/inc/VolPro.h"
 599              		.file 20 "APP/inc/FreqPro.h"
 600              		.file 21 "APP/inc/ParasCheckPro.h"
 601              		.file 22 "APP/inc/TemputerPro.h"
 602              		.file 23 "RML1028B/RML1028B.h"
ARM GAS  /var/folders/ww/n4ctlbrs3x70633t9y2ks63c0000gn/T//cc4zKi8f.s 			page 14

