ARM GAS  /var/folders/ww/n4ctlbrs3x70633t9y2ks63c0000gn/T//cc8V7J09.s 			page 1


   1              		.cpu cortex-m3
   2              		.eabi_attribute 20, 1
   3              		.eabi_attribute 21, 1
   4              		.eabi_attribute 23, 3
   5              		.eabi_attribute 24, 1
   6              		.eabi_attribute 25, 1
   7              		.eabi_attribute 26, 1
   8              		.eabi_attribute 30, 1
   9              		.eabi_attribute 34, 1
  10              		.eabi_attribute 18, 4
  11              		.file	"Temputer.c"
  12              		.text
  13              	.Ltext0:
  14              		.cfi_sections	.debug_frame
  15              		.section	.text.LedsInit,"ax",%progbits
  16              		.align	1
  17              		.global	LedsInit
  18              		.arch armv7-m
  19              		.syntax unified
  20              		.thumb
  21              		.thumb_func
  22              		.fpu softvfp
  24              	LedsInit:
  25              	.LFB65:
  26              		.file 1 "HARDWARE/Temputer.c"
   1:HARDWARE/Temputer.c **** #include "Temputer.h"
   2:HARDWARE/Temputer.c **** 
   3:HARDWARE/Temputer.c **** _TEMPIOS TEMPIOS = {
   4:HARDWARE/Temputer.c **** 	.TEMP1={GPIOC,PIN13},
   5:HARDWARE/Temputer.c **** 	.TEMP2={GPIOC,PIN14},
   6:HARDWARE/Temputer.c **** 	.TEMP3={GPIOC,PIN15},
   7:HARDWARE/Temputer.c **** };
   8:HARDWARE/Temputer.c **** 
   9:HARDWARE/Temputer.c **** void LedsInit(void)
  10:HARDWARE/Temputer.c **** {
  27              		.loc 1 10 1 view -0
  28              		.cfi_startproc
  29              		@ args = 0, pretend = 0, frame = 0
  30              		@ frame_needed = 0, uses_anonymous_args = 0
  31 0000 10B5     		push	{r4, lr}
  32              	.LCFI0:
  33              		.cfi_def_cfa_offset 8
  34              		.cfi_offset 4, -8
  35              		.cfi_offset 14, -4
  11:HARDWARE/Temputer.c **** 	TEMPSIOCLKEN;
  36              		.loc 1 11 2 view .LVU1
  37 0002 0C4A     		ldr	r2, .L3
  38 0004 D369     		ldr	r3, [r2, #28]
  39 0006 43F02403 		orr	r3, r3, #36
  40 000a D361     		str	r3, [r2, #28]
  12:HARDWARE/Temputer.c **** 	IoInit(TEMPIOS.TEMP1.PORT,TEMPIOS.TEMP1.PIN,IOIN,NOPU);
  41              		.loc 1 12 2 view .LVU2
  42 000c 0A4C     		ldr	r4, .L3+4
  43 000e 0023     		movs	r3, #0
  44 0010 1A46     		mov	r2, r3
  45 0012 6168     		ldr	r1, [r4, #4]
  46 0014 2068     		ldr	r0, [r4]
ARM GAS  /var/folders/ww/n4ctlbrs3x70633t9y2ks63c0000gn/T//cc8V7J09.s 			page 2


  47 0016 FFF7FEFF 		bl	IoInit
  48              	.LVL0:
  13:HARDWARE/Temputer.c **** 	IoInit(TEMPIOS.TEMP2.PORT,TEMPIOS.TEMP2.PIN,IOIN,NOPU);
  49              		.loc 1 13 2 view .LVU3
  50 001a 0023     		movs	r3, #0
  51 001c 1A46     		mov	r2, r3
  52 001e 6169     		ldr	r1, [r4, #20]
  53 0020 2069     		ldr	r0, [r4, #16]
  54 0022 FFF7FEFF 		bl	IoInit
  55              	.LVL1:
  14:HARDWARE/Temputer.c **** 	IoInit(TEMPIOS.TEMP3.PORT,TEMPIOS.TEMP3.PIN,IOIN,NOPU);
  56              		.loc 1 14 2 view .LVU4
  57 0026 0023     		movs	r3, #0
  58 0028 1A46     		mov	r2, r3
  59 002a 616A     		ldr	r1, [r4, #36]
  60 002c 206A     		ldr	r0, [r4, #32]
  61 002e FFF7FEFF 		bl	IoInit
  62              	.LVL2:
  15:HARDWARE/Temputer.c **** }
  63              		.loc 1 15 1 is_stmt 0 view .LVU5
  64 0032 10BD     		pop	{r4, pc}
  65              	.L4:
  66              		.align	2
  67              	.L3:
  68 0034 00380240 		.word	1073887232
  69 0038 00000000 		.word	.LANCHOR0
  70              		.cfi_endproc
  71              	.LFE65:
  73              		.global	TEMPIOS
  74              		.section	.data.TEMPIOS,"aw"
  75              		.align	2
  76              		.set	.LANCHOR0,. + 0
  79              	TEMPIOS:
  80 0000 00080240 		.word	1073874944
  81 0004 00200000 		.word	8192
  82 0008 00000000 		.space	8
  82      00000000 
  83 0010 00080240 		.word	1073874944
  84 0014 00400000 		.word	16384
  85 0018 00000000 		.space	8
  85      00000000 
  86 0020 00080240 		.word	1073874944
  87 0024 00800000 		.word	32768
  88 0028 00000000 		.space	8
  88      00000000 
  89              		.text
  90              	.Letext0:
  91              		.file 2 "/Users/shuuyou/gcc-arm-none-eabi/arm-none-eabi/include/machine/_default_types.h"
  92              		.file 3 "/Users/shuuyou/gcc-arm-none-eabi/arm-none-eabi/include/sys/_stdint.h"
  93              		.file 4 "Inc/stm32l152xe.h"
  94              		.file 5 "/Users/shuuyou/gcc-arm-none-eabi/lib/gcc/arm-none-eabi/8.3.1/include/stddef.h"
  95              		.file 6 "/Users/shuuyou/gcc-arm-none-eabi/arm-none-eabi/include/sys/_types.h"
  96              		.file 7 "/Users/shuuyou/gcc-arm-none-eabi/arm-none-eabi/include/sys/reent.h"
  97              		.file 8 "/Users/shuuyou/gcc-arm-none-eabi/arm-none-eabi/include/sys/lock.h"
  98              		.file 9 "Inc/core_cm3.h"
  99              		.file 10 "APP/inc/Public.h"
 100              		.file 11 "RML1028B/RML1028B.h"
ARM GAS  /var/folders/ww/n4ctlbrs3x70633t9y2ks63c0000gn/T//cc8V7J09.s 			page 3


 101              		.file 12 "HARDWARE/inc/Adc.h"
 102              		.file 13 "HARDWARE/inc/Timer.h"
 103              		.file 14 "HARDWARE/inc/Control.h"
 104              		.file 15 "TOOL/inc/malloc.h"
 105              		.file 16 "TOOL/inc/TaskManger.h"
 106              		.file 17 "DISPALY/inc/DispManger.h"
 107              		.file 18 "TOOL/inc/CrcUtil.h"
 108              		.file 19 "APP/inc/VolPro.h"
 109              		.file 20 "APP/inc/FreqPro.h"
 110              		.file 21 "APP/inc/ParasCheckPro.h"
 111              		.file 22 "APP/inc/TemputerPro.h"
 112              		.file 23 "HARDWARE/inc/Temputer.h"
ARM GAS  /var/folders/ww/n4ctlbrs3x70633t9y2ks63c0000gn/T//cc8V7J09.s 			page 4


DEFINED SYMBOLS
                            *ABS*:0000000000000000 Temputer.c
/var/folders/ww/n4ctlbrs3x70633t9y2ks63c0000gn/T//cc8V7J09.s:16     .text.LedsInit:0000000000000000 $t
/var/folders/ww/n4ctlbrs3x70633t9y2ks63c0000gn/T//cc8V7J09.s:24     .text.LedsInit:0000000000000000 LedsInit
/var/folders/ww/n4ctlbrs3x70633t9y2ks63c0000gn/T//cc8V7J09.s:68     .text.LedsInit:0000000000000034 $d
/var/folders/ww/n4ctlbrs3x70633t9y2ks63c0000gn/T//cc8V7J09.s:79     .data.TEMPIOS:0000000000000000 TEMPIOS
/var/folders/ww/n4ctlbrs3x70633t9y2ks63c0000gn/T//cc8V7J09.s:75     .data.TEMPIOS:0000000000000000 $d

UNDEFINED SYMBOLS
IoInit
